ARM GAS  C:\Users\ALEXAN~1\AppData\Local\Temp\cczGq0ae.s 			page 1


   1              		.cpu cortex-m0
   2              		.fpu softvfp
   3              		.eabi_attribute 20, 1
   4              		.eabi_attribute 21, 1
   5              		.eabi_attribute 23, 3
   6              		.eabi_attribute 24, 1
   7              		.eabi_attribute 25, 1
   8              		.eabi_attribute 26, 1
   9              		.eabi_attribute 30, 1
  10              		.eabi_attribute 34, 0
  11              		.eabi_attribute 18, 4
  12              		.code	16
  13              		.file	"BLE_gatt.c"
  14              		.text
  15              	.Ltext0:
  16              		.cfi_sections	.debug_frame
  17              		.section	.text.CyBle_GattsReInitGattDb,"ax",%progbits
  18              		.align	2
  19              		.global	CyBle_GattsReInitGattDb
  20              		.code	16
  21              		.thumb_func
  22              		.type	CyBle_GattsReInitGattDb, %function
  23              	CyBle_GattsReInitGattDb:
  24              	.LFB2:
  25              		.file 1 ".\\Generated_Source\\PSoC4\\BLE_gatt.c"
   1:.\Generated_Source\PSoC4/BLE_gatt.c **** /*******************************************************************************
   2:.\Generated_Source\PSoC4/BLE_gatt.c **** File Name: CYBLE_gatt.c
   3:.\Generated_Source\PSoC4/BLE_gatt.c **** Version 2.10
   4:.\Generated_Source\PSoC4/BLE_gatt.c **** 
   5:.\Generated_Source\PSoC4/BLE_gatt.c **** Description:
   6:.\Generated_Source\PSoC4/BLE_gatt.c ****  This file contains the source code for the GATT API of the BLE Component.
   7:.\Generated_Source\PSoC4/BLE_gatt.c **** 
   8:.\Generated_Source\PSoC4/BLE_gatt.c **** ********************************************************************************
   9:.\Generated_Source\PSoC4/BLE_gatt.c **** Copyright 2014-2015, Cypress Semiconductor Corporation.  All rights reserved.
  10:.\Generated_Source\PSoC4/BLE_gatt.c **** You may use this file only in accordance with the license, terms, conditions,
  11:.\Generated_Source\PSoC4/BLE_gatt.c **** disclaimers, and limitations in the end user license agreement accompanying
  12:.\Generated_Source\PSoC4/BLE_gatt.c **** the software package with which this file was provided.
  13:.\Generated_Source\PSoC4/BLE_gatt.c **** *******************************************************************************/
  14:.\Generated_Source\PSoC4/BLE_gatt.c **** 
  15:.\Generated_Source\PSoC4/BLE_gatt.c **** 
  16:.\Generated_Source\PSoC4/BLE_gatt.c **** #include "BLE_eventHandler.h"
  17:.\Generated_Source\PSoC4/BLE_gatt.c **** 
  18:.\Generated_Source\PSoC4/BLE_gatt.c **** 
  19:.\Generated_Source\PSoC4/BLE_gatt.c **** /***************************************
  20:.\Generated_Source\PSoC4/BLE_gatt.c **** ##Global variables
  21:.\Generated_Source\PSoC4/BLE_gatt.c **** ***************************************/
  22:.\Generated_Source\PSoC4/BLE_gatt.c **** 
  23:.\Generated_Source\PSoC4/BLE_gatt.c **** CYBLE_STATE_T cyBle_state;
  24:.\Generated_Source\PSoC4/BLE_gatt.c **** 
  25:.\Generated_Source\PSoC4/BLE_gatt.c **** 
  26:.\Generated_Source\PSoC4/BLE_gatt.c **** #if(CYBLE_GATT_ROLE_SERVER)
  27:.\Generated_Source\PSoC4/BLE_gatt.c ****     
  28:.\Generated_Source\PSoC4/BLE_gatt.c ****     const CYBLE_GATTS_T cyBle_gatts =
  29:.\Generated_Source\PSoC4/BLE_gatt.c **** {
  30:.\Generated_Source\PSoC4/BLE_gatt.c ****     0x0008u,    /* Handle of the GATT service */
  31:.\Generated_Source\PSoC4/BLE_gatt.c ****     0x000Au,    /* Handle of the Service Changed characteristic */
  32:.\Generated_Source\PSoC4/BLE_gatt.c ****     0x000Bu,    /* Handle of the Client Characteristic Configuration descriptor */
ARM GAS  C:\Users\ALEXAN~1\AppData\Local\Temp\cczGq0ae.s 			page 2


  33:.\Generated_Source\PSoC4/BLE_gatt.c **** };
  34:.\Generated_Source\PSoC4/BLE_gatt.c ****     
  35:.\Generated_Source\PSoC4/BLE_gatt.c ****     static uint8 cyBle_attValues[0x36u] = {
  36:.\Generated_Source\PSoC4/BLE_gatt.c ****     /* Device Name */
  37:.\Generated_Source\PSoC4/BLE_gatt.c ****     (uint8)'C', (uint8)'a', (uint8)'p', (uint8)'S', (uint8)'e', (uint8)'n', (uint8)'s', (uint8)'e',
  38:.\Generated_Source\PSoC4/BLE_gatt.c **** (uint8)' ', (uint8)'B', (uint8)'L', (uint8)'E', 
  39:.\Generated_Source\PSoC4/BLE_gatt.c **** 
  40:.\Generated_Source\PSoC4/BLE_gatt.c ****     /* Appearance */
  41:.\Generated_Source\PSoC4/BLE_gatt.c ****     0x00u, 0x00u, 
  42:.\Generated_Source\PSoC4/BLE_gatt.c **** 
  43:.\Generated_Source\PSoC4/BLE_gatt.c ****     /* Peripheral Preferred Connection Parameters */
  44:.\Generated_Source\PSoC4/BLE_gatt.c ****     0x3Cu, 0x00u, 0x50u, 0x00u, 0x00u, 0x00u, 0xC8u, 0x00u, 
  45:.\Generated_Source\PSoC4/BLE_gatt.c **** 
  46:.\Generated_Source\PSoC4/BLE_gatt.c ****     /* Service Changed */
  47:.\Generated_Source\PSoC4/BLE_gatt.c ****     0x00u, 0x00u, 0x00u, 0x00u, 
  48:.\Generated_Source\PSoC4/BLE_gatt.c **** 
  49:.\Generated_Source\PSoC4/BLE_gatt.c ****     /* Sensors */
  50:.\Generated_Source\PSoC4/BLE_gatt.c ****     0x00u, 0x00u, 0x00u, 0x00u, 0x00u, 0x00u, 0x00u, 0x00u, 0x00u, 0x00u, 0x00u, 0x00u, 0x00u, 0x00
  51:.\Generated_Source\PSoC4/BLE_gatt.c **** 0x00u, 0x00u, 0x00u, 
  52:.\Generated_Source\PSoC4/BLE_gatt.c **** 
  53:.\Generated_Source\PSoC4/BLE_gatt.c ****     /* Characteristic User Description */
  54:.\Generated_Source\PSoC4/BLE_gatt.c ****     (uint8)'S', (uint8)'l', (uint8)'i', (uint8)'d', (uint8)'e', (uint8)'r', 
  55:.\Generated_Source\PSoC4/BLE_gatt.c **** 
  56:.\Generated_Source\PSoC4/BLE_gatt.c **** };
  57:.\Generated_Source\PSoC4/BLE_gatt.c **** 
  58:.\Generated_Source\PSoC4/BLE_gatt.c **** #if defined(__GNUC__) || defined(__ARMCC_VERSION)
  59:.\Generated_Source\PSoC4/BLE_gatt.c **** const uint8 cyBle_attValuesCCCDFlashMemory[CYBLE_GAP_MAX_BONDED_DEVICE + 1u][CYBLE_GATT_DB_CCCD_COU
  60:.\Generated_Source\PSoC4/BLE_gatt.c **** #elif defined(__ICCARM__)
  61:.\Generated_Source\PSoC4/BLE_gatt.c **** /* The cyBle_attValuesCCCDFlashMemory[] should be aligned to the size of a Flash row */
  62:.\Generated_Source\PSoC4/BLE_gatt.c **** #pragma data_alignment=CY_FLASH_SIZEOF_ROW
  63:.\Generated_Source\PSoC4/BLE_gatt.c **** const uint8 cyBle_attValuesCCCDFlashMemory[CYBLE_GAP_MAX_BONDED_DEVICE + 1u][CYBLE_GATT_DB_CCCD_COU
  64:.\Generated_Source\PSoC4/BLE_gatt.c **** #endif /* defined(__GNUC__) || defined(__ARMCC_VERSION) */
  65:.\Generated_Source\PSoC4/BLE_gatt.c **** {
  66:.\Generated_Source\PSoC4/BLE_gatt.c ****     0x00u, 0x00u, 
  67:.\Generated_Source\PSoC4/BLE_gatt.c ****     0x00u, 0x00u, 
  68:.\Generated_Source\PSoC4/BLE_gatt.c **** },
  69:.\Generated_Source\PSoC4/BLE_gatt.c **** {
  70:.\Generated_Source\PSoC4/BLE_gatt.c ****     0x00u, 0x00u, 
  71:.\Generated_Source\PSoC4/BLE_gatt.c ****     0x00u, 0x00u, 
  72:.\Generated_Source\PSoC4/BLE_gatt.c **** },
  73:.\Generated_Source\PSoC4/BLE_gatt.c **** {
  74:.\Generated_Source\PSoC4/BLE_gatt.c ****     0x00u, 0x00u, 
  75:.\Generated_Source\PSoC4/BLE_gatt.c ****     0x00u, 0x00u, 
  76:.\Generated_Source\PSoC4/BLE_gatt.c **** },
  77:.\Generated_Source\PSoC4/BLE_gatt.c **** {
  78:.\Generated_Source\PSoC4/BLE_gatt.c ****     0x00u, 0x00u, 
  79:.\Generated_Source\PSoC4/BLE_gatt.c ****     0x00u, 0x00u, 
  80:.\Generated_Source\PSoC4/BLE_gatt.c **** },
  81:.\Generated_Source\PSoC4/BLE_gatt.c **** {
  82:.\Generated_Source\PSoC4/BLE_gatt.c ****     0x00u, 0x00u, 
  83:.\Generated_Source\PSoC4/BLE_gatt.c ****     0x00u, 0x00u, 
  84:.\Generated_Source\PSoC4/BLE_gatt.c **** },
  85:.\Generated_Source\PSoC4/BLE_gatt.c **** };
  86:.\Generated_Source\PSoC4/BLE_gatt.c **** uint8 cyBle_attValuesCCCD[CYBLE_GATT_DB_CCCD_COUNT];
  87:.\Generated_Source\PSoC4/BLE_gatt.c **** 
  88:.\Generated_Source\PSoC4/BLE_gatt.c **** const uint8 cyBle_attUuid128[][16u] = {
  89:.\Generated_Source\PSoC4/BLE_gatt.c ****     /* CapSense */
ARM GAS  C:\Users\ALEXAN~1\AppData\Local\Temp\cczGq0ae.s 			page 3


  90:.\Generated_Source\PSoC4/BLE_gatt.c ****     { 0x31u, 0x01u, 0x9Bu, 0x5Fu, 0x80u, 0x00u, 0x00u, 0x80u, 0x00u, 0x10u, 0x00u, 0x00u, 0xB5u, 0x
  91:.\Generated_Source\PSoC4/BLE_gatt.c ****     /* Sensors */
  92:.\Generated_Source\PSoC4/BLE_gatt.c ****     { 0x31u, 0x01u, 0x9Bu, 0x5Fu, 0x80u, 0x00u, 0x00u, 0x80u, 0x00u, 0x10u, 0x00u, 0x00u, 0xB5u, 0x
  93:.\Generated_Source\PSoC4/BLE_gatt.c **** };
  94:.\Generated_Source\PSoC4/BLE_gatt.c **** 
  95:.\Generated_Source\PSoC4/BLE_gatt.c **** CYBLE_GATTS_ATT_GEN_VAL_LEN_T cyBle_attValuesLen[CYBLE_GATT_DB_ATT_VAL_COUNT] = {
  96:.\Generated_Source\PSoC4/BLE_gatt.c ****     { 0x000Eu, (void *)&cyBle_attValues[0] }, /* Device Name */
  97:.\Generated_Source\PSoC4/BLE_gatt.c ****     { 0x0002u, (void *)&cyBle_attValues[14] }, /* Appearance */
  98:.\Generated_Source\PSoC4/BLE_gatt.c ****     { 0x0008u, (void *)&cyBle_attValues[16] }, /* Peripheral Preferred Connection Parameters */
  99:.\Generated_Source\PSoC4/BLE_gatt.c ****     { 0x0004u, (void *)&cyBle_attValues[24] }, /* Service Changed */
 100:.\Generated_Source\PSoC4/BLE_gatt.c ****     { 0x0002u, (void *)&cyBle_attValuesCCCD[0] }, /* Client Characteristic Configuration */
 101:.\Generated_Source\PSoC4/BLE_gatt.c ****     { 0x0010u, (void *)&cyBle_attUuid128[0] }, /* CapSense UUID */
 102:.\Generated_Source\PSoC4/BLE_gatt.c ****     { 0x0010u, (void *)&cyBle_attUuid128[1] }, /* Sensors UUID */
 103:.\Generated_Source\PSoC4/BLE_gatt.c ****     { 0x0014u, (void *)&cyBle_attValues[28] }, /* Sensors */
 104:.\Generated_Source\PSoC4/BLE_gatt.c ****     { 0x0002u, (void *)&cyBle_attValuesCCCD[2] }, /* Client Characteristic Configuration */
 105:.\Generated_Source\PSoC4/BLE_gatt.c ****     { 0x0006u, (void *)&cyBle_attValues[48] }, /* Characteristic User Description */
 106:.\Generated_Source\PSoC4/BLE_gatt.c **** };
 107:.\Generated_Source\PSoC4/BLE_gatt.c **** 
 108:.\Generated_Source\PSoC4/BLE_gatt.c **** const CYBLE_GATTS_DB_T cyBle_gattDB[0x10u] = {
 109:.\Generated_Source\PSoC4/BLE_gatt.c ****     { 0x0001u, 0x2800u /* Primary service                     */, 0x00000001u /*            */, 0x0
 110:.\Generated_Source\PSoC4/BLE_gatt.c ****     { 0x0002u, 0x2803u /* Characteristic                      */, 0x00000201u /* rd         */, 0x0
 111:.\Generated_Source\PSoC4/BLE_gatt.c ****     { 0x0003u, 0x2A00u /* Device Name                         */, 0x00000201u /* rd         */, 0x0
 112:.\Generated_Source\PSoC4/BLE_gatt.c ****     { 0x0004u, 0x2803u /* Characteristic                      */, 0x00000201u /* rd         */, 0x0
 113:.\Generated_Source\PSoC4/BLE_gatt.c ****     { 0x0005u, 0x2A01u /* Appearance                          */, 0x00000201u /* rd         */, 0x0
 114:.\Generated_Source\PSoC4/BLE_gatt.c ****     { 0x0006u, 0x2803u /* Characteristic                      */, 0x00000201u /* rd         */, 0x0
 115:.\Generated_Source\PSoC4/BLE_gatt.c ****     { 0x0007u, 0x2A04u /* Peripheral Preferred Connection Par */, 0x00000201u /* rd         */, 0x0
 116:.\Generated_Source\PSoC4/BLE_gatt.c ****     { 0x0008u, 0x2800u /* Primary service                     */, 0x00000001u /*            */, 0x0
 117:.\Generated_Source\PSoC4/BLE_gatt.c ****     { 0x0009u, 0x2803u /* Characteristic                      */, 0x00002201u /* rd,ind     */, 0x0
 118:.\Generated_Source\PSoC4/BLE_gatt.c ****     { 0x000Au, 0x2A05u /* Service Changed                     */, 0x00002201u /* rd,ind     */, 0x0
 119:.\Generated_Source\PSoC4/BLE_gatt.c ****     { 0x000Bu, 0x2902u /* Client Characteristic Configuration */, 0x00000A04u /* rd,wr      */, 0x0
 120:.\Generated_Source\PSoC4/BLE_gatt.c ****     { 0x000Cu, 0x2800u /* Primary service                     */, 0x00080001u /*            */, 0x0
 121:.\Generated_Source\PSoC4/BLE_gatt.c ****     { 0x000Du, 0x2803u /* Characteristic                      */, 0x00003201u /* rd,ntf,ind */, 0x0
 122:.\Generated_Source\PSoC4/BLE_gatt.c ****     { 0x000Eu, 0xCAB5u /* Sensors                             */, 0x00083201u /* rd,ntf,ind */, 0x0
 123:.\Generated_Source\PSoC4/BLE_gatt.c ****     { 0x000Fu, 0x2902u /* Client Characteristic Configuration */, 0x00000A04u /* rd,wr      */, 0x0
 124:.\Generated_Source\PSoC4/BLE_gatt.c ****     { 0x0010u, 0x2901u /* Characteristic User Description     */, 0x00000201u /* rd         */, 0x0
 125:.\Generated_Source\PSoC4/BLE_gatt.c **** };
 126:.\Generated_Source\PSoC4/BLE_gatt.c **** 
 127:.\Generated_Source\PSoC4/BLE_gatt.c **** 
 128:.\Generated_Source\PSoC4/BLE_gatt.c **** #endif /* (CYBLE_GATT_ROLE_SERVER) */
 129:.\Generated_Source\PSoC4/BLE_gatt.c **** 
 130:.\Generated_Source\PSoC4/BLE_gatt.c **** #if(CYBLE_GATT_ROLE_CLIENT)
 131:.\Generated_Source\PSoC4/BLE_gatt.c ****     
 132:.\Generated_Source\PSoC4/BLE_gatt.c **** CYBLE_CLIENT_STATE_T cyBle_clientState;
 133:.\Generated_Source\PSoC4/BLE_gatt.c **** CYBLE_GATTC_T cyBle_gattc;
 134:.\Generated_Source\PSoC4/BLE_gatt.c ****     
 135:.\Generated_Source\PSoC4/BLE_gatt.c **** #endif /* (CYBLE_GATT_ROLE_CLIENT) */
 136:.\Generated_Source\PSoC4/BLE_gatt.c **** 
 137:.\Generated_Source\PSoC4/BLE_gatt.c **** 
 138:.\Generated_Source\PSoC4/BLE_gatt.c **** #if(CYBLE_GATT_ROLE_SERVER)
 139:.\Generated_Source\PSoC4/BLE_gatt.c **** 
 140:.\Generated_Source\PSoC4/BLE_gatt.c **** /****************************************************************************** 
 141:.\Generated_Source\PSoC4/BLE_gatt.c **** ##Function Name: CyBle_GattsReInitGattDb
 142:.\Generated_Source\PSoC4/BLE_gatt.c **** *******************************************************************************
 143:.\Generated_Source\PSoC4/BLE_gatt.c **** 
 144:.\Generated_Source\PSoC4/BLE_gatt.c **** Summary:
 145:.\Generated_Source\PSoC4/BLE_gatt.c ****  Reinitializes the GATT database.
 146:.\Generated_Source\PSoC4/BLE_gatt.c **** 
ARM GAS  C:\Users\ALEXAN~1\AppData\Local\Temp\cczGq0ae.s 			page 4


 147:.\Generated_Source\PSoC4/BLE_gatt.c **** Parameters:
 148:.\Generated_Source\PSoC4/BLE_gatt.c ****  None
 149:.\Generated_Source\PSoC4/BLE_gatt.c **** 
 150:.\Generated_Source\PSoC4/BLE_gatt.c **** Return:
 151:.\Generated_Source\PSoC4/BLE_gatt.c ****  CYBLE_API_RESULT_T: An API result states if the API succeeded or failed with
 152:.\Generated_Source\PSoC4/BLE_gatt.c ****  error codes:
 153:.\Generated_Source\PSoC4/BLE_gatt.c ****   * CYBLE_ERROR_OK: GATT database was reinitialized successfully
 154:.\Generated_Source\PSoC4/BLE_gatt.c ****   * CYBLE_ERROR_INVALID_STATE: If the function is called in any state except
 155:.\Generated_Source\PSoC4/BLE_gatt.c ****                                 CYBLE_STATE_DISCONNECTED.
 156:.\Generated_Source\PSoC4/BLE_gatt.c ****   * Any of the CyBle_GattsDbRegister() stack API function return values.
 157:.\Generated_Source\PSoC4/BLE_gatt.c **** 
 158:.\Generated_Source\PSoC4/BLE_gatt.c **** ******************************************************************************/
 159:.\Generated_Source\PSoC4/BLE_gatt.c **** CYBLE_API_RESULT_T CyBle_GattsReInitGattDb(void)
 160:.\Generated_Source\PSoC4/BLE_gatt.c **** {
  26              		.loc 1 160 0
  27              		.cfi_startproc
  28 0000 08B5     		push	{r3, lr}
  29              		.cfi_def_cfa_offset 8
  30              		.cfi_offset 3, -8
  31              		.cfi_offset 14, -4
 161:.\Generated_Source\PSoC4/BLE_gatt.c ****     CYBLE_API_RESULT_T apiResult;
 162:.\Generated_Source\PSoC4/BLE_gatt.c ****     
 163:.\Generated_Source\PSoC4/BLE_gatt.c ****     if(CYBLE_STATE_DISCONNECTED == CyBle_GetState())
  32              		.loc 1 163 0
  33 0002 064B     		ldr	r3, .L4
  34 0004 1B78     		ldrb	r3, [r3]
  35 0006 042B     		cmp	r3, #4
  36 0008 05D1     		bne	.L3
 164:.\Generated_Source\PSoC4/BLE_gatt.c ****     {
 165:.\Generated_Source\PSoC4/BLE_gatt.c ****         apiResult = CyBle_GattsDbRegister(cyBle_gattDB, CYBLE_GATT_DB_INDEX_COUNT, CYBLE_GATT_DB_MA
  37              		.loc 1 165 0
  38 000a 0548     		ldr	r0, .L4+4
  39 000c 1021     		mov	r1, #16
  40 000e 1422     		mov	r2, #20
  41 0010 FFF7FEFF 		bl	CyBle_GattsDbRegister
  42              	.LVL0:
  43 0014 01E0     		b	.L2
  44              	.LVL1:
  45              	.L3:
 166:.\Generated_Source\PSoC4/BLE_gatt.c ****     }
 167:.\Generated_Source\PSoC4/BLE_gatt.c ****     else
 168:.\Generated_Source\PSoC4/BLE_gatt.c ****     {
 169:.\Generated_Source\PSoC4/BLE_gatt.c ****         apiResult = CYBLE_ERROR_INVALID_STATE;
  46              		.loc 1 169 0
  47 0016 0420     		mov	r0, #4
  48 0018 FF30     		add	r0, r0, #255
  49              	.L2:
  50              	.LVL2:
 170:.\Generated_Source\PSoC4/BLE_gatt.c ****     }
 171:.\Generated_Source\PSoC4/BLE_gatt.c ****     
 172:.\Generated_Source\PSoC4/BLE_gatt.c ****     return(apiResult);
 173:.\Generated_Source\PSoC4/BLE_gatt.c **** }
  51              		.loc 1 173 0
  52              		@ sp needed
  53 001a 08BD     		pop	{r3, pc}
  54              	.L5:
  55              		.align	2
ARM GAS  C:\Users\ALEXAN~1\AppData\Local\Temp\cczGq0ae.s 			page 5


  56              	.L4:
  57 001c 00000000 		.word	cyBle_state
  58 0020 00000000 		.word	.LANCHOR0
  59              		.cfi_endproc
  60              	.LFE2:
  61              		.size	CyBle_GattsReInitGattDb, .-CyBle_GattsReInitGattDb
  62              		.section	.text.CyBle_GattsWriteEventHandler,"ax",%progbits
  63              		.align	2
  64              		.global	CyBle_GattsWriteEventHandler
  65              		.code	16
  66              		.thumb_func
  67              		.type	CyBle_GattsWriteEventHandler, %function
  68              	CyBle_GattsWriteEventHandler:
  69              	.LFB3:
 174:.\Generated_Source\PSoC4/BLE_gatt.c **** 
 175:.\Generated_Source\PSoC4/BLE_gatt.c **** 
 176:.\Generated_Source\PSoC4/BLE_gatt.c **** /****************************************************************************** 
 177:.\Generated_Source\PSoC4/BLE_gatt.c **** ##Function Name: CyBle_GattsWriteEventHandler
 178:.\Generated_Source\PSoC4/BLE_gatt.c **** *******************************************************************************
 179:.\Generated_Source\PSoC4/BLE_gatt.c **** 
 180:.\Generated_Source\PSoC4/BLE_gatt.c **** Summary:
 181:.\Generated_Source\PSoC4/BLE_gatt.c ****  Handles the Write Request Event for GATT service.
 182:.\Generated_Source\PSoC4/BLE_gatt.c **** 
 183:.\Generated_Source\PSoC4/BLE_gatt.c **** Parameters:
 184:.\Generated_Source\PSoC4/BLE_gatt.c ****  *eventParam: The pointer to the data structure specified by the event.
 185:.\Generated_Source\PSoC4/BLE_gatt.c **** 
 186:.\Generated_Source\PSoC4/BLE_gatt.c **** Return:
 187:.\Generated_Source\PSoC4/BLE_gatt.c ****  * CYBLE_GATT_ERR_CODE_T: An API result returns one of the following status 
 188:.\Generated_Source\PSoC4/BLE_gatt.c ****     values
 189:.\Generated_Source\PSoC4/BLE_gatt.c ****  * CYBLE_GATT_ERR_NONE - Write is successful.
 190:.\Generated_Source\PSoC4/BLE_gatt.c **** 
 191:.\Generated_Source\PSoC4/BLE_gatt.c **** ******************************************************************************/
 192:.\Generated_Source\PSoC4/BLE_gatt.c **** CYBLE_GATT_ERR_CODE_T CyBle_GattsWriteEventHandler(CYBLE_GATTS_WRITE_REQ_PARAM_T *eventParam)
 193:.\Generated_Source\PSoC4/BLE_gatt.c **** {
  70              		.loc 1 193 0
  71              		.cfi_startproc
  72              	.LVL3:
  73 0000 38B5     		push	{r3, r4, r5, lr}
  74              		.cfi_def_cfa_offset 16
  75              		.cfi_offset 3, -16
  76              		.cfi_offset 4, -12
  77              		.cfi_offset 5, -8
  78              		.cfi_offset 14, -4
  79 0002 041C     		mov	r4, r0
  80              	.LVL4:
 194:.\Generated_Source\PSoC4/BLE_gatt.c ****     CYBLE_GATT_ERR_CODE_T gattErr = CYBLE_GATT_ERR_NONE;
 195:.\Generated_Source\PSoC4/BLE_gatt.c ****     
 196:.\Generated_Source\PSoC4/BLE_gatt.c ****     /* Client Characteristic Configuration descriptor write request */
 197:.\Generated_Source\PSoC4/BLE_gatt.c ****     if(eventParam->handleValPair.attrHandle == cyBle_gatts.cccdHandle)
  81              		.loc 1 197 0
  82 0004 8389     		ldrh	r3, [r0, #12]
  83 0006 0B2B     		cmp	r3, #11
  84 0008 1FD1     		bne	.L10
 198:.\Generated_Source\PSoC4/BLE_gatt.c ****     {
 199:.\Generated_Source\PSoC4/BLE_gatt.c ****         /* Store value to database */
 200:.\Generated_Source\PSoC4/BLE_gatt.c ****         gattErr = CyBle_GattsWriteAttributeValue(&eventParam->handleValPair, 0u, 
  85              		.loc 1 200 0
ARM GAS  C:\Users\ALEXAN~1\AppData\Local\Temp\cczGq0ae.s 			page 6


  86 000a 0430     		add	r0, r0, #4
  87              	.LVL5:
  88 000c 0021     		mov	r1, #0
  89 000e 221C     		mov	r2, r4
  90 0010 4023     		mov	r3, #64
  91 0012 FFF7FEFF 		bl	CyBle_GattsWriteAttributeValue
  92              	.LVL6:
  93 0016 051E     		sub	r5, r0, #0
  94              	.LVL7:
 201:.\Generated_Source\PSoC4/BLE_gatt.c ****                         &eventParam->connHandle, CYBLE_GATT_DB_PEER_INITIATED);
 202:.\Generated_Source\PSoC4/BLE_gatt.c ****         
 203:.\Generated_Source\PSoC4/BLE_gatt.c ****         if(CYBLE_GATT_ERR_NONE == gattErr)
  95              		.loc 1 203 0
  96 0018 11D1     		bne	.L8
 204:.\Generated_Source\PSoC4/BLE_gatt.c ****         {
 205:.\Generated_Source\PSoC4/BLE_gatt.c ****             if(CYBLE_IS_INDICATION_ENABLED_IN_PTR(eventParam->handleValPair.value.val))
  97              		.loc 1 205 0
  98 001a 6068     		ldr	r0, [r4, #4]
  99              	.LVL8:
 100 001c FFF7FEFF 		bl	CyBle_Get16ByPtr
 101              	.LVL9:
 102 0020 8307     		lsl	r3, r0, #30
 103 0022 06D5     		bpl	.L9
 206:.\Generated_Source\PSoC4/BLE_gatt.c ****             {
 207:.\Generated_Source\PSoC4/BLE_gatt.c ****                 CyBle_ApplCallback((uint32)CYBLE_EVT_GATTS_INDICATION_ENABLED, eventParam);
 104              		.loc 1 207 0
 105 0024 0A4B     		ldr	r3, .L11
 106 0026 1B68     		ldr	r3, [r3]
 107 0028 8220     		mov	r0, #130
 108 002a 4000     		lsl	r0, r0, #1
 109 002c 211C     		mov	r1, r4
 110 002e 9847     		blx	r3
 111              	.LVL10:
 112 0030 05E0     		b	.L8
 113              	.L9:
 208:.\Generated_Source\PSoC4/BLE_gatt.c ****             }
 209:.\Generated_Source\PSoC4/BLE_gatt.c ****             else
 210:.\Generated_Source\PSoC4/BLE_gatt.c ****             {
 211:.\Generated_Source\PSoC4/BLE_gatt.c ****                 CyBle_ApplCallback((uint32)CYBLE_EVT_GATTS_INDICATION_DISABLED, eventParam);
 114              		.loc 1 211 0
 115 0032 074B     		ldr	r3, .L11
 116 0034 1B68     		ldr	r3, [r3]
 117 0036 0620     		mov	r0, #6
 118 0038 FF30     		add	r0, r0, #255
 119 003a 211C     		mov	r1, r4
 120 003c 9847     		blx	r3
 121              	.LVL11:
 122              	.L8:
 212:.\Generated_Source\PSoC4/BLE_gatt.c ****             }
 213:.\Generated_Source\PSoC4/BLE_gatt.c ****         }
 214:.\Generated_Source\PSoC4/BLE_gatt.c ****         cyBle_eventHandlerFlag &= (uint8)~CYBLE_CALLBACK;
 123              		.loc 1 214 0
 124 003e 054B     		ldr	r3, .L11+4
 125 0040 1A78     		ldrb	r2, [r3]
 126 0042 0121     		mov	r1, #1
 127 0044 8A43     		bic	r2, r1
 128 0046 1A70     		strb	r2, [r3]
ARM GAS  C:\Users\ALEXAN~1\AppData\Local\Temp\cczGq0ae.s 			page 7


 129 0048 00E0     		b	.L7
 130              	.LVL12:
 131              	.L10:
 194:.\Generated_Source\PSoC4/BLE_gatt.c ****     CYBLE_GATT_ERR_CODE_T gattErr = CYBLE_GATT_ERR_NONE;
 132              		.loc 1 194 0
 133 004a 0025     		mov	r5, #0
 134              	.LVL13:
 135              	.L7:
 215:.\Generated_Source\PSoC4/BLE_gatt.c ****     }
 216:.\Generated_Source\PSoC4/BLE_gatt.c ****     return (gattErr);
 217:.\Generated_Source\PSoC4/BLE_gatt.c **** }
 136              		.loc 1 217 0
 137 004c 281C     		mov	r0, r5
 138              		@ sp needed
 139              	.LVL14:
 140              	.LVL15:
 141 004e 38BD     		pop	{r3, r4, r5, pc}
 142              	.L12:
 143              		.align	2
 144              	.L11:
 145 0050 00000000 		.word	CyBle_ApplCallback
 146 0054 00000000 		.word	cyBle_eventHandlerFlag
 147              		.cfi_endproc
 148              	.LFE3:
 149              		.size	CyBle_GattsWriteEventHandler, .-CyBle_GattsWriteEventHandler
 150              		.global	cyBle_gattDB
 151              		.global	cyBle_attValuesLen
 152              		.global	cyBle_attUuid128
 153              		.comm	cyBle_attValuesCCCD,4,4
 154              		.global	cyBle_attValuesCCCDFlashMemory
 155              		.global	cyBle_gatts
 156              		.comm	cyBle_state,1,1
 157              		.section	.rodata
 158              		.align	7
 159              		.set	.LANCHOR0,. + 0
 160              		.type	cyBle_gattDB, %object
 161              		.size	cyBle_gattDB, 320
 162              	cyBle_gattDB:
 163 0000 0100     		.short	1
 164 0002 0028     		.short	10240
 165 0004 01000000 		.word	1
 166 0008 0700     		.short	7
 167 000a 0000     		.space	2
 168 000c 0018     		.short	6144
 169 000e 0000     		.space	2
 170 0010 00000000 		.word	0
 171 0014 0200     		.short	2
 172 0016 0328     		.short	10243
 173 0018 01020000 		.word	513
 174 001c 0300     		.short	3
 175 001e 0000     		.space	2
 176 0020 002A     		.short	10752
 177 0022 0000     		.space	2
 178 0024 00000000 		.word	0
 179 0028 0300     		.short	3
 180 002a 002A     		.short	10752
 181 002c 01020000 		.word	513
ARM GAS  C:\Users\ALEXAN~1\AppData\Local\Temp\cczGq0ae.s 			page 8


 182 0030 0300     		.short	3
 183 0032 0000     		.space	2
 184 0034 0E00     		.short	14
 185 0036 0000     		.space	2
 186 0038 00000000 		.word	cyBle_attValuesLen
 187 003c 0400     		.short	4
 188 003e 0328     		.short	10243
 189 0040 01020000 		.word	513
 190 0044 0500     		.short	5
 191 0046 0000     		.space	2
 192 0048 012A     		.short	10753
 193 004a 0000     		.space	2
 194 004c 00000000 		.word	0
 195 0050 0500     		.short	5
 196 0052 012A     		.short	10753
 197 0054 01020000 		.word	513
 198 0058 0500     		.short	5
 199 005a 0000     		.space	2
 200 005c 0200     		.short	2
 201 005e 0000     		.space	2
 202 0060 08000000 		.word	cyBle_attValuesLen+8
 203 0064 0600     		.short	6
 204 0066 0328     		.short	10243
 205 0068 01020000 		.word	513
 206 006c 0700     		.short	7
 207 006e 0000     		.space	2
 208 0070 042A     		.short	10756
 209 0072 0000     		.space	2
 210 0074 00000000 		.word	0
 211 0078 0700     		.short	7
 212 007a 042A     		.short	10756
 213 007c 01020000 		.word	513
 214 0080 0700     		.short	7
 215 0082 0000     		.space	2
 216 0084 0800     		.short	8
 217 0086 0000     		.space	2
 218 0088 10000000 		.word	cyBle_attValuesLen+16
 219 008c 0800     		.short	8
 220 008e 0028     		.short	10240
 221 0090 01000000 		.word	1
 222 0094 0B00     		.short	11
 223 0096 0000     		.space	2
 224 0098 0118     		.short	6145
 225 009a 0000     		.space	2
 226 009c 00000000 		.word	0
 227 00a0 0900     		.short	9
 228 00a2 0328     		.short	10243
 229 00a4 01220000 		.word	8705
 230 00a8 0B00     		.short	11
 231 00aa 0000     		.space	2
 232 00ac 052A     		.short	10757
 233 00ae 0000     		.space	2
 234 00b0 00000000 		.word	0
 235 00b4 0A00     		.short	10
 236 00b6 052A     		.short	10757
 237 00b8 01220000 		.word	8705
 238 00bc 0B00     		.short	11
ARM GAS  C:\Users\ALEXAN~1\AppData\Local\Temp\cczGq0ae.s 			page 9


 239 00be 0000     		.space	2
 240 00c0 0400     		.short	4
 241 00c2 0000     		.space	2
 242 00c4 18000000 		.word	cyBle_attValuesLen+24
 243 00c8 0B00     		.short	11
 244 00ca 0229     		.short	10498
 245 00cc 040A0000 		.word	2564
 246 00d0 0B00     		.short	11
 247 00d2 0000     		.space	2
 248 00d4 0200     		.short	2
 249 00d6 0000     		.space	2
 250 00d8 20000000 		.word	cyBle_attValuesLen+32
 251 00dc 0C00     		.short	12
 252 00de 0028     		.short	10240
 253 00e0 01000800 		.word	524289
 254 00e4 1000     		.short	16
 255 00e6 0000     		.space	2
 256 00e8 1000     		.short	16
 257 00ea 0000     		.space	2
 258 00ec 28000000 		.word	cyBle_attValuesLen+40
 259 00f0 0D00     		.short	13
 260 00f2 0328     		.short	10243
 261 00f4 01320000 		.word	12801
 262 00f8 1000     		.short	16
 263 00fa 0000     		.space	2
 264 00fc 1000     		.short	16
 265 00fe 0000     		.space	2
 266 0100 30000000 		.word	cyBle_attValuesLen+48
 267 0104 0E00     		.short	14
 268 0106 B5CA     		.short	-13643
 269 0108 01320800 		.word	537089
 270 010c 1000     		.short	16
 271 010e 0000     		.space	2
 272 0110 1400     		.short	20
 273 0112 0000     		.space	2
 274 0114 38000000 		.word	cyBle_attValuesLen+56
 275 0118 0F00     		.short	15
 276 011a 0229     		.short	10498
 277 011c 040A0000 		.word	2564
 278 0120 0F00     		.short	15
 279 0122 0000     		.space	2
 280 0124 0200     		.short	2
 281 0126 0000     		.space	2
 282 0128 40000000 		.word	cyBle_attValuesLen+64
 283 012c 1000     		.short	16
 284 012e 0129     		.short	10497
 285 0130 01020000 		.word	513
 286 0134 1000     		.short	16
 287 0136 0000     		.space	2
 288 0138 0600     		.short	6
 289 013a 0000     		.space	2
 290 013c 48000000 		.word	cyBle_attValuesLen+72
 291              		.type	cyBle_attUuid128, %object
 292              		.size	cyBle_attUuid128, 32
 293              	cyBle_attUuid128:
 294 0140 31       		.byte	49
 295 0141 01       		.byte	1
ARM GAS  C:\Users\ALEXAN~1\AppData\Local\Temp\cczGq0ae.s 			page 10


 296 0142 9B       		.byte	-101
 297 0143 5F       		.byte	95
 298 0144 80       		.byte	-128
 299 0145 00       		.byte	0
 300 0146 00       		.byte	0
 301 0147 80       		.byte	-128
 302 0148 00       		.byte	0
 303 0149 10       		.byte	16
 304 014a 00       		.byte	0
 305 014b 00       		.byte	0
 306 014c B5       		.byte	-75
 307 014d CA       		.byte	-54
 308 014e 03       		.byte	3
 309 014f 00       		.byte	0
 310 0150 31       		.byte	49
 311 0151 01       		.byte	1
 312 0152 9B       		.byte	-101
 313 0153 5F       		.byte	95
 314 0154 80       		.byte	-128
 315 0155 00       		.byte	0
 316 0156 00       		.byte	0
 317 0157 80       		.byte	-128
 318 0158 00       		.byte	0
 319 0159 10       		.byte	16
 320 015a 00       		.byte	0
 321 015b 00       		.byte	0
 322 015c B5       		.byte	-75
 323 015d CA       		.byte	-54
 324 015e 03       		.byte	3
 325 015f 00       		.byte	0
 326 0160 00000000 		.space	32
 326      00000000 
 326      00000000 
 326      00000000 
 326      00000000 
 327              		.type	cyBle_attValuesCCCDFlashMemory, %object
 328              		.size	cyBle_attValuesCCCDFlashMemory, 20
 329              	cyBle_attValuesCCCDFlashMemory:
 330 0180 00000000 		.space	20
 330      00000000 
 330      00000000 
 330      00000000 
 330      00000000 
 331              		.type	cyBle_gatts, %object
 332              		.size	cyBle_gatts, 6
 333              	cyBle_gatts:
 334 0194 0800     		.short	8
 335 0196 0A00     		.short	10
 336 0198 0B00     		.short	11
 337 019a 00000000 		.data
 337      00000000 
 337      00000000 
 337      00000000 
 337      00000000 
 338              		.align	2
 339              		.type	cyBle_attValuesLen, %object
 340              		.size	cyBle_attValuesLen, 80
ARM GAS  C:\Users\ALEXAN~1\AppData\Local\Temp\cczGq0ae.s 			page 11


 341              	cyBle_attValuesLen:
 342 0000 0E00     		.short	14
 343 0002 0000     		.space	2
 344 0004 50000000 		.word	cyBle_attValues
 345 0008 0200     		.short	2
 346 000a 0000     		.space	2
 347 000c 5E000000 		.word	cyBle_attValues+14
 348 0010 0800     		.short	8
 349 0012 0000     		.space	2
 350 0014 60000000 		.word	cyBle_attValues+16
 351 0018 0400     		.short	4
 352 001a 0000     		.space	2
 353 001c 68000000 		.word	cyBle_attValues+24
 354 0020 0200     		.short	2
 355 0022 0000     		.space	2
 356 0024 00000000 		.word	cyBle_attValuesCCCD
 357 0028 1000     		.short	16
 358 002a 0000     		.space	2
 359 002c 00000000 		.word	cyBle_attUuid128
 360 0030 1000     		.short	16
 361 0032 0000     		.space	2
 362 0034 10000000 		.word	cyBle_attUuid128+16
 363 0038 1400     		.short	20
 364 003a 0000     		.space	2
 365 003c 6C000000 		.word	cyBle_attValues+28
 366 0040 0200     		.short	2
 367 0042 0000     		.space	2
 368 0044 02000000 		.word	cyBle_attValuesCCCD+2
 369 0048 0600     		.short	6
 370 004a 0000     		.space	2
 371 004c 80000000 		.word	cyBle_attValues+48
 372              		.type	cyBle_attValues, %object
 373              		.size	cyBle_attValues, 54
 374              	cyBle_attValues:
 375 0050 43       		.byte	67
 376 0051 61       		.byte	97
 377 0052 70       		.byte	112
 378 0053 53       		.byte	83
 379 0054 65       		.byte	101
 380 0055 6E       		.byte	110
 381 0056 73       		.byte	115
 382 0057 65       		.byte	101
 383 0058 20       		.byte	32
 384 0059 32       		.byte	50
 385 005a 20       		.byte	32
 386 005b 42       		.byte	66
 387 005c 4C       		.byte	76
 388 005d 45       		.byte	69
 389 005e 00       		.byte	0
 390 005f 00       		.byte	0
 391 0060 3C       		.byte	60
 392 0061 00       		.byte	0
 393 0062 50       		.byte	80
 394 0063 00       		.byte	0
 395 0064 00       		.byte	0
 396 0065 00       		.byte	0
 397 0066 C8       		.byte	-56
ARM GAS  C:\Users\ALEXAN~1\AppData\Local\Temp\cczGq0ae.s 			page 12


 398 0067 00       		.byte	0
 399 0068 00       		.byte	0
 400 0069 00       		.byte	0
 401 006a 00       		.byte	0
 402 006b 00       		.byte	0
 403 006c 00       		.byte	0
 404 006d 00       		.byte	0
 405 006e 00       		.byte	0
 406 006f 00       		.byte	0
 407 0070 00       		.byte	0
 408 0071 00       		.byte	0
 409 0072 00       		.byte	0
 410 0073 00       		.byte	0
 411 0074 00       		.byte	0
 412 0075 00       		.byte	0
 413 0076 00       		.byte	0
 414 0077 00       		.byte	0
 415 0078 00       		.byte	0
 416 0079 00       		.byte	0
 417 007a 00       		.byte	0
 418 007b 00       		.byte	0
 419 007c 00       		.byte	0
 420 007d 00       		.byte	0
 421 007e 00       		.byte	0
 422 007f 00       		.byte	0
 423 0080 53       		.byte	83
 424 0081 6C       		.byte	108
 425 0082 69       		.byte	105
 426 0083 64       		.byte	100
 427 0084 65       		.byte	101
 428 0085 72       		.byte	114
 429 0086 0000     		.text
 430              	.Letext0:
 431              		.file 2 ".\\Generated_Source\\PSoC4\\cytypes.h"
 432              		.file 3 ".\\Generated_Source\\PSoC4\\BLE_Stack.h"
 433              		.file 4 ".\\Generated_Source\\PSoC4\\BLE_StackGatt.h"
 434              		.file 5 ".\\Generated_Source\\PSoC4\\BLE_StackGattServer.h"
 435              		.file 6 ".\\Generated_Source\\PSoC4\\BLE_StackGattDb.h"
 436              		.file 7 ".\\Generated_Source\\PSoC4\\BLE.h"
 437              		.file 8 ".\\Generated_Source\\PSoC4\\BLE_gatt.h"
 438              		.file 9 ".\\Generated_Source\\PSoC4\\BLE_eventHandler.h"