ARM GAS  C:\Users\ALEXAN~1\AppData\Local\Temp\cckq0yk2.s 			page 1


   1              		.cpu cortex-m0
   2              		.fpu softvfp
   3              		.eabi_attribute 20, 1
   4              		.eabi_attribute 21, 1
   5              		.eabi_attribute 23, 3
   6              		.eabi_attribute 24, 1
   7              		.eabi_attribute 25, 1
   8              		.eabi_attribute 26, 1
   9              		.eabi_attribute 30, 1
  10              		.eabi_attribute 34, 0
  11              		.eabi_attribute 18, 4
  12              		.code	16
  13              		.file	"CapSense.c"
  14              		.text
  15              	.Ltext0:
  16              		.cfi_sections	.debug_frame
  17              		.section	.text.CapSense_CsdHwBlockInit,"ax",%progbits
  18              		.align	2
  19              		.global	CapSense_CsdHwBlockInit
  20              		.code	16
  21              		.thumb_func
  22              		.type	CapSense_CsdHwBlockInit, %function
  23              	CapSense_CsdHwBlockInit:
  24              	.LFB36:
  25              		.file 1 ".\\Generated_Source\\PSoC4\\CapSense.c"
   1:.\Generated_Source\PSoC4/CapSense.c **** /*******************************************************************************
   2:.\Generated_Source\PSoC4/CapSense.c **** * File Name: CapSense.c
   3:.\Generated_Source\PSoC4/CapSense.c **** * Version 2.20
   4:.\Generated_Source\PSoC4/CapSense.c **** *
   5:.\Generated_Source\PSoC4/CapSense.c **** * Description:
   6:.\Generated_Source\PSoC4/CapSense.c **** *  This file provides the source code for scanning APIs for the CapSense CSD 
   7:.\Generated_Source\PSoC4/CapSense.c **** *  component.
   8:.\Generated_Source\PSoC4/CapSense.c **** *
   9:.\Generated_Source\PSoC4/CapSense.c **** * Note:
  10:.\Generated_Source\PSoC4/CapSense.c **** *
  11:.\Generated_Source\PSoC4/CapSense.c **** ********************************************************************************
  12:.\Generated_Source\PSoC4/CapSense.c **** * Copyright 2014, Cypress Semiconductor Corporation.  All rights reserved.
  13:.\Generated_Source\PSoC4/CapSense.c **** * You may use this file only in accordance with the license, terms, conditions,
  14:.\Generated_Source\PSoC4/CapSense.c **** * disclaimers, and limitations in the end user license agreement accompanying
  15:.\Generated_Source\PSoC4/CapSense.c **** * the software package with which this file was provided.
  16:.\Generated_Source\PSoC4/CapSense.c **** *******************************************************************************/
  17:.\Generated_Source\PSoC4/CapSense.c **** 
  18:.\Generated_Source\PSoC4/CapSense.c **** #include "CapSense.h"
  19:.\Generated_Source\PSoC4/CapSense.c **** #include "CapSense_PVT.h"
  20:.\Generated_Source\PSoC4/CapSense.c **** #include "cypins.h"
  21:.\Generated_Source\PSoC4/CapSense.c **** 
  22:.\Generated_Source\PSoC4/CapSense.c **** #if(0u != CapSense_CSHL_API_GENERATE)
  23:.\Generated_Source\PSoC4/CapSense.c **** 	#include "CapSense_CSHL.h"
  24:.\Generated_Source\PSoC4/CapSense.c **** #endif /* (0u != CapSense_CSHL_API_GENERATE) */
  25:.\Generated_Source\PSoC4/CapSense.c **** 
  26:.\Generated_Source\PSoC4/CapSense.c **** /* This definition is intended to prevent unexpected linker error. 
  27:.\Generated_Source\PSoC4/CapSense.c ****    For more details please see the IAR Technical Note 49981 */
  28:.\Generated_Source\PSoC4/CapSense.c **** #if defined(__ICCARM__)
  29:.\Generated_Source\PSoC4/CapSense.c **** 	extern void CapSense_EnableSensor(uint32 sensor);
  30:.\Generated_Source\PSoC4/CapSense.c **** 	extern void CapSense_DisableSensor(uint32 sensor);
  31:.\Generated_Source\PSoC4/CapSense.c **** #endif /* (__ICCARM__) */	
  32:.\Generated_Source\PSoC4/CapSense.c **** 
ARM GAS  C:\Users\ALEXAN~1\AppData\Local\Temp\cckq0yk2.s 			page 2


  33:.\Generated_Source\PSoC4/CapSense.c **** /* SmartSense functions */
  34:.\Generated_Source\PSoC4/CapSense.c **** #if (CapSense_TUNING_METHOD == CapSense__TUNING_AUTO)
  35:.\Generated_Source\PSoC4/CapSense.c ****     uint8 CapSense_lowLevelTuningDone = 0u;
  36:.\Generated_Source\PSoC4/CapSense.c **** 	uint8 scanSpeedTbl[((CapSense_TOTAL_SENSOR_COUNT - 1u) / 8u) + 1u];
  37:.\Generated_Source\PSoC4/CapSense.c **** #endif /* (CapSense_TUNING_METHOD == CapSense__TUNING_AUTO) */
  38:.\Generated_Source\PSoC4/CapSense.c **** 
  39:.\Generated_Source\PSoC4/CapSense.c **** #if(CapSense_PRS_OPTIONS != CapSense__PRS_NONE)
  40:.\Generated_Source\PSoC4/CapSense.c **** 	uint8 CapSense_prescalersTuningDone = 0u;
  41:.\Generated_Source\PSoC4/CapSense.c **** #endif /* (CapSense_PRS_OPTIONS == CapSense__PRS_NONE) */
  42:.\Generated_Source\PSoC4/CapSense.c ****             
  43:.\Generated_Source\PSoC4/CapSense.c **** /* Global software variables */
  44:.\Generated_Source\PSoC4/CapSense.c **** volatile uint8 CapSense_csdStatusVar = 0u;   /* CapSense CSD status, variable */
  45:.\Generated_Source\PSoC4/CapSense.c **** volatile uint8 CapSense_sensorIndex = 0u;    /* Index of scannig sensor */
  46:.\Generated_Source\PSoC4/CapSense.c **** 
  47:.\Generated_Source\PSoC4/CapSense.c **** /* Global array of Raw Counts */
  48:.\Generated_Source\PSoC4/CapSense.c **** uint16 CapSense_sensorRaw[CapSense_TOTAL_SENSOR_COUNT] = {0u};
  49:.\Generated_Source\PSoC4/CapSense.c **** 
  50:.\Generated_Source\PSoC4/CapSense.c **** /* Backup variables for trim registers*/
  51:.\Generated_Source\PSoC4/CapSense.c **** #if (CapSense_IDAC1_POLARITY == CapSense__IDAC_SINK)
  52:.\Generated_Source\PSoC4/CapSense.c **** 	uint8 CapSense_csdTrim2;   
  53:.\Generated_Source\PSoC4/CapSense.c **** #else
  54:.\Generated_Source\PSoC4/CapSense.c ****     uint8 CapSense_csdTrim1;	
  55:.\Generated_Source\PSoC4/CapSense.c **** #endif /* (CapSense_IDAC1_POLARITY == CapSense__IDAC_SINK) */
  56:.\Generated_Source\PSoC4/CapSense.c **** 
  57:.\Generated_Source\PSoC4/CapSense.c **** /* Global array of un-scanned sensors state */
  58:.\Generated_Source\PSoC4/CapSense.c **** uint8 CapSense_unscannedSnsDriveMode[CapSense_TOTAL_SENSOR_COUNT];
  59:.\Generated_Source\PSoC4/CapSense.c **** 
  60:.\Generated_Source\PSoC4/CapSense.c **** /* Backup array for CapSense_sensorEnableMask */
  61:.\Generated_Source\PSoC4/CapSense.c **** uint8 CapSense_sensorEnableMaskBackup[(((CapSense_TOTAL_SENSOR_COUNT - 1u) / 8u) + 1u)];
  62:.\Generated_Source\PSoC4/CapSense.c **** 
  63:.\Generated_Source\PSoC4/CapSense.c **** /* Configured constants and arrays by Customizer */
  64:.\Generated_Source\PSoC4/CapSense.c **** uint8 CapSense_sensorEnableMask[(((CapSense_TOTAL_SENSOR_COUNT - 1u) / 8u) + 1u)] = {
  65:.\Generated_Source\PSoC4/CapSense.c **** 0x1Fu, };
  66:.\Generated_Source\PSoC4/CapSense.c **** 
  67:.\Generated_Source\PSoC4/CapSense.c **** reg32 * CapSense_pcTable[] = {
  68:.\Generated_Source\PSoC4/CapSense.c ****     (reg32 *)CapSense_Sns__LinearSlider0_e0__LS__PC, 
  69:.\Generated_Source\PSoC4/CapSense.c ****     (reg32 *)CapSense_Sns__LinearSlider0_e1__LS__PC, 
  70:.\Generated_Source\PSoC4/CapSense.c ****     (reg32 *)CapSense_Sns__LinearSlider0_e2__LS__PC, 
  71:.\Generated_Source\PSoC4/CapSense.c ****     (reg32 *)CapSense_Sns__LinearSlider0_e3__LS__PC, 
  72:.\Generated_Source\PSoC4/CapSense.c ****     (reg32 *)CapSense_Sns__LinearSlider0_e4__LS__PC, 
  73:.\Generated_Source\PSoC4/CapSense.c **** };
  74:.\Generated_Source\PSoC4/CapSense.c **** 
  75:.\Generated_Source\PSoC4/CapSense.c **** const uint8 CapSense_portTable[] = {
  76:.\Generated_Source\PSoC4/CapSense.c ****     CapSense_Sns__LinearSlider0_e0__LS__PORT, 
  77:.\Generated_Source\PSoC4/CapSense.c ****     CapSense_Sns__LinearSlider0_e1__LS__PORT, 
  78:.\Generated_Source\PSoC4/CapSense.c ****     CapSense_Sns__LinearSlider0_e2__LS__PORT, 
  79:.\Generated_Source\PSoC4/CapSense.c ****     CapSense_Sns__LinearSlider0_e3__LS__PORT, 
  80:.\Generated_Source\PSoC4/CapSense.c ****     CapSense_Sns__LinearSlider0_e4__LS__PORT, 
  81:.\Generated_Source\PSoC4/CapSense.c **** };
  82:.\Generated_Source\PSoC4/CapSense.c **** 
  83:.\Generated_Source\PSoC4/CapSense.c **** const uint32 CapSense_maskTable[] = {
  84:.\Generated_Source\PSoC4/CapSense.c ****     CapSense_Sns__LinearSlider0_e0__LS__MASK, 
  85:.\Generated_Source\PSoC4/CapSense.c ****     CapSense_Sns__LinearSlider0_e1__LS__MASK, 
  86:.\Generated_Source\PSoC4/CapSense.c ****     CapSense_Sns__LinearSlider0_e2__LS__MASK, 
  87:.\Generated_Source\PSoC4/CapSense.c ****     CapSense_Sns__LinearSlider0_e3__LS__MASK, 
  88:.\Generated_Source\PSoC4/CapSense.c ****     CapSense_Sns__LinearSlider0_e4__LS__MASK, 
  89:.\Generated_Source\PSoC4/CapSense.c **** };
ARM GAS  C:\Users\ALEXAN~1\AppData\Local\Temp\cckq0yk2.s 			page 3


  90:.\Generated_Source\PSoC4/CapSense.c **** 
  91:.\Generated_Source\PSoC4/CapSense.c **** const uint8 CapSense_pinShiftTbl[] = {
  92:.\Generated_Source\PSoC4/CapSense.c ****     (uint8) CapSense_Sns__LinearSlider0_e0__LS__SHIFT, 
  93:.\Generated_Source\PSoC4/CapSense.c ****     (uint8) CapSense_Sns__LinearSlider0_e1__LS__SHIFT, 
  94:.\Generated_Source\PSoC4/CapSense.c ****     (uint8) CapSense_Sns__LinearSlider0_e2__LS__SHIFT, 
  95:.\Generated_Source\PSoC4/CapSense.c ****     (uint8) CapSense_Sns__LinearSlider0_e3__LS__SHIFT, 
  96:.\Generated_Source\PSoC4/CapSense.c ****     (uint8) CapSense_Sns__LinearSlider0_e4__LS__SHIFT, 
  97:.\Generated_Source\PSoC4/CapSense.c **** };
  98:.\Generated_Source\PSoC4/CapSense.c **** 
  99:.\Generated_Source\PSoC4/CapSense.c **** const uint8 CapSense_modulationIDAC[CapSense_TOTAL_SENSOR_COUNT] = {
 100:.\Generated_Source\PSoC4/CapSense.c ****     80u, 80u, 80u, 80u, 80u, 
 101:.\Generated_Source\PSoC4/CapSense.c **** };
 102:.\Generated_Source\PSoC4/CapSense.c **** const uint8 CapSense_compensationIDAC[CapSense_TOTAL_SENSOR_COUNT] = {
 103:.\Generated_Source\PSoC4/CapSense.c ****     80u, 80u, 80u, 80u, 80u, 
 104:.\Generated_Source\PSoC4/CapSense.c **** };
 105:.\Generated_Source\PSoC4/CapSense.c **** 
 106:.\Generated_Source\PSoC4/CapSense.c **** const uint32 CapSense_widgetResolution[CapSense_RESOLUTIONS_TBL_SIZE] = {
 107:.\Generated_Source\PSoC4/CapSense.c ****     CapSense_RESOLUTION_16_BITS,
 108:.\Generated_Source\PSoC4/CapSense.c **** };
 109:.\Generated_Source\PSoC4/CapSense.c **** 
 110:.\Generated_Source\PSoC4/CapSense.c **** const uint8 CapSense_senseClkDividerVal[CapSense_TOTAL_SCANSLOT_COUNT] = {
 111:.\Generated_Source\PSoC4/CapSense.c ****     2u, 2u, 2u, 2u, 2u, 
 112:.\Generated_Source\PSoC4/CapSense.c **** };
 113:.\Generated_Source\PSoC4/CapSense.c **** const uint8 CapSense_sampleClkDividerVal[CapSense_TOTAL_SCANSLOT_COUNT] = {
 114:.\Generated_Source\PSoC4/CapSense.c ****     2u, 2u, 2u, 2u, 2u, 
 115:.\Generated_Source\PSoC4/CapSense.c **** };
 116:.\Generated_Source\PSoC4/CapSense.c **** 
 117:.\Generated_Source\PSoC4/CapSense.c **** 
 118:.\Generated_Source\PSoC4/CapSense.c **** const uint8 CapSense_widgetNumber[CapSense_TOTAL_SENSOR_COUNT] = {
 119:.\Generated_Source\PSoC4/CapSense.c ****     0u, 0u, 0u, 0u, 0u, /* LinearSlider0__LS */
 120:.\Generated_Source\PSoC4/CapSense.c **** };
 121:.\Generated_Source\PSoC4/CapSense.c **** 
 122:.\Generated_Source\PSoC4/CapSense.c **** 
 123:.\Generated_Source\PSoC4/CapSense.c **** 
 124:.\Generated_Source\PSoC4/CapSense.c **** reg32* const CapSense_prtSelTbl[] = {
 125:.\Generated_Source\PSoC4/CapSense.c **** /* CY_PSOC4_4000 is default*/
 126:.\Generated_Source\PSoC4/CapSense.c **** 	((reg32 *) CYREG_HSIOM_PORT_SEL0),
 127:.\Generated_Source\PSoC4/CapSense.c **** 	((reg32 *) CYREG_HSIOM_PORT_SEL1),
 128:.\Generated_Source\PSoC4/CapSense.c **** 	((reg32 *) CYREG_HSIOM_PORT_SEL2),
 129:.\Generated_Source\PSoC4/CapSense.c **** 	((reg32 *) CYREG_HSIOM_PORT_SEL3),
 130:.\Generated_Source\PSoC4/CapSense.c **** #if (CapSense_CFG_REG_TBL_SIZE == 5u)
 131:.\Generated_Source\PSoC4/CapSense.c **** 	((reg32 *) CYREG_HSIOM_PORT_SEL4)
 132:.\Generated_Source\PSoC4/CapSense.c **** #elif(CapSense_CFG_REG_TBL_SIZE == 6u)
 133:.\Generated_Source\PSoC4/CapSense.c **** 	((reg32 *) CYREG_HSIOM_PORT_SEL4),
 134:.\Generated_Source\PSoC4/CapSense.c **** 	((reg32 *) CYREG_HSIOM_PORT_SEL5)
 135:.\Generated_Source\PSoC4/CapSense.c **** #elif(CapSense_CFG_REG_TBL_SIZE == 8u)
 136:.\Generated_Source\PSoC4/CapSense.c **** 	((reg32 *) CYREG_HSIOM_PORT_SEL4),
 137:.\Generated_Source\PSoC4/CapSense.c **** 	((reg32 *) CYREG_HSIOM_PORT_SEL5),
 138:.\Generated_Source\PSoC4/CapSense.c **** 	((reg32 *) CYREG_HSIOM_PORT_SEL6),
 139:.\Generated_Source\PSoC4/CapSense.c **** 	((reg32 *) CYREG_HSIOM_PORT_SEL7)
 140:.\Generated_Source\PSoC4/CapSense.c **** #endif /* (CY_PSOC4_4200) */
 141:.\Generated_Source\PSoC4/CapSense.c **** };
 142:.\Generated_Source\PSoC4/CapSense.c **** 
 143:.\Generated_Source\PSoC4/CapSense.c **** reg32* const CapSense_prtCfgTbl[] = {
 144:.\Generated_Source\PSoC4/CapSense.c **** /* CY_PSOC4_4000 is default*/
 145:.\Generated_Source\PSoC4/CapSense.c **** 	((reg32 *) CYREG_GPIO_PRT0_PC),
 146:.\Generated_Source\PSoC4/CapSense.c **** 	((reg32 *) CYREG_GPIO_PRT1_PC),
ARM GAS  C:\Users\ALEXAN~1\AppData\Local\Temp\cckq0yk2.s 			page 4


 147:.\Generated_Source\PSoC4/CapSense.c **** 	((reg32 *) CYREG_GPIO_PRT2_PC),
 148:.\Generated_Source\PSoC4/CapSense.c **** 	((reg32 *) CYREG_GPIO_PRT3_PC),
 149:.\Generated_Source\PSoC4/CapSense.c **** #if (CapSense_CFG_REG_TBL_SIZE == 5u)
 150:.\Generated_Source\PSoC4/CapSense.c **** 	((reg32 *) CYREG_GPIO_PRT4_PC)
 151:.\Generated_Source\PSoC4/CapSense.c **** #elif(CapSense_CFG_REG_TBL_SIZE == 6u)
 152:.\Generated_Source\PSoC4/CapSense.c **** 	((reg32 *) CYREG_GPIO_PRT4_PC),
 153:.\Generated_Source\PSoC4/CapSense.c **** 	((reg32 *) CYREG_GPIO_PRT5_PC)
 154:.\Generated_Source\PSoC4/CapSense.c **** #elif(CapSense_CFG_REG_TBL_SIZE == 8u)
 155:.\Generated_Source\PSoC4/CapSense.c **** 	((reg32 *) CYREG_GPIO_PRT4_PC),
 156:.\Generated_Source\PSoC4/CapSense.c **** 	((reg32 *) CYREG_GPIO_PRT5_PC),
 157:.\Generated_Source\PSoC4/CapSense.c **** 	((reg32 *) CYREG_GPIO_PRT6_PC),
 158:.\Generated_Source\PSoC4/CapSense.c **** 	((reg32 *) CYREG_GPIO_PRT7_PC)
 159:.\Generated_Source\PSoC4/CapSense.c **** #endif /* (CY_PSOC4_4200) */	
 160:.\Generated_Source\PSoC4/CapSense.c **** };
 161:.\Generated_Source\PSoC4/CapSense.c **** 
 162:.\Generated_Source\PSoC4/CapSense.c **** reg32* const CapSense_prtDRTbl[] = {
 163:.\Generated_Source\PSoC4/CapSense.c **** /* CY_PSOC4_4000 is default*/
 164:.\Generated_Source\PSoC4/CapSense.c **** 	((reg32 *) CYREG_GPIO_PRT0_DR),
 165:.\Generated_Source\PSoC4/CapSense.c **** 	((reg32 *) CYREG_GPIO_PRT1_DR),
 166:.\Generated_Source\PSoC4/CapSense.c **** 	((reg32 *) CYREG_GPIO_PRT2_DR),
 167:.\Generated_Source\PSoC4/CapSense.c **** 	((reg32 *) CYREG_GPIO_PRT3_DR),
 168:.\Generated_Source\PSoC4/CapSense.c **** #if (CapSense_CFG_REG_TBL_SIZE == 5u)
 169:.\Generated_Source\PSoC4/CapSense.c **** 	((reg32 *) CYREG_GPIO_PRT4_DR)
 170:.\Generated_Source\PSoC4/CapSense.c **** #elif(CapSense_CFG_REG_TBL_SIZE == 6u)
 171:.\Generated_Source\PSoC4/CapSense.c **** 	((reg32 *) CYREG_GPIO_PRT4_DR),
 172:.\Generated_Source\PSoC4/CapSense.c **** 	((reg32 *) CYREG_GPIO_PRT5_DR),
 173:.\Generated_Source\PSoC4/CapSense.c **** #elif(CapSense_CFG_REG_TBL_SIZE == 8u)
 174:.\Generated_Source\PSoC4/CapSense.c **** 	((reg32 *) CYREG_GPIO_PRT4_DR),
 175:.\Generated_Source\PSoC4/CapSense.c **** 	((reg32 *) CYREG_GPIO_PRT5_DR),
 176:.\Generated_Source\PSoC4/CapSense.c **** 	((reg32 *) CYREG_GPIO_PRT6_DR),
 177:.\Generated_Source\PSoC4/CapSense.c **** 	((reg32 *) CYREG_GPIO_PRT7_DR),
 178:.\Generated_Source\PSoC4/CapSense.c **** #endif /* (CY_PSOC4_4200) */	
 179:.\Generated_Source\PSoC4/CapSense.c **** };
 180:.\Generated_Source\PSoC4/CapSense.c ****     
 181:.\Generated_Source\PSoC4/CapSense.c **** 
 182:.\Generated_Source\PSoC4/CapSense.c **** /*******************************************************************************
 183:.\Generated_Source\PSoC4/CapSense.c **** * Function Name: CapSense_Init
 184:.\Generated_Source\PSoC4/CapSense.c **** ********************************************************************************
 185:.\Generated_Source\PSoC4/CapSense.c **** *
 186:.\Generated_Source\PSoC4/CapSense.c **** * Summary:
 187:.\Generated_Source\PSoC4/CapSense.c **** *  API initializes default CapSense configuration provided by the customizer that defines 
 188:.\Generated_Source\PSoC4/CapSense.c **** *  the mode of component operations and resets all the sensors to an inactive state.
 189:.\Generated_Source\PSoC4/CapSense.c **** *
 190:.\Generated_Source\PSoC4/CapSense.c **** * Parameters:
 191:.\Generated_Source\PSoC4/CapSense.c **** *  None
 192:.\Generated_Source\PSoC4/CapSense.c **** *
 193:.\Generated_Source\PSoC4/CapSense.c **** * Return:
 194:.\Generated_Source\PSoC4/CapSense.c **** *  None
 195:.\Generated_Source\PSoC4/CapSense.c **** *
 196:.\Generated_Source\PSoC4/CapSense.c **** * Global Variables:
 197:.\Generated_Source\PSoC4/CapSense.c **** *  CapSense_immunityIndex - defines immunity level.
 198:.\Generated_Source\PSoC4/CapSense.c **** *
 199:.\Generated_Source\PSoC4/CapSense.c **** * Side Effects:
 200:.\Generated_Source\PSoC4/CapSense.c **** *  None
 201:.\Generated_Source\PSoC4/CapSense.c **** * 
 202:.\Generated_Source\PSoC4/CapSense.c **** *******************************************************************************/
 203:.\Generated_Source\PSoC4/CapSense.c **** void CapSense_Init(void)
ARM GAS  C:\Users\ALEXAN~1\AppData\Local\Temp\cckq0yk2.s 			page 5


 204:.\Generated_Source\PSoC4/CapSense.c **** {   
 205:.\Generated_Source\PSoC4/CapSense.c **** 	uint32 curSensor;
 206:.\Generated_Source\PSoC4/CapSense.c **** 	
 207:.\Generated_Source\PSoC4/CapSense.c **** 	#if(CapSense_IS_SHIELD_ENABLE)
 208:.\Generated_Source\PSoC4/CapSense.c **** 		
 209:.\Generated_Source\PSoC4/CapSense.c **** 		#if((CapSense_CSH_TANK_PREGARGE_OPTION == CapSense__CAPPRIOBUF) || (0u != CapSense_CSH_TANK_ENABL
 210:.\Generated_Source\PSoC4/CapSense.c **** 			uint32 newRegValue;
 211:.\Generated_Source\PSoC4/CapSense.c **** 			
 212:.\Generated_Source\PSoC4/CapSense.c **** 			newRegValue = CapSense_CTANK_CONNECTION_REG;
 213:.\Generated_Source\PSoC4/CapSense.c **** 	        newRegValue &= ~(CapSense_CSD_CTANK_CONNECTION_MASK);
 214:.\Generated_Source\PSoC4/CapSense.c **** 			newRegValue |= CapSense_CSD_CTANK_TO_AMUXBUS_B;
 215:.\Generated_Source\PSoC4/CapSense.c **** 	        CapSense_CTANK_CONNECTION_REG = newRegValue;
 216:.\Generated_Source\PSoC4/CapSense.c **** 			
 217:.\Generated_Source\PSoC4/CapSense.c **** 			#if(CapSense_CSH_TANK_PREGARGE_OPTION == CapSense__CAPPRIOBUF)
 218:.\Generated_Source\PSoC4/CapSense.c **** 				newRegValue = CapSense_CTANK_PORT_PC_REG;
 219:.\Generated_Source\PSoC4/CapSense.c **** 		        newRegValue &= ~(CapSense_CSD_CTANK_PC_MASK);
 220:.\Generated_Source\PSoC4/CapSense.c **** 				newRegValue |= CapSense_CTANK_PC_STRONG_MODE;
 221:.\Generated_Source\PSoC4/CapSense.c **** 		        CapSense_CTANK_PORT_PC_REG = newRegValue;
 222:.\Generated_Source\PSoC4/CapSense.c **** 				
 223:.\Generated_Source\PSoC4/CapSense.c **** 				newRegValue = CapSense_CTANK_PORT_DR_REG;
 224:.\Generated_Source\PSoC4/CapSense.c **** 		        newRegValue &= ~(CapSense_CTANK_DR_MASK);
 225:.\Generated_Source\PSoC4/CapSense.c **** 				newRegValue |= CapSense_CTANK_DR_CONFIG;
 226:.\Generated_Source\PSoC4/CapSense.c **** 		        CapSense_CTANK_PORT_DR_REG = newRegValue;
 227:.\Generated_Source\PSoC4/CapSense.c **** 			#endif /* (CapSense_CSH_TANK_PREGARGE_OPTION == CapSense__CAPPRIOBUF) */
 228:.\Generated_Source\PSoC4/CapSense.c **** 	        
 229:.\Generated_Source\PSoC4/CapSense.c **** 		#endif /* ((CapSense_CSH_TANK_PREGARGE_OPTION == CapSense__CAPPRIOBUF) || (CapSense_CSH_TANK_ENAB
 230:.\Generated_Source\PSoC4/CapSense.c **** 		
 231:.\Generated_Source\PSoC4/CapSense.c **** 		CapSense_EnableShieldElectrode((uint32)CapSense_SHIELD_PIN_NUMBER, (uint32)CapSense_SHIELD_PORT_N
 232:.\Generated_Source\PSoC4/CapSense.c **** 		
 233:.\Generated_Source\PSoC4/CapSense.c **** 	#endif /* (CapSense_IS_SHIELD_ENABLE) */
 234:.\Generated_Source\PSoC4/CapSense.c **** 	
 235:.\Generated_Source\PSoC4/CapSense.c **** 	for(curSensor = 0u; curSensor < CapSense_TOTAL_SENSOR_COUNT; curSensor++)
 236:.\Generated_Source\PSoC4/CapSense.c **** 	{
 237:.\Generated_Source\PSoC4/CapSense.c **** 		CapSense_unscannedSnsDriveMode[curSensor] = CapSense_CONNECT_INACTIVE_SNS;
 238:.\Generated_Source\PSoC4/CapSense.c **** 	}
 239:.\Generated_Source\PSoC4/CapSense.c ****     
 240:.\Generated_Source\PSoC4/CapSense.c **** 	CapSense_CsdHwBlockInit();
 241:.\Generated_Source\PSoC4/CapSense.c ****     CapSense_SetShieldDelay(CapSense_SHIELD_DELAY );
 242:.\Generated_Source\PSoC4/CapSense.c **** 	
 243:.\Generated_Source\PSoC4/CapSense.c **** 	/* Clear all sensors */
 244:.\Generated_Source\PSoC4/CapSense.c ****     CapSense_ClearSensors();
 245:.\Generated_Source\PSoC4/CapSense.c **** }
 246:.\Generated_Source\PSoC4/CapSense.c **** 
 247:.\Generated_Source\PSoC4/CapSense.c **** /*******************************************************************************
 248:.\Generated_Source\PSoC4/CapSense.c **** * Function Name: CapSense_CsdHwBlockInit
 249:.\Generated_Source\PSoC4/CapSense.c **** ********************************************************************************
 250:.\Generated_Source\PSoC4/CapSense.c **** *
 251:.\Generated_Source\PSoC4/CapSense.c **** * Summary:
 252:.\Generated_Source\PSoC4/CapSense.c **** *  Initialises the hardware parameters of the CSD block 
 253:.\Generated_Source\PSoC4/CapSense.c **** *
 254:.\Generated_Source\PSoC4/CapSense.c **** * Parameters:
 255:.\Generated_Source\PSoC4/CapSense.c **** *  None
 256:.\Generated_Source\PSoC4/CapSense.c **** *
 257:.\Generated_Source\PSoC4/CapSense.c **** * Return:
 258:.\Generated_Source\PSoC4/CapSense.c **** *  None
 259:.\Generated_Source\PSoC4/CapSense.c **** *
 260:.\Generated_Source\PSoC4/CapSense.c **** * Global Variables:
ARM GAS  C:\Users\ALEXAN~1\AppData\Local\Temp\cckq0yk2.s 			page 6


 261:.\Generated_Source\PSoC4/CapSense.c **** *  CapSense_csdTrim1 - Contains IDAC trim register value for Sourcing Mode.
 262:.\Generated_Source\PSoC4/CapSense.c **** *  CapSense_csdTrim2 - Contains IDAC trim register value for Sinking Mode.
 263:.\Generated_Source\PSoC4/CapSense.c **** *
 264:.\Generated_Source\PSoC4/CapSense.c **** * Side Effects:
 265:.\Generated_Source\PSoC4/CapSense.c **** *  None
 266:.\Generated_Source\PSoC4/CapSense.c **** * 
 267:.\Generated_Source\PSoC4/CapSense.c **** *******************************************************************************/
 268:.\Generated_Source\PSoC4/CapSense.c **** void CapSense_CsdHwBlockInit(void)
 269:.\Generated_Source\PSoC4/CapSense.c **** {
  26              		.loc 1 269 0
  27              		.cfi_startproc
  28 0000 38B5     		push	{r3, r4, r5, lr}
  29              		.cfi_def_cfa_offset 16
  30              		.cfi_offset 3, -16
  31              		.cfi_offset 4, -12
  32              		.cfi_offset 5, -8
  33              		.cfi_offset 14, -4
 270:.\Generated_Source\PSoC4/CapSense.c **** 	uint32 newRegValue;
 271:.\Generated_Source\PSoC4/CapSense.c **** 	
 272:.\Generated_Source\PSoC4/CapSense.c **** 	    /* Set trim registers for CSD Mode */
 273:.\Generated_Source\PSoC4/CapSense.c ****     #if (CapSense_IDAC1_POLARITY == CapSense__IDAC_SINK)
 274:.\Generated_Source\PSoC4/CapSense.c **** 		/* iDAC1 Sinking Mode */ 
 275:.\Generated_Source\PSoC4/CapSense.c **** 		CapSense_csdTrim2 = (uint8)CapSense_CSD_TRIM2_REG;
 276:.\Generated_Source\PSoC4/CapSense.c **** 		newRegValue = CapSense_csdTrim2;
 277:.\Generated_Source\PSoC4/CapSense.c **** 		newRegValue &= CapSense_CSD_IDAC1_TRIM_MASK;
 278:.\Generated_Source\PSoC4/CapSense.c **** 		newRegValue |= (uint32)((uint32)CapSense_SFLASH_CSD_TRIM2_REG & (uint32)CapSense_CSFLASH_TRIM_IDA
 279:.\Generated_Source\PSoC4/CapSense.c **** 		
 280:.\Generated_Source\PSoC4/CapSense.c **** 		#if (CapSense_IDAC_CNT == 2u)
 281:.\Generated_Source\PSoC4/CapSense.c **** 		    /* iDAC2 Sinking Mode */ 
 282:.\Generated_Source\PSoC4/CapSense.c **** 			newRegValue &= CapSense_CSD_IDAC2_TRIM_MASK;
 283:.\Generated_Source\PSoC4/CapSense.c **** 			newRegValue |= (uint32)((uint32)CapSense_SFLASH_CSD_TRIM2_REG & (uint32)CapSense_CSFLASH_TRIM_ID
 284:.\Generated_Source\PSoC4/CapSense.c **** 		#endif /* (CapSense_IDAC_CNT == 2u) */
 285:.\Generated_Source\PSoC4/CapSense.c **** 		CapSense_CSD_TRIM2_REG = newRegValue;
 286:.\Generated_Source\PSoC4/CapSense.c ****     #else   
 287:.\Generated_Source\PSoC4/CapSense.c **** 		/* iDAC1 Sourcing Mode */ 
 288:.\Generated_Source\PSoC4/CapSense.c **** 		CapSense_csdTrim1 = (uint8)CapSense_CSD_TRIM1_REG;
  34              		.loc 1 288 0
  35 0002 164A     		ldr	r2, .L2
  36 0004 1168     		ldr	r1, [r2]
  37 0006 C9B2     		uxtb	r1, r1
  38 0008 154B     		ldr	r3, .L2+4
  39 000a 1970     		strb	r1, [r3]
  40              	.LVL0:
 289:.\Generated_Source\PSoC4/CapSense.c **** 		newRegValue = CapSense_csdTrim1;
 290:.\Generated_Source\PSoC4/CapSense.c **** 		newRegValue &= CapSense_CSD_IDAC1_TRIM_MASK;
  41              		.loc 1 290 0
  42 000c 0F23     		mov	r3, #15
  43 000e 0C1C     		mov	r4, r1
  44 0010 9C43     		bic	r4, r3
  45              	.LVL1:
 291:.\Generated_Source\PSoC4/CapSense.c **** 		newRegValue |= (uint32)((uint32)CapSense_SFLASH_CSD_TRIM1_REG & (uint32)CapSense_CSFLASH_TRIM_IDA
  46              		.loc 1 291 0
  47 0012 1449     		ldr	r1, .L2+8
  48 0014 0D78     		ldrb	r5, [r1]
  49 0016 0F20     		mov	r0, #15
  50 0018 2840     		and	r0, r5
  51 001a 2043     		orr	r0, r4
ARM GAS  C:\Users\ALEXAN~1\AppData\Local\Temp\cckq0yk2.s 			page 7


  52              	.LVL2:
 292:.\Generated_Source\PSoC4/CapSense.c **** 		#if (CapSense_IDAC_CNT == 2u)
 293:.\Generated_Source\PSoC4/CapSense.c **** 		     /* iDAC2 Sourcing Mode */ 
 294:.\Generated_Source\PSoC4/CapSense.c **** 			newRegValue &= CapSense_CSD_IDAC2_TRIM_MASK;
  53              		.loc 1 294 0
  54 001c F024     		mov	r4, #240
  55 001e A043     		bic	r0, r4
  56              	.LVL3:
 295:.\Generated_Source\PSoC4/CapSense.c **** 			newRegValue |= (uint32)((uint32)CapSense_SFLASH_CSD_TRIM1_REG & (uint32)CapSense_CSFLASH_TRIM_ID
  57              		.loc 1 295 0
  58 0020 0978     		ldrb	r1, [r1]
  59 0022 9943     		bic	r1, r3
  60 0024 0143     		orr	r1, r0
  61              	.LVL4:
 296:.\Generated_Source\PSoC4/CapSense.c **** 		#endif		
 297:.\Generated_Source\PSoC4/CapSense.c **** 		CapSense_CSD_TRIM1_REG = newRegValue;
  62              		.loc 1 297 0
  63 0026 1160     		str	r1, [r2]
 298:.\Generated_Source\PSoC4/CapSense.c ****     #endif /* (CapSense_IDAC1_POLARITY == CapSense__IDAC_SINK) */
 299:.\Generated_Source\PSoC4/CapSense.c **** 	
 300:.\Generated_Source\PSoC4/CapSense.c **** 	/* Configure CSD and IDAC */
 301:.\Generated_Source\PSoC4/CapSense.c **** 	#if (CapSense_IDAC_CNT > 1u)
 302:.\Generated_Source\PSoC4/CapSense.c **** 		CapSense_CSD_IDAC_REG = CapSense_DEFAULT_CSD_IDAC_CONFIG;
  64              		.loc 1 302 0
  65 0028 0F49     		ldr	r1, .L2+12
  66              	.LVL5:
  67 002a 104A     		ldr	r2, .L2+16
  68              	.LVL6:
  69 002c 1160     		str	r1, [r2]
  70              	.LVL7:
 303:.\Generated_Source\PSoC4/CapSense.c **** 		CapSense_CSD_CFG_REG = CapSense_DEFAULT_CSD_CONFIG;
  71              		.loc 1 303 0
  72 002e 1049     		ldr	r1, .L2+20
  73 0030 104A     		ldr	r2, .L2+24
  74 0032 1160     		str	r1, [r2]
 304:.\Generated_Source\PSoC4/CapSense.c **** 	#else
 305:.\Generated_Source\PSoC4/CapSense.c **** 		CapSense_CSD_IDAC_REG &= ~(CapSense_CSD_IDAC1_MODE_MASK  | CapSense_CSD_IDAC1_DATA_MASK);
 306:.\Generated_Source\PSoC4/CapSense.c **** 		CapSense_CSD_IDAC_REG |= CapSense_DEFAULT_CSD_IDAC_CONFIG;
 307:.\Generated_Source\PSoC4/CapSense.c **** 		
 308:.\Generated_Source\PSoC4/CapSense.c **** 		CapSense_CSD_CFG_REG &= ~(CapSense_CSD_CONFIG_MASK);
 309:.\Generated_Source\PSoC4/CapSense.c **** 		CapSense_CSD_CFG_REG |= (CapSense_DEFAULT_CSD_CONFIG);
 310:.\Generated_Source\PSoC4/CapSense.c **** 	#endif /* (CapSense_IDAC_CNT > 1u) */
 311:.\Generated_Source\PSoC4/CapSense.c **** 	
 312:.\Generated_Source\PSoC4/CapSense.c **** 	
 313:.\Generated_Source\PSoC4/CapSense.c **** 	/* Connect Cmod to AMUX bus */ 
 314:.\Generated_Source\PSoC4/CapSense.c **** 	newRegValue = CapSense_CMOD_CONNECTION_REG; 
  75              		.loc 1 314 0
  76 0034 104A     		ldr	r2, .L2+28
  77 0036 1168     		ldr	r1, [r2]
  78              	.LVL8:
 315:.\Generated_Source\PSoC4/CapSense.c ****     newRegValue &= ~(CapSense_CSD_CMOD_CONNECTION_MASK);
  79              		.loc 1 315 0
  80 0038 9943     		bic	r1, r3
  81              	.LVL9:
  82 003a 0B1C     		mov	r3, r1
  83              	.LVL10:
 316:.\Generated_Source\PSoC4/CapSense.c ****     newRegValue |= CapSense_CSD_CMOD_TO_AMUXBUS_A;
ARM GAS  C:\Users\ALEXAN~1\AppData\Local\Temp\cckq0yk2.s 			page 8


  84              		.loc 1 316 0
  85 003c 0621     		mov	r1, #6
  86              	.LVL11:
  87 003e 0B43     		orr	r3, r1
  88              	.LVL12:
 317:.\Generated_Source\PSoC4/CapSense.c ****     CapSense_CMOD_CONNECTION_REG = newRegValue;
  89              		.loc 1 317 0
  90 0040 1360     		str	r3, [r2]
 318:.\Generated_Source\PSoC4/CapSense.c **** 	
 319:.\Generated_Source\PSoC4/CapSense.c **** 	/* Configure Dead Band PWM if it is enabled */
 320:.\Generated_Source\PSoC4/CapSense.c **** 	#if(CapSense_CSD_4B_PWM_MODE != CapSense__PWM_OFF)
 321:.\Generated_Source\PSoC4/CapSense.c **** 		CapSense_CSD_4B_PWM_REG = CapSense_DEFAULT_CSD_4B_PWM_CONFIG;
 322:.\Generated_Source\PSoC4/CapSense.c **** 	#endif /* (CapSense_CSD_4B_PWM_MODE != CapSense__PWM_OFF) */
 323:.\Generated_Source\PSoC4/CapSense.c **** 
 324:.\Generated_Source\PSoC4/CapSense.c **** 	/* Setup ISR */
 325:.\Generated_Source\PSoC4/CapSense.c **** 	CyIntDisable(CapSense_ISR_NUMBER);
  91              		.loc 1 325 0
  92 0042 1020     		mov	r0, #16
  93 0044 FFF7FEFF 		bl	CyIntDisable
  94              	.LVL13:
 326:.\Generated_Source\PSoC4/CapSense.c **** 	#if !defined(CY_EXTERNAL_INTERRUPT_CONFIG)		
 327:.\Generated_Source\PSoC4/CapSense.c **** 	    (void)CyIntSetVector(CapSense_ISR_NUMBER, &CapSense_ISR);
  95              		.loc 1 327 0
  96 0048 1020     		mov	r0, #16
  97 004a 0C49     		ldr	r1, .L2+32
  98 004c FFF7FEFF 		bl	CyIntSetVector
  99              	.LVL14:
 328:.\Generated_Source\PSoC4/CapSense.c **** 	    CyIntSetPriority(CapSense_ISR_NUMBER, CapSense_ISR_PRIORITY);
 100              		.loc 1 328 0
 101 0050 1020     		mov	r0, #16
 102 0052 0321     		mov	r1, #3
 103 0054 FFF7FEFF 		bl	CyIntSetPriority
 104              	.LVL15:
 329:.\Generated_Source\PSoC4/CapSense.c **** 	#endif /* (CY_EXTERNAL_INTERRUPT_CONFIG) */
 330:.\Generated_Source\PSoC4/CapSense.c **** }
 105              		.loc 1 330 0
 106              		@ sp needed
 107 0058 38BD     		pop	{r3, r4, r5, pc}
 108              	.L3:
 109 005a C046     		.align	2
 110              	.L2:
 111 005c 00FF2840 		.word	1076428544
 112 0060 00000000 		.word	CapSense_csdTrim1
 113 0064 62F1FF0F 		.word	268431714
 114 0068 00020001 		.word	16777728
 115 006c 08002840 		.word	1076363272
 116 0070 0008A001 		.word	27265024
 117 0074 04002840 		.word	1076363268
 118 0078 00040240 		.word	1073873920
 119 007c 00000000 		.word	CapSense_ISR
 120              		.cfi_endproc
 121              	.LFE36:
 122              		.size	CapSense_CsdHwBlockInit, .-CapSense_CsdHwBlockInit
 123              		.section	.text.CapSense_Enable,"ax",%progbits
 124              		.align	2
 125              		.global	CapSense_Enable
 126              		.code	16
ARM GAS  C:\Users\ALEXAN~1\AppData\Local\Temp\cckq0yk2.s 			page 9


 127              		.thumb_func
 128              		.type	CapSense_Enable, %function
 129              	CapSense_Enable:
 130              	.LFB37:
 331:.\Generated_Source\PSoC4/CapSense.c **** 
 332:.\Generated_Source\PSoC4/CapSense.c **** 
 333:.\Generated_Source\PSoC4/CapSense.c **** /*******************************************************************************
 334:.\Generated_Source\PSoC4/CapSense.c **** * Function Name: CapSense_Enable
 335:.\Generated_Source\PSoC4/CapSense.c **** ********************************************************************************
 336:.\Generated_Source\PSoC4/CapSense.c **** *
 337:.\Generated_Source\PSoC4/CapSense.c **** * Summary:
 338:.\Generated_Source\PSoC4/CapSense.c **** *  Enables the CSD block and related resources to an active mode.
 339:.\Generated_Source\PSoC4/CapSense.c **** *
 340:.\Generated_Source\PSoC4/CapSense.c **** * Parameters:
 341:.\Generated_Source\PSoC4/CapSense.c **** *  None
 342:.\Generated_Source\PSoC4/CapSense.c **** *
 343:.\Generated_Source\PSoC4/CapSense.c **** * Return:
 344:.\Generated_Source\PSoC4/CapSense.c **** *  None
 345:.\Generated_Source\PSoC4/CapSense.c **** *
 346:.\Generated_Source\PSoC4/CapSense.c **** * Global Variables:
 347:.\Generated_Source\PSoC4/CapSense.c **** *  None.
 348:.\Generated_Source\PSoC4/CapSense.c **** *
 349:.\Generated_Source\PSoC4/CapSense.c **** * Side Effects:
 350:.\Generated_Source\PSoC4/CapSense.c **** *  None
 351:.\Generated_Source\PSoC4/CapSense.c **** * 
 352:.\Generated_Source\PSoC4/CapSense.c **** *******************************************************************************/
 353:.\Generated_Source\PSoC4/CapSense.c **** void CapSense_Enable(void)
 354:.\Generated_Source\PSoC4/CapSense.c **** {
 131              		.loc 1 354 0
 132              		.cfi_startproc
 133 0000 08B5     		push	{r3, lr}
 134              		.cfi_def_cfa_offset 8
 135              		.cfi_offset 3, -8
 136              		.cfi_offset 14, -4
 355:.\Generated_Source\PSoC4/CapSense.c ****     uint32 newRegValue;
 356:.\Generated_Source\PSoC4/CapSense.c ****     
 357:.\Generated_Source\PSoC4/CapSense.c ****     /* Enable Clocks */
 358:.\Generated_Source\PSoC4/CapSense.c **** 	CapSense_SenseClk_Stop();
 137              		.loc 1 358 0
 138 0002 FFF7FEFF 		bl	CapSense_SenseClk_Stop
 139              	.LVL16:
 359:.\Generated_Source\PSoC4/CapSense.c **** 	CapSense_SampleClk_Stop();
 140              		.loc 1 359 0
 141 0006 FFF7FEFF 		bl	CapSense_SampleClk_Stop
 142              	.LVL17:
 360:.\Generated_Source\PSoC4/CapSense.c **** 	
 361:.\Generated_Source\PSoC4/CapSense.c **** 	CapSense_SampleClk_SetDividerValue((uint16)CapSense_INITIAL_CLK_DIVIDER);
 143              		.loc 1 361 0
 144 000a 0020     		mov	r0, #0
 145 000c 0021     		mov	r1, #0
 146 000e FFF7FEFF 		bl	CapSense_SampleClk_SetFractionalDividerRegister
 147              	.LVL18:
 362:.\Generated_Source\PSoC4/CapSense.c **** 	CapSense_SenseClk_SetDividerValue((uint16)CapSense_INITIAL_CLK_DIVIDER);
 148              		.loc 1 362 0
 149 0012 0020     		mov	r0, #0
 150 0014 0021     		mov	r1, #0
 151 0016 FFF7FEFF 		bl	CapSense_SenseClk_SetFractionalDividerRegister
ARM GAS  C:\Users\ALEXAN~1\AppData\Local\Temp\cckq0yk2.s 			page 10


 152              	.LVL19:
 363:.\Generated_Source\PSoC4/CapSense.c **** 	
 364:.\Generated_Source\PSoC4/CapSense.c **** 	#if (0u == CapSense_IS_M0S8PERI_BLOCK)
 365:.\Generated_Source\PSoC4/CapSense.c **** 		CapSense_SenseClk_Start();
 366:.\Generated_Source\PSoC4/CapSense.c **** 		CapSense_SampleClk_Start();
 367:.\Generated_Source\PSoC4/CapSense.c **** 	#else
 368:.\Generated_Source\PSoC4/CapSense.c **** 		CapSense_SampleClk_Start();
 153              		.loc 1 368 0
 154 001a FF20     		mov	r0, #255
 155 001c FFF7FEFF 		bl	CapSense_SampleClk_StartEx
 156              	.LVL20:
 369:.\Generated_Source\PSoC4/CapSense.c **** 		CapSense_SenseClk_StartEx(CapSense_SampleClk__DIV_ID);
 157              		.loc 1 369 0
 158 0020 4020     		mov	r0, #64
 159 0022 FFF7FEFF 		bl	CapSense_SenseClk_StartEx
 160              	.LVL21:
 370:.\Generated_Source\PSoC4/CapSense.c **** 	#endif /* (0u == CapSense_IS_M0S8PERI_BLOCK) */
 371:.\Generated_Source\PSoC4/CapSense.c **** 	
 372:.\Generated_Source\PSoC4/CapSense.c **** 	/* Enable the CSD block */
 373:.\Generated_Source\PSoC4/CapSense.c ****     newRegValue = CapSense_CSD_CFG_REG;
 161              		.loc 1 373 0
 162 0026 044B     		ldr	r3, .L5
 163 0028 1A68     		ldr	r2, [r3]
 164              	.LVL22:
 374:.\Generated_Source\PSoC4/CapSense.c ****     newRegValue |= (CapSense_CSD_CFG_ENABLE | CapSense_CSD_CFG_SENSE_COMP_EN 
 165              		.loc 1 374 0
 166 002a 0449     		ldr	r1, .L5+4
 167 002c 0A43     		orr	r2, r1
 168              	.LVL23:
 375:.\Generated_Source\PSoC4/CapSense.c ****                                                    | CapSense_CSD_CFG_SENSE_EN);    
 376:.\Generated_Source\PSoC4/CapSense.c ****     CapSense_CSD_CFG_REG = newRegValue;
 169              		.loc 1 376 0
 170 002e 1A60     		str	r2, [r3]
 377:.\Generated_Source\PSoC4/CapSense.c **** 
 378:.\Generated_Source\PSoC4/CapSense.c ****     /* Enable interrupt */
 379:.\Generated_Source\PSoC4/CapSense.c ****     CyIntEnable(CapSense_ISR_NUMBER);
 171              		.loc 1 379 0
 172 0030 1020     		mov	r0, #16
 173 0032 FFF7FEFF 		bl	CyIntEnable
 174              	.LVL24:
 380:.\Generated_Source\PSoC4/CapSense.c **** }
 175              		.loc 1 380 0
 176              		@ sp needed
 177 0036 08BD     		pop	{r3, pc}
 178              	.L6:
 179              		.align	2
 180              	.L5:
 181 0038 04002840 		.word	1076363268
 182 003c 00100880 		.word	-2146955264
 183              		.cfi_endproc
 184              	.LFE37:
 185              		.size	CapSense_Enable, .-CapSense_Enable
 186              		.section	.text.CapSense_Stop,"ax",%progbits
 187              		.align	2
 188              		.global	CapSense_Stop
 189              		.code	16
 190              		.thumb_func
ARM GAS  C:\Users\ALEXAN~1\AppData\Local\Temp\cckq0yk2.s 			page 11


 191              		.type	CapSense_Stop, %function
 192              	CapSense_Stop:
 193              	.LFB39:
 381:.\Generated_Source\PSoC4/CapSense.c **** 
 382:.\Generated_Source\PSoC4/CapSense.c **** 
 383:.\Generated_Source\PSoC4/CapSense.c **** /*******************************************************************************
 384:.\Generated_Source\PSoC4/CapSense.c **** * Function Name: CapSense_Start
 385:.\Generated_Source\PSoC4/CapSense.c **** ********************************************************************************
 386:.\Generated_Source\PSoC4/CapSense.c **** *
 387:.\Generated_Source\PSoC4/CapSense.c **** * Summary:
 388:.\Generated_Source\PSoC4/CapSense.c **** *  This is the preferred method to begin the component operation. CapSense_Start() 
 389:.\Generated_Source\PSoC4/CapSense.c **** *  calls the CapSense_Init() function, and then calls the CapSense_Enable() 
 390:.\Generated_Source\PSoC4/CapSense.c **** *  function. Initializes the registers and starts the CSD method of the CapSense 
 391:.\Generated_Source\PSoC4/CapSense.c **** *  component. Resets all the sensors to an inactive state. Enables interrupts for 
 392:.\Generated_Source\PSoC4/CapSense.c **** *  sensors scanning. When the SmartSense tuning mode is selected, the tuning procedure
 393:.\Generated_Source\PSoC4/CapSense.c **** *  is applied for all the sensors. The CapSense_Start() routine must be called before 
 394:.\Generated_Source\PSoC4/CapSense.c **** *  any other API routines.
 395:.\Generated_Source\PSoC4/CapSense.c **** *
 396:.\Generated_Source\PSoC4/CapSense.c **** * Parameters:
 397:.\Generated_Source\PSoC4/CapSense.c **** *  None
 398:.\Generated_Source\PSoC4/CapSense.c **** *
 399:.\Generated_Source\PSoC4/CapSense.c **** * Return:
 400:.\Generated_Source\PSoC4/CapSense.c **** *  None
 401:.\Generated_Source\PSoC4/CapSense.c **** *
 402:.\Generated_Source\PSoC4/CapSense.c **** * Global Variables:
 403:.\Generated_Source\PSoC4/CapSense.c **** *   CapSense_initVar - used to check the initial configuration, 
 404:.\Generated_Source\PSoC4/CapSense.c **** *   modified on the first function call.
 405:.\Generated_Source\PSoC4/CapSense.c **** *  CapSense_lowLevelTuningDone - Used to notify the Tuner GUI that 
 406:.\Generated_Source\PSoC4/CapSense.c **** *   tuning of the scanning parameters is done. 
 407:.\Generated_Source\PSoC4/CapSense.c **** *
 408:.\Generated_Source\PSoC4/CapSense.c **** * Side Effects:
 409:.\Generated_Source\PSoC4/CapSense.c **** *  None
 410:.\Generated_Source\PSoC4/CapSense.c **** * 
 411:.\Generated_Source\PSoC4/CapSense.c **** *******************************************************************************/
 412:.\Generated_Source\PSoC4/CapSense.c **** void CapSense_Start(void)
 413:.\Generated_Source\PSoC4/CapSense.c **** {
 414:.\Generated_Source\PSoC4/CapSense.c **** 
 415:.\Generated_Source\PSoC4/CapSense.c **** 	static uint8 CapSense_initVar = 0u;
 416:.\Generated_Source\PSoC4/CapSense.c **** 
 417:.\Generated_Source\PSoC4/CapSense.c **** 	#if((0u != CapSense_AUTOCALIBRATION_ENABLE) && (CapSense_TUNING_METHOD != CapSense__TUNING_AUTO))
 418:.\Generated_Source\PSoC4/CapSense.c **** 		uint32 curSensor;
 419:.\Generated_Source\PSoC4/CapSense.c **** 		uint32 rawLevel;
 420:.\Generated_Source\PSoC4/CapSense.c **** 		uint32 widget;
 421:.\Generated_Source\PSoC4/CapSense.c ****     #endif /* ((0u != CapSense_AUTOCALIBRATION_ENABLE) && (CapSense_TUNING_METHOD != CapSense__TUNI
 422:.\Generated_Source\PSoC4/CapSense.c **** 	
 423:.\Generated_Source\PSoC4/CapSense.c ****     if (CapSense_initVar == 0u)
 424:.\Generated_Source\PSoC4/CapSense.c ****     {
 425:.\Generated_Source\PSoC4/CapSense.c ****         CapSense_Init();
 426:.\Generated_Source\PSoC4/CapSense.c ****         CapSense_initVar = 1u;
 427:.\Generated_Source\PSoC4/CapSense.c ****     }
 428:.\Generated_Source\PSoC4/CapSense.c ****     CapSense_Enable();
 429:.\Generated_Source\PSoC4/CapSense.c **** 	
 430:.\Generated_Source\PSoC4/CapSense.c ****     /* AutoTunning start */
 431:.\Generated_Source\PSoC4/CapSense.c ****     #if(CapSense_TUNING_METHOD == CapSense__TUNING_AUTO)
 432:.\Generated_Source\PSoC4/CapSense.c **** 		#if(0u != CapSense_CSHL_API_GENERATE)
 433:.\Generated_Source\PSoC4/CapSense.c **** 	        CapSense_AutoTune();
 434:.\Generated_Source\PSoC4/CapSense.c **** 	        CapSense_lowLevelTuningDone = 1u;
ARM GAS  C:\Users\ALEXAN~1\AppData\Local\Temp\cckq0yk2.s 			page 12


 435:.\Generated_Source\PSoC4/CapSense.c **** 		#endif /* (0u != CapSense_CSHL_API_GENERATE) */
 436:.\Generated_Source\PSoC4/CapSense.c **** 	#else
 437:.\Generated_Source\PSoC4/CapSense.c **** 		#if(0u != CapSense_AUTOCALIBRATION_ENABLE)
 438:.\Generated_Source\PSoC4/CapSense.c **** 			
 439:.\Generated_Source\PSoC4/CapSense.c **** 			#if(CapSense_IDAC_CNT > 1u)
 440:.\Generated_Source\PSoC4/CapSense.c **** 				CapSense_CSD_IDAC_REG &= ~(CapSense_CSD_IDAC2_MODE_MASK);	
 441:.\Generated_Source\PSoC4/CapSense.c **** 			#endif /* (CapSense_IDAC_CNT > 1u) */
 442:.\Generated_Source\PSoC4/CapSense.c **** 			
 443:.\Generated_Source\PSoC4/CapSense.c **** 			for(curSensor = 0u; curSensor < CapSense_TOTAL_SCANSLOT_COUNT; curSensor++)
 444:.\Generated_Source\PSoC4/CapSense.c **** 			{
 445:.\Generated_Source\PSoC4/CapSense.c **** 				widget = CapSense_widgetNumber[curSensor];
 446:.\Generated_Source\PSoC4/CapSense.c **** 				rawLevel = CapSense_widgetResolution[widget] >> CapSense_RESOLUTION_OFFSET;
 447:.\Generated_Source\PSoC4/CapSense.c **** 				
 448:.\Generated_Source\PSoC4/CapSense.c **** 				/* Calibration level should be equal to 85% from scanning resolution */
 449:.\Generated_Source\PSoC4/CapSense.c **** 				rawLevel = (rawLevel * 85u) / 100u;
 450:.\Generated_Source\PSoC4/CapSense.c **** 				
 451:.\Generated_Source\PSoC4/CapSense.c **** 				CapSense_CalibrateSensor(curSensor, rawLevel, CapSense_modulationIDAC);
 452:.\Generated_Source\PSoC4/CapSense.c **** 			}
 453:.\Generated_Source\PSoC4/CapSense.c **** 
 454:.\Generated_Source\PSoC4/CapSense.c **** 			#if(0u != CapSense_TOTAL_CENTROIDS_COUNT) 
 455:.\Generated_Source\PSoC4/CapSense.c **** 				CapSense_NormalizeWidgets(CapSense_END_OF_WIDGETS_INDEX, CapSense_modulationIDAC);
 456:.\Generated_Source\PSoC4/CapSense.c **** 			#endif /* (0u != CapSense_TOTAL_CENTROIDS_COUNT)  */
 457:.\Generated_Source\PSoC4/CapSense.c **** 
 458:.\Generated_Source\PSoC4/CapSense.c **** 			#if(CapSense_IDAC_CNT > 1u)
 459:.\Generated_Source\PSoC4/CapSense.c **** 				for(curSensor = 0u; curSensor < CapSense_TOTAL_SCANSLOT_COUNT; curSensor++)
 460:.\Generated_Source\PSoC4/CapSense.c **** 			    {
 461:.\Generated_Source\PSoC4/CapSense.c **** 					CapSense_compensationIDAC[curSensor] = CapSense_modulationIDAC[curSensor] / 2u;
 462:.\Generated_Source\PSoC4/CapSense.c **** 					CapSense_modulationIDAC[curSensor] = (CapSense_modulationIDAC[curSensor] + 1u) / 2u;
 463:.\Generated_Source\PSoC4/CapSense.c **** 			    }
 464:.\Generated_Source\PSoC4/CapSense.c **** 				CapSense_CSD_IDAC_REG |= CapSense_CSD_IDAC2_MODE_FIXED;
 465:.\Generated_Source\PSoC4/CapSense.c **** 			#endif /* (CapSense_IDAC_CNT > 1u) */
 466:.\Generated_Source\PSoC4/CapSense.c **** 			
 467:.\Generated_Source\PSoC4/CapSense.c ****         #endif /* (0u != CapSense_AUTOCALIBRATION_ENABLE) */ 
 468:.\Generated_Source\PSoC4/CapSense.c **** 					
 469:.\Generated_Source\PSoC4/CapSense.c ****     #endif /* ((CapSense_TUNING_METHOD == CapSense__TUNING_AUTO) */	
 470:.\Generated_Source\PSoC4/CapSense.c **** 	
 471:.\Generated_Source\PSoC4/CapSense.c **** 	/* Initialize Advanced Centroid */
 472:.\Generated_Source\PSoC4/CapSense.c **** 	#if(CapSense_TOTAL_TRACKPAD_GESTURES_COUNT > 0u)
 473:.\Generated_Source\PSoC4/CapSense.c **** 		CapSense_AdvancedCentroidInit();
 474:.\Generated_Source\PSoC4/CapSense.c **** 	#endif /* (CapSense_TOTAL_TRACKPAD_GESTURES_COUNT > 0u) */
 475:.\Generated_Source\PSoC4/CapSense.c **** 	
 476:.\Generated_Source\PSoC4/CapSense.c **** 	/* Connect sense comparator input to AMUXA */
 477:.\Generated_Source\PSoC4/CapSense.c **** 	CapSense_CSD_CFG_REG |= CapSense_CSD_CFG_SENSE_INSEL;
 478:.\Generated_Source\PSoC4/CapSense.c **** }
 479:.\Generated_Source\PSoC4/CapSense.c **** 
 480:.\Generated_Source\PSoC4/CapSense.c **** 
 481:.\Generated_Source\PSoC4/CapSense.c **** /*******************************************************************************
 482:.\Generated_Source\PSoC4/CapSense.c **** * Function Name: CapSense_Stop
 483:.\Generated_Source\PSoC4/CapSense.c **** ********************************************************************************
 484:.\Generated_Source\PSoC4/CapSense.c **** *
 485:.\Generated_Source\PSoC4/CapSense.c **** * Summary:
 486:.\Generated_Source\PSoC4/CapSense.c **** *  Stops the sensor scanning, disables component interrupts, and resets all the 
 487:.\Generated_Source\PSoC4/CapSense.c **** *  sensors to an inactive state. Disables the Active mode power template bits for
 488:.\Generated_Source\PSoC4/CapSense.c **** *  the subcomponents used within CapSense.
 489:.\Generated_Source\PSoC4/CapSense.c **** *
 490:.\Generated_Source\PSoC4/CapSense.c **** * Parameters:
 491:.\Generated_Source\PSoC4/CapSense.c **** *  None
ARM GAS  C:\Users\ALEXAN~1\AppData\Local\Temp\cckq0yk2.s 			page 13


 492:.\Generated_Source\PSoC4/CapSense.c **** *
 493:.\Generated_Source\PSoC4/CapSense.c **** * Return:
 494:.\Generated_Source\PSoC4/CapSense.c **** *  None
 495:.\Generated_Source\PSoC4/CapSense.c **** *
 496:.\Generated_Source\PSoC4/CapSense.c **** * Global Variables:
 497:.\Generated_Source\PSoC4/CapSense.c **** *  CapSense_csdTrim1 - Contains the IDAC trim register value for the Sourcing Mode.
 498:.\Generated_Source\PSoC4/CapSense.c **** *  CapSense_csdTrim2 - Contains the IDAC trim register value for vSinking Mode.
 499:.\Generated_Source\PSoC4/CapSense.c **** *
 500:.\Generated_Source\PSoC4/CapSense.c **** * Side Effects:
 501:.\Generated_Source\PSoC4/CapSense.c **** *  This function should be called after scans are completed.
 502:.\Generated_Source\PSoC4/CapSense.c **** *
 503:.\Generated_Source\PSoC4/CapSense.c **** *******************************************************************************/
 504:.\Generated_Source\PSoC4/CapSense.c **** void CapSense_Stop(void)
 505:.\Generated_Source\PSoC4/CapSense.c **** {
 194              		.loc 1 505 0
 195              		.cfi_startproc
 196 0000 08B5     		push	{r3, lr}
 197              		.cfi_def_cfa_offset 8
 198              		.cfi_offset 3, -8
 199              		.cfi_offset 14, -4
 506:.\Generated_Source\PSoC4/CapSense.c ****     /* Disable interrupt */
 507:.\Generated_Source\PSoC4/CapSense.c ****     CyIntDisable(CapSense_ISR_NUMBER);
 200              		.loc 1 507 0
 201 0002 1020     		mov	r0, #16
 202 0004 FFF7FEFF 		bl	CyIntDisable
 203              	.LVL25:
 508:.\Generated_Source\PSoC4/CapSense.c **** 	
 509:.\Generated_Source\PSoC4/CapSense.c **** 	CapSense_CSD_CFG_REG &= ~(CapSense_CSD_CFG_SENSE_COMP_EN | CapSense_CSD_CFG_SENSE_EN);
 204              		.loc 1 509 0
 205 0008 064B     		ldr	r3, .L8
 206 000a 1968     		ldr	r1, [r3]
 207 000c 064A     		ldr	r2, .L8+4
 208 000e 0A40     		and	r2, r1
 209 0010 1A60     		str	r2, [r3]
 510:.\Generated_Source\PSoC4/CapSense.c **** 	
 511:.\Generated_Source\PSoC4/CapSense.c **** 	#if(CapSense_IDAC_CNT == 2u)
 512:.\Generated_Source\PSoC4/CapSense.c **** 		CapSense_CSD_CFG_REG &= ~(CapSense_CSD_CFG_ENABLE);
 210              		.loc 1 512 0
 211 0012 1A68     		ldr	r2, [r3]
 212 0014 5200     		lsl	r2, r2, #1
 213 0016 5208     		lsr	r2, r2, #1
 214 0018 1A60     		str	r2, [r3]
 513:.\Generated_Source\PSoC4/CapSense.c **** 	#endif /* (CapSense_IDAC_CNT == 2u) */
 514:.\Generated_Source\PSoC4/CapSense.c **** 
 515:.\Generated_Source\PSoC4/CapSense.c ****     /* Disable the Clocks */
 516:.\Generated_Source\PSoC4/CapSense.c ****     CapSense_SenseClk_Stop();
 215              		.loc 1 516 0
 216 001a FFF7FEFF 		bl	CapSense_SenseClk_Stop
 217              	.LVL26:
 517:.\Generated_Source\PSoC4/CapSense.c ****     CapSense_SampleClk_Stop();
 218              		.loc 1 517 0
 219 001e FFF7FEFF 		bl	CapSense_SampleClk_Stop
 220              	.LVL27:
 518:.\Generated_Source\PSoC4/CapSense.c **** }
 221              		.loc 1 518 0
 222              		@ sp needed
 223 0022 08BD     		pop	{r3, pc}
ARM GAS  C:\Users\ALEXAN~1\AppData\Local\Temp\cckq0yk2.s 			page 14


 224              	.L9:
 225              		.align	2
 226              	.L8:
 227 0024 04002840 		.word	1076363268
 228 0028 FFEFF7FF 		.word	-528385
 229              		.cfi_endproc
 230              	.LFE39:
 231              		.size	CapSense_Stop, .-CapSense_Stop
 232              		.section	.text.CapSense_IsBusy,"ax",%progbits
 233              		.align	2
 234              		.global	CapSense_IsBusy
 235              		.code	16
 236              		.thumb_func
 237              		.type	CapSense_IsBusy, %function
 238              	CapSense_IsBusy:
 239              	.LFB44:
 519:.\Generated_Source\PSoC4/CapSense.c **** 
 520:.\Generated_Source\PSoC4/CapSense.c **** 
 521:.\Generated_Source\PSoC4/CapSense.c **** /*******************************************************************************
 522:.\Generated_Source\PSoC4/CapSense.c **** * Function Name: CapSense_FindNextSensor
 523:.\Generated_Source\PSoC4/CapSense.c **** ********************************************************************************
 524:.\Generated_Source\PSoC4/CapSense.c **** *
 525:.\Generated_Source\PSoC4/CapSense.c **** * Summary:
 526:.\Generated_Source\PSoC4/CapSense.c **** *  Finds the next sensor to scan. 
 527:.\Generated_Source\PSoC4/CapSense.c **** *
 528:.\Generated_Source\PSoC4/CapSense.c **** * Parameters:
 529:.\Generated_Source\PSoC4/CapSense.c **** *  snsIndex:  Current index of sensor.
 530:.\Generated_Source\PSoC4/CapSense.c **** *
 531:.\Generated_Source\PSoC4/CapSense.c **** * Return:
 532:.\Generated_Source\PSoC4/CapSense.c **** *  Returns the next sensor index to scan.
 533:.\Generated_Source\PSoC4/CapSense.c **** *
 534:.\Generated_Source\PSoC4/CapSense.c **** * Global Variables:
 535:.\Generated_Source\PSoC4/CapSense.c **** *  CapSense_sensorEnableMask[] - used to store bit masks of the enabled sensors.
 536:.\Generated_Source\PSoC4/CapSense.c **** *
 537:.\Generated_Source\PSoC4/CapSense.c **** * Side Effects:
 538:.\Generated_Source\PSoC4/CapSense.c **** *  This function affects the  current scanning and should not
 539:.\Generated_Source\PSoC4/CapSense.c **** *  be used outside the component.
 540:.\Generated_Source\PSoC4/CapSense.c **** *
 541:.\Generated_Source\PSoC4/CapSense.c **** *******************************************************************************/
 542:.\Generated_Source\PSoC4/CapSense.c **** uint8 CapSense_FindNextSensor(uint8 snsIndex)
 543:.\Generated_Source\PSoC4/CapSense.c **** {
 544:.\Generated_Source\PSoC4/CapSense.c ****     uint32 enableFlag;
 545:.\Generated_Source\PSoC4/CapSense.c ****     
 546:.\Generated_Source\PSoC4/CapSense.c ****     /* Check if sensor enabled */
 547:.\Generated_Source\PSoC4/CapSense.c ****     do
 548:.\Generated_Source\PSoC4/CapSense.c ****     {
 549:.\Generated_Source\PSoC4/CapSense.c ****         /* Proceed with next sensor */
 550:.\Generated_Source\PSoC4/CapSense.c ****         snsIndex++;
 551:.\Generated_Source\PSoC4/CapSense.c ****         if(snsIndex == CapSense_TOTAL_SENSOR_COUNT)
 552:.\Generated_Source\PSoC4/CapSense.c ****         {
 553:.\Generated_Source\PSoC4/CapSense.c ****             break;
 554:.\Generated_Source\PSoC4/CapSense.c ****         }
 555:.\Generated_Source\PSoC4/CapSense.c ****         enableFlag = CapSense_GetBitValue(CapSense_sensorEnableMask, (uint32)snsIndex);
 556:.\Generated_Source\PSoC4/CapSense.c ****     }    
 557:.\Generated_Source\PSoC4/CapSense.c ****     while(enableFlag == 0u);
 558:.\Generated_Source\PSoC4/CapSense.c ****     
 559:.\Generated_Source\PSoC4/CapSense.c ****     return ((uint8)snsIndex);
ARM GAS  C:\Users\ALEXAN~1\AppData\Local\Temp\cckq0yk2.s 			page 15


 560:.\Generated_Source\PSoC4/CapSense.c **** }
 561:.\Generated_Source\PSoC4/CapSense.c **** 
 562:.\Generated_Source\PSoC4/CapSense.c **** 
 563:.\Generated_Source\PSoC4/CapSense.c **** /*******************************************************************************
 564:.\Generated_Source\PSoC4/CapSense.c **** * Function Name: CapSense_ScanSensor
 565:.\Generated_Source\PSoC4/CapSense.c **** ********************************************************************************
 566:.\Generated_Source\PSoC4/CapSense.c **** *
 567:.\Generated_Source\PSoC4/CapSense.c **** * Summary:
 568:.\Generated_Source\PSoC4/CapSense.c **** *  Sets the scan settings and starts scanning a sensor. After scanning is complete,
 569:.\Generated_Source\PSoC4/CapSense.c **** *  the ISR copies the measured sensor raw data to the global raw sensor array. 
 570:.\Generated_Source\PSoC4/CapSense.c **** *  Use of the ISR ensures this function is non-blocking. 
 571:.\Generated_Source\PSoC4/CapSense.c **** *  Each sensor has a unique number within the sensor array. 
 572:.\Generated_Source\PSoC4/CapSense.c **** *  This number is assigned by the CapSense customizer in sequence.
 573:.\Generated_Source\PSoC4/CapSense.c **** *
 574:.\Generated_Source\PSoC4/CapSense.c **** * Parameters:
 575:.\Generated_Source\PSoC4/CapSense.c **** *  sensor:  Sensor number.
 576:.\Generated_Source\PSoC4/CapSense.c **** *
 577:.\Generated_Source\PSoC4/CapSense.c **** * Return:
 578:.\Generated_Source\PSoC4/CapSense.c **** *  None
 579:.\Generated_Source\PSoC4/CapSense.c **** *
 580:.\Generated_Source\PSoC4/CapSense.c **** * Global Variables:
 581:.\Generated_Source\PSoC4/CapSense.c **** *  CapSense_csdStatusVar - used to provide the status and mode of the scanning process. 
 582:.\Generated_Source\PSoC4/CapSense.c **** *  Sets the busy status(scan in progress) and mode of scan as single scan.
 583:.\Generated_Source\PSoC4/CapSense.c **** *  CapSense_sensorIndex - used to store a sensor scanning sensor number.
 584:.\Generated_Source\PSoC4/CapSense.c **** *  Sets to the provided sensor argument.
 585:.\Generated_Source\PSoC4/CapSense.c **** *
 586:.\Generated_Source\PSoC4/CapSense.c **** * Side Effects:
 587:.\Generated_Source\PSoC4/CapSense.c **** *  None
 588:.\Generated_Source\PSoC4/CapSense.c **** * 
 589:.\Generated_Source\PSoC4/CapSense.c **** *******************************************************************************/
 590:.\Generated_Source\PSoC4/CapSense.c **** void CapSense_ScanSensor(uint32 sensor)
 591:.\Generated_Source\PSoC4/CapSense.c **** {
 592:.\Generated_Source\PSoC4/CapSense.c ****     /* Clears status/control variable and set sensorIndex */
 593:.\Generated_Source\PSoC4/CapSense.c ****     CapSense_csdStatusVar = 0u;
 594:.\Generated_Source\PSoC4/CapSense.c ****     CapSense_sensorIndex = (uint8)sensor;
 595:.\Generated_Source\PSoC4/CapSense.c ****     
 596:.\Generated_Source\PSoC4/CapSense.c ****     /* Start of sensor scan */
 597:.\Generated_Source\PSoC4/CapSense.c ****     CapSense_csdStatusVar = (CapSense_SW_STS_BUSY | CapSense_SW_CTRL_SINGLE_SCAN);
 598:.\Generated_Source\PSoC4/CapSense.c ****     CapSense_PreScan(sensor);
 599:.\Generated_Source\PSoC4/CapSense.c **** }
 600:.\Generated_Source\PSoC4/CapSense.c **** 
 601:.\Generated_Source\PSoC4/CapSense.c **** 
 602:.\Generated_Source\PSoC4/CapSense.c **** #if(0u != CapSense_CSHL_API_GENERATE)
 603:.\Generated_Source\PSoC4/CapSense.c **** /*******************************************************************************
 604:.\Generated_Source\PSoC4/CapSense.c **** * Function Name: CapSense_ScanWidget
 605:.\Generated_Source\PSoC4/CapSense.c **** ********************************************************************************
 606:.\Generated_Source\PSoC4/CapSense.c **** *
 607:.\Generated_Source\PSoC4/CapSense.c **** * Summary:
 608:.\Generated_Source\PSoC4/CapSense.c **** *  Sets the scan settings and starts scanning a widget.
 609:.\Generated_Source\PSoC4/CapSense.c **** *
 610:.\Generated_Source\PSoC4/CapSense.c **** * Parameters:
 611:.\Generated_Source\PSoC4/CapSense.c **** *  uint32 widget: Widget number.
 612:.\Generated_Source\PSoC4/CapSense.c **** *
 613:.\Generated_Source\PSoC4/CapSense.c **** * Return:
 614:.\Generated_Source\PSoC4/CapSense.c **** *  None
 615:.\Generated_Source\PSoC4/CapSense.c **** *
 616:.\Generated_Source\PSoC4/CapSense.c **** * Global Variables:
ARM GAS  C:\Users\ALEXAN~1\AppData\Local\Temp\cckq0yk2.s 			page 16


 617:.\Generated_Source\PSoC4/CapSense.c **** *  CapSense_csdStatusVar - used to provide the status and mode of the scanning process. 
 618:.\Generated_Source\PSoC4/CapSense.c **** *  Sets the busy status(scan in progress) and clears the single scan mode.
 619:.\Generated_Source\PSoC4/CapSense.c **** *  CapSense_sensorIndex - used to store a sensor scanning sensor number.
 620:.\Generated_Source\PSoC4/CapSense.c **** *  Sets to 0xFF and provided to function CapSense_FindNextSensor or
 621:.\Generated_Source\PSoC4/CapSense.c **** *  CapSense_sensorEnableMask[] - used to store bit masks of the enabled sensors.
 622:.\Generated_Source\PSoC4/CapSense.c **** *  CapSense_sensorEnableMaskBackup[] - used to backup bit masks of the enabled
 623:.\Generated_Source\PSoC4/CapSense.c **** *   sensors.
 624:.\Generated_Source\PSoC4/CapSense.c **** *
 625:.\Generated_Source\PSoC4/CapSense.c **** * Side Effects:
 626:.\Generated_Source\PSoC4/CapSense.c **** *  None
 627:.\Generated_Source\PSoC4/CapSense.c **** * 
 628:.\Generated_Source\PSoC4/CapSense.c **** *******************************************************************************/
 629:.\Generated_Source\PSoC4/CapSense.c **** void CapSense_ScanWidget(uint32 widget)
 630:.\Generated_Source\PSoC4/CapSense.c **** {
 631:.\Generated_Source\PSoC4/CapSense.c ****     uint32 sensorsPerWidget;
 632:.\Generated_Source\PSoC4/CapSense.c ****     uint32 lastSensor;
 633:.\Generated_Source\PSoC4/CapSense.c ****     uint32 snsIndex;
 634:.\Generated_Source\PSoC4/CapSense.c **** 
 635:.\Generated_Source\PSoC4/CapSense.c **** 	/* Get first sensor in widget */
 636:.\Generated_Source\PSoC4/CapSense.c **** 	CapSense_sensorIndex = CapSense_rawDataIndex[widget];
 637:.\Generated_Source\PSoC4/CapSense.c **** 	
 638:.\Generated_Source\PSoC4/CapSense.c **** 	/* Get number of sensors in widget */
 639:.\Generated_Source\PSoC4/CapSense.c **** 	sensorsPerWidget = CapSense_numberOfSensors[widget];
 640:.\Generated_Source\PSoC4/CapSense.c **** 	
 641:.\Generated_Source\PSoC4/CapSense.c **** 	/* Check if generic Sensor */
 642:.\Generated_Source\PSoC4/CapSense.c **** 	if(sensorsPerWidget == 0u)
 643:.\Generated_Source\PSoC4/CapSense.c **** 	{
 644:.\Generated_Source\PSoC4/CapSense.c **** 		sensorsPerWidget = 1u;
 645:.\Generated_Source\PSoC4/CapSense.c **** 	}
 646:.\Generated_Source\PSoC4/CapSense.c **** 	
 647:.\Generated_Source\PSoC4/CapSense.c **** 	/* Get last sensor in widget */
 648:.\Generated_Source\PSoC4/CapSense.c **** 	lastSensor = (CapSense_rawDataIndex[widget] + sensorsPerWidget) - 1u;
 649:.\Generated_Source\PSoC4/CapSense.c **** 
 650:.\Generated_Source\PSoC4/CapSense.c **** 	/* Backup sensorEnableMask array */
 651:.\Generated_Source\PSoC4/CapSense.c **** 	for(snsIndex = 0u; snsIndex < CapSense_TOTAL_SENSOR_MASK; snsIndex++)
 652:.\Generated_Source\PSoC4/CapSense.c **** 	{
 653:.\Generated_Source\PSoC4/CapSense.c **** 		/* Backup sensorEnableMask array */
 654:.\Generated_Source\PSoC4/CapSense.c **** 		CapSense_sensorEnableMaskBackup[snsIndex] = CapSense_sensorEnableMask[snsIndex];
 655:.\Generated_Source\PSoC4/CapSense.c **** 	}
 656:.\Generated_Source\PSoC4/CapSense.c **** 
 657:.\Generated_Source\PSoC4/CapSense.c **** 	/* Update sensorEnableMask to scan the sensors that belong to widget */
 658:.\Generated_Source\PSoC4/CapSense.c **** 	for(snsIndex = 0u; snsIndex < CapSense_TOTAL_SENSOR_COUNT; snsIndex++)
 659:.\Generated_Source\PSoC4/CapSense.c **** 	{
 660:.\Generated_Source\PSoC4/CapSense.c **** 		/* Update sensorEnableMask array bits to scan the widget only */ 
 661:.\Generated_Source\PSoC4/CapSense.c **** 	    if((snsIndex >= CapSense_sensorIndex) && (snsIndex <= lastSensor))
 662:.\Generated_Source\PSoC4/CapSense.c **** 		{
 663:.\Generated_Source\PSoC4/CapSense.c **** 		    /* Set sensor bit to scan */
 664:.\Generated_Source\PSoC4/CapSense.c **** 			CapSense_SetBitValue(CapSense_sensorEnableMask, snsIndex, 1u);
 665:.\Generated_Source\PSoC4/CapSense.c **** 		}
 666:.\Generated_Source\PSoC4/CapSense.c **** 		else
 667:.\Generated_Source\PSoC4/CapSense.c **** 		{
 668:.\Generated_Source\PSoC4/CapSense.c **** 		    /* Reset sensor bit to do not scan */
 669:.\Generated_Source\PSoC4/CapSense.c **** 		    CapSense_SetBitValue(CapSense_sensorEnableMask, snsIndex, 0u);
 670:.\Generated_Source\PSoC4/CapSense.c **** 		}
 671:.\Generated_Source\PSoC4/CapSense.c **** 	}
 672:.\Generated_Source\PSoC4/CapSense.c **** 
 673:.\Generated_Source\PSoC4/CapSense.c ****     /* Check end of scan condition */
ARM GAS  C:\Users\ALEXAN~1\AppData\Local\Temp\cckq0yk2.s 			page 17


 674:.\Generated_Source\PSoC4/CapSense.c ****     if(CapSense_sensorIndex < CapSense_TOTAL_SENSOR_COUNT)
 675:.\Generated_Source\PSoC4/CapSense.c ****     {
 676:.\Generated_Source\PSoC4/CapSense.c **** 		/* Set widget busy bit in status/control variable*/ 
 677:.\Generated_Source\PSoC4/CapSense.c **** 		CapSense_csdStatusVar = (CapSense_SW_STS_BUSY | CapSense_SW_CTRL_WIDGET_SCAN);
 678:.\Generated_Source\PSoC4/CapSense.c **** 		/* Scan first sensor of widget*/ 
 679:.\Generated_Source\PSoC4/CapSense.c ****         CapSense_PreScan((uint32)CapSense_sensorIndex);
 680:.\Generated_Source\PSoC4/CapSense.c ****     }
 681:.\Generated_Source\PSoC4/CapSense.c **** }
 682:.\Generated_Source\PSoC4/CapSense.c **** #endif /* (0u != CapSense_CSHL_API_GENERATE) */
 683:.\Generated_Source\PSoC4/CapSense.c **** 
 684:.\Generated_Source\PSoC4/CapSense.c **** 
 685:.\Generated_Source\PSoC4/CapSense.c **** /*******************************************************************************
 686:.\Generated_Source\PSoC4/CapSense.c **** * Function Name: CapSense_ScanEnableWidgets
 687:.\Generated_Source\PSoC4/CapSense.c **** ********************************************************************************
 688:.\Generated_Source\PSoC4/CapSense.c **** *
 689:.\Generated_Source\PSoC4/CapSense.c **** * Summary:
 690:.\Generated_Source\PSoC4/CapSense.c **** *  This is the preferred method to scan all of the enabled widgets. 
 691:.\Generated_Source\PSoC4/CapSense.c **** *  The API starts scanning a sensor within the enabled widgets. 
 692:.\Generated_Source\PSoC4/CapSense.c **** *  The ISR continues scanning the sensors until all the enabled widgets are scanned. 
 693:.\Generated_Source\PSoC4/CapSense.c **** *  Use of the ISR ensures this function is non-blocking.
 694:.\Generated_Source\PSoC4/CapSense.c **** *  All the widgets are enabled by default except proximity widgets. 
 695:.\Generated_Source\PSoC4/CapSense.c **** *  The proximity widgets must be manually enabled as their long scan time 
 696:.\Generated_Source\PSoC4/CapSense.c **** *  is incompatible with a fast response required of other widget types.
 697:.\Generated_Source\PSoC4/CapSense.c **** *
 698:.\Generated_Source\PSoC4/CapSense.c **** * Parameters:
 699:.\Generated_Source\PSoC4/CapSense.c **** *  None
 700:.\Generated_Source\PSoC4/CapSense.c **** *
 701:.\Generated_Source\PSoC4/CapSense.c **** * Return:
 702:.\Generated_Source\PSoC4/CapSense.c **** *  None
 703:.\Generated_Source\PSoC4/CapSense.c **** *
 704:.\Generated_Source\PSoC4/CapSense.c **** * Global Variables:
 705:.\Generated_Source\PSoC4/CapSense.c **** *  CapSense_csdStatusVar - used to provide the status and mode of the scanning process. 
 706:.\Generated_Source\PSoC4/CapSense.c **** *  Sets the busy status(scan in progress) and clears the single scan mode.
 707:.\Generated_Source\PSoC4/CapSense.c **** *  CapSense_sensorIndex - used to store a sensor scanning sensor number.
 708:.\Generated_Source\PSoC4/CapSense.c **** *  Sets to 0xFF and provided to function CapSense_FindNextSensor or
 709:.\Generated_Source\PSoC4/CapSense.c **** *
 710:.\Generated_Source\PSoC4/CapSense.c **** * Side Effects:
 711:.\Generated_Source\PSoC4/CapSense.c **** *  None
 712:.\Generated_Source\PSoC4/CapSense.c **** * 
 713:.\Generated_Source\PSoC4/CapSense.c **** *******************************************************************************/
 714:.\Generated_Source\PSoC4/CapSense.c **** void CapSense_ScanEnabledWidgets(void)
 715:.\Generated_Source\PSoC4/CapSense.c **** {
 716:.\Generated_Source\PSoC4/CapSense.c ****     /* Clears status/control variable and set sensorIndex */
 717:.\Generated_Source\PSoC4/CapSense.c ****     CapSense_csdStatusVar = 0u;
 718:.\Generated_Source\PSoC4/CapSense.c ****     CapSense_sensorIndex = 0xFFu;
 719:.\Generated_Source\PSoC4/CapSense.c ****     
 720:.\Generated_Source\PSoC4/CapSense.c ****     /* Find next sensor */
 721:.\Generated_Source\PSoC4/CapSense.c ****     CapSense_sensorIndex = (uint8)CapSense_FindNextSensor(CapSense_sensorIndex);
 722:.\Generated_Source\PSoC4/CapSense.c **** 
 723:.\Generated_Source\PSoC4/CapSense.c ****     /* Check end of scan condition */
 724:.\Generated_Source\PSoC4/CapSense.c ****     if(CapSense_sensorIndex < CapSense_TOTAL_SENSOR_COUNT)
 725:.\Generated_Source\PSoC4/CapSense.c ****     {
 726:.\Generated_Source\PSoC4/CapSense.c ****         CapSense_csdStatusVar |= CapSense_SW_STS_BUSY;
 727:.\Generated_Source\PSoC4/CapSense.c ****         CapSense_PreScan((uint32)CapSense_sensorIndex);
 728:.\Generated_Source\PSoC4/CapSense.c ****     }
 729:.\Generated_Source\PSoC4/CapSense.c **** }
 730:.\Generated_Source\PSoC4/CapSense.c **** 
ARM GAS  C:\Users\ALEXAN~1\AppData\Local\Temp\cckq0yk2.s 			page 18


 731:.\Generated_Source\PSoC4/CapSense.c **** 
 732:.\Generated_Source\PSoC4/CapSense.c **** /*******************************************************************************
 733:.\Generated_Source\PSoC4/CapSense.c **** * Function Name: CapSense_IsBusy
 734:.\Generated_Source\PSoC4/CapSense.c **** ********************************************************************************
 735:.\Generated_Source\PSoC4/CapSense.c **** *
 736:.\Generated_Source\PSoC4/CapSense.c **** * Summary:
 737:.\Generated_Source\PSoC4/CapSense.c **** *  Returns the state of the CapSense component. 1 means that scanning in 
 738:.\Generated_Source\PSoC4/CapSense.c **** *  progress and 0 means that scanning is complete.
 739:.\Generated_Source\PSoC4/CapSense.c **** *
 740:.\Generated_Source\PSoC4/CapSense.c **** * Parameters:
 741:.\Generated_Source\PSoC4/CapSense.c **** *  None
 742:.\Generated_Source\PSoC4/CapSense.c **** *
 743:.\Generated_Source\PSoC4/CapSense.c **** * Return:
 744:.\Generated_Source\PSoC4/CapSense.c **** *  Returns the state of scanning. 1 - scanning in progress, 0 - scanning 
 745:.\Generated_Source\PSoC4/CapSense.c **** *  completed.
 746:.\Generated_Source\PSoC4/CapSense.c **** *
 747:.\Generated_Source\PSoC4/CapSense.c **** * Global Variables:
 748:.\Generated_Source\PSoC4/CapSense.c **** *  CapSense_csdStatusVar - used to provide the status and mode of the scanning process. 
 749:.\Generated_Source\PSoC4/CapSense.c **** *  Checks the busy status.
 750:.\Generated_Source\PSoC4/CapSense.c **** *
 751:.\Generated_Source\PSoC4/CapSense.c **** * Side Effects:
 752:.\Generated_Source\PSoC4/CapSense.c **** *  None
 753:.\Generated_Source\PSoC4/CapSense.c **** * 
 754:.\Generated_Source\PSoC4/CapSense.c **** *******************************************************************************/
 755:.\Generated_Source\PSoC4/CapSense.c **** uint32 CapSense_IsBusy(void)
 756:.\Generated_Source\PSoC4/CapSense.c **** {
 240              		.loc 1 756 0
 241              		.cfi_startproc
 757:.\Generated_Source\PSoC4/CapSense.c ****     return ((uint32)((0u != (CapSense_csdStatusVar & CapSense_SW_STS_BUSY)) ? 1u : 0u));
 242              		.loc 1 757 0
 243 0000 024B     		ldr	r3, .L11
 244 0002 1878     		ldrb	r0, [r3]
 245 0004 0123     		mov	r3, #1
 246 0006 1840     		and	r0, r3
 758:.\Generated_Source\PSoC4/CapSense.c **** }
 247              		.loc 1 758 0
 248              		@ sp needed
 249 0008 7047     		bx	lr
 250              	.L12:
 251 000a C046     		.align	2
 252              	.L11:
 253 000c 00000000 		.word	.LANCHOR0
 254              		.cfi_endproc
 255              	.LFE44:
 256              		.size	CapSense_IsBusy, .-CapSense_IsBusy
 257              		.section	.text.CapSense_ReadSensorRaw,"ax",%progbits
 258              		.align	2
 259              		.global	CapSense_ReadSensorRaw
 260              		.code	16
 261              		.thumb_func
 262              		.type	CapSense_ReadSensorRaw, %function
 263              	CapSense_ReadSensorRaw:
 264              	.LFB45:
 759:.\Generated_Source\PSoC4/CapSense.c **** 
 760:.\Generated_Source\PSoC4/CapSense.c **** 
 761:.\Generated_Source\PSoC4/CapSense.c **** /*******************************************************************************
 762:.\Generated_Source\PSoC4/CapSense.c **** * Function Name: CapSense_ReadSensorRaw
ARM GAS  C:\Users\ALEXAN~1\AppData\Local\Temp\cckq0yk2.s 			page 19


 763:.\Generated_Source\PSoC4/CapSense.c **** ********************************************************************************
 764:.\Generated_Source\PSoC4/CapSense.c **** *
 765:.\Generated_Source\PSoC4/CapSense.c **** * Summary:
 766:.\Generated_Source\PSoC4/CapSense.c **** *  Returns sensor raw data from the global CapSense_sensorRaw[ ] array. 
 767:.\Generated_Source\PSoC4/CapSense.c **** *  Each scan sensor has a unique number within the sensor array. 
 768:.\Generated_Source\PSoC4/CapSense.c **** *  This number is assigned by the CapSense customizer in sequence. 
 769:.\Generated_Source\PSoC4/CapSense.c **** *  Raw data can be used to perform calculations outside of the CapSense 
 770:.\Generated_Source\PSoC4/CapSense.c **** *  provided framework.
 771:.\Generated_Source\PSoC4/CapSense.c **** *
 772:.\Generated_Source\PSoC4/CapSense.c **** * Parameters:
 773:.\Generated_Source\PSoC4/CapSense.c **** *  sensor:  Sensor number.
 774:.\Generated_Source\PSoC4/CapSense.c **** *
 775:.\Generated_Source\PSoC4/CapSense.c **** * Return:
 776:.\Generated_Source\PSoC4/CapSense.c **** *  Returns the current raw data value for a defined sensor number.
 777:.\Generated_Source\PSoC4/CapSense.c **** *
 778:.\Generated_Source\PSoC4/CapSense.c **** * Global Variables:
 779:.\Generated_Source\PSoC4/CapSense.c **** *  CapSense_sensorRaw[] - used to store sensors raw data.
 780:.\Generated_Source\PSoC4/CapSense.c **** *
 781:.\Generated_Source\PSoC4/CapSense.c **** * Side Effects: 
 782:.\Generated_Source\PSoC4/CapSense.c **** *  None
 783:.\Generated_Source\PSoC4/CapSense.c **** *
 784:.\Generated_Source\PSoC4/CapSense.c **** *******************************************************************************/
 785:.\Generated_Source\PSoC4/CapSense.c **** uint16 CapSense_ReadSensorRaw(uint32 sensor)
 786:.\Generated_Source\PSoC4/CapSense.c **** {
 265              		.loc 1 786 0
 266              		.cfi_startproc
 267              	.LVL28:
 787:.\Generated_Source\PSoC4/CapSense.c ****     return CapSense_sensorRaw[sensor];
 268              		.loc 1 787 0
 269 0000 4000     		lsl	r0, r0, #1
 270              	.LVL29:
 271 0002 024B     		ldr	r3, .L14
 272 0004 1818     		add	r0, r3, r0
 273 0006 8088     		ldrh	r0, [r0, #4]
 788:.\Generated_Source\PSoC4/CapSense.c **** }
 274              		.loc 1 788 0
 275              		@ sp needed
 276 0008 7047     		bx	lr
 277              	.L15:
 278 000a C046     		.align	2
 279              	.L14:
 280 000c 00000000 		.word	.LANCHOR0
 281              		.cfi_endproc
 282              	.LFE45:
 283              		.size	CapSense_ReadSensorRaw, .-CapSense_ReadSensorRaw
 284              		.section	.text.CapSense_WriteSensorRaw,"ax",%progbits
 285              		.align	2
 286              		.global	CapSense_WriteSensorRaw
 287              		.code	16
 288              		.thumb_func
 289              		.type	CapSense_WriteSensorRaw, %function
 290              	CapSense_WriteSensorRaw:
 291              	.LFB46:
 789:.\Generated_Source\PSoC4/CapSense.c **** 
 790:.\Generated_Source\PSoC4/CapSense.c **** 
 791:.\Generated_Source\PSoC4/CapSense.c **** /*******************************************************************************
 792:.\Generated_Source\PSoC4/CapSense.c **** * Function Name: CapSense_WriteSensorRaw
ARM GAS  C:\Users\ALEXAN~1\AppData\Local\Temp\cckq0yk2.s 			page 20


 793:.\Generated_Source\PSoC4/CapSense.c **** ********************************************************************************
 794:.\Generated_Source\PSoC4/CapSense.c **** *
 795:.\Generated_Source\PSoC4/CapSense.c **** * Summary:
 796:.\Generated_Source\PSoC4/CapSense.c **** *  This API writes the raw count value passed as an argument to the sensor Raw count array.
 797:.\Generated_Source\PSoC4/CapSense.c **** *
 798:.\Generated_Source\PSoC4/CapSense.c **** * Parameters:
 799:.\Generated_Source\PSoC4/CapSense.c **** *  sensor:  Sensor number.
 800:.\Generated_Source\PSoC4/CapSense.c **** *  value: Raw count value.
 801:.\Generated_Source\PSoC4/CapSense.c **** *
 802:.\Generated_Source\PSoC4/CapSense.c **** * Global Variables:
 803:.\Generated_Source\PSoC4/CapSense.c **** *  CapSense_sensorRaw[] - used to store sensors raw data.
 804:.\Generated_Source\PSoC4/CapSense.c **** *
 805:.\Generated_Source\PSoC4/CapSense.c **** * Return:
 806:.\Generated_Source\PSoC4/CapSense.c **** *  None
 807:.\Generated_Source\PSoC4/CapSense.c **** *
 808:.\Generated_Source\PSoC4/CapSense.c **** * Side Effects: 
 809:.\Generated_Source\PSoC4/CapSense.c **** *  None
 810:.\Generated_Source\PSoC4/CapSense.c **** *
 811:.\Generated_Source\PSoC4/CapSense.c **** *******************************************************************************/
 812:.\Generated_Source\PSoC4/CapSense.c **** void CapSense_WriteSensorRaw(uint32 sensor, uint16 value)
 813:.\Generated_Source\PSoC4/CapSense.c **** {
 292              		.loc 1 813 0
 293              		.cfi_startproc
 294              	.LVL30:
 814:.\Generated_Source\PSoC4/CapSense.c **** 	CapSense_sensorRaw[sensor] = value;
 295              		.loc 1 814 0
 296 0000 4000     		lsl	r0, r0, #1
 297              	.LVL31:
 298 0002 024B     		ldr	r3, .L17
 299 0004 1818     		add	r0, r3, r0
 300 0006 8180     		strh	r1, [r0, #4]
 815:.\Generated_Source\PSoC4/CapSense.c **** }
 301              		.loc 1 815 0
 302              		@ sp needed
 303 0008 7047     		bx	lr
 304              	.L18:
 305 000a C046     		.align	2
 306              	.L17:
 307 000c 00000000 		.word	.LANCHOR0
 308              		.cfi_endproc
 309              	.LFE46:
 310              		.size	CapSense_WriteSensorRaw, .-CapSense_WriteSensorRaw
 311              		.section	.text.CapSense_GetScanResolution,"ax",%progbits
 312              		.align	2
 313              		.global	CapSense_GetScanResolution
 314              		.code	16
 315              		.thumb_func
 316              		.type	CapSense_GetScanResolution, %function
 317              	CapSense_GetScanResolution:
 318              	.LFB47:
 816:.\Generated_Source\PSoC4/CapSense.c **** 
 817:.\Generated_Source\PSoC4/CapSense.c **** 
 818:.\Generated_Source\PSoC4/CapSense.c **** #if (CapSense_TUNING_METHOD != CapSense__TUNING_NONE)
 819:.\Generated_Source\PSoC4/CapSense.c **** 	/*******************************************************************************
 820:.\Generated_Source\PSoC4/CapSense.c **** 	* Function Name: CapSense_SetScanResolution
 821:.\Generated_Source\PSoC4/CapSense.c **** 	********************************************************************************
 822:.\Generated_Source\PSoC4/CapSense.c **** 	*
ARM GAS  C:\Users\ALEXAN~1\AppData\Local\Temp\cckq0yk2.s 			page 21


 823:.\Generated_Source\PSoC4/CapSense.c **** 	* Summary:
 824:.\Generated_Source\PSoC4/CapSense.c **** 	*  Sets a value of the sensor scan resolution for a widget. 
 825:.\Generated_Source\PSoC4/CapSense.c **** 	*  The MIN resolution can be set 8-bit. The MAX Resolution can be set 16 bit.
 826:.\Generated_Source\PSoC4/CapSense.c **** 	*  This function is not available for the tuning mode "None".
 827:.\Generated_Source\PSoC4/CapSense.c **** 	*
 828:.\Generated_Source\PSoC4/CapSense.c **** 	* Parameters:
 829:.\Generated_Source\PSoC4/CapSense.c **** 	*  widget:     Widget index.
 830:.\Generated_Source\PSoC4/CapSense.c **** 	*  resolution: Represents the resolution value. The following defines which are available in the
 831:.\Generated_Source\PSoC4/CapSense.c **** 	*			   CapSense.h file should be used:
 832:.\Generated_Source\PSoC4/CapSense.c **** 	*			   CapSense_RESOLUTION_6_BITS
 833:.\Generated_Source\PSoC4/CapSense.c **** 	*			   CapSense_RESOLUTION_7_BITS
 834:.\Generated_Source\PSoC4/CapSense.c **** 	*			   CapSense_RESOLUTION_8_BITS
 835:.\Generated_Source\PSoC4/CapSense.c **** 	*			   CapSense_RESOLUTION_9_BITS
 836:.\Generated_Source\PSoC4/CapSense.c **** 	*			   CapSense_RESOLUTION_10_BITS
 837:.\Generated_Source\PSoC4/CapSense.c **** 	*			   CapSense_RESOLUTION_11_BITS
 838:.\Generated_Source\PSoC4/CapSense.c **** 	*			   CapSense_RESOLUTION_12_BITS
 839:.\Generated_Source\PSoC4/CapSense.c **** 	*			   CapSense_RESOLUTION_13_BITS
 840:.\Generated_Source\PSoC4/CapSense.c **** 	*			   CapSense_RESOLUTION_14_BITS
 841:.\Generated_Source\PSoC4/CapSense.c **** 	*			   CapSense_RESOLUTION_15_BITS
 842:.\Generated_Source\PSoC4/CapSense.c **** 	*			   CapSense_RESOLUTION_16_BITS
 843:.\Generated_Source\PSoC4/CapSense.c **** 	*
 844:.\Generated_Source\PSoC4/CapSense.c **** 	* Return:
 845:.\Generated_Source\PSoC4/CapSense.c **** 	*  None
 846:.\Generated_Source\PSoC4/CapSense.c **** 	*
 847:.\Generated_Source\PSoC4/CapSense.c **** 	* Global Variables:
 848:.\Generated_Source\PSoC4/CapSense.c **** 	*  CapSense_widgetResolution[] - used to store scan resolution of each widget.
 849:.\Generated_Source\PSoC4/CapSense.c **** 	*
 850:.\Generated_Source\PSoC4/CapSense.c **** 	* Side Effects: 
 851:.\Generated_Source\PSoC4/CapSense.c **** 	*  None
 852:.\Generated_Source\PSoC4/CapSense.c **** 	*
 853:.\Generated_Source\PSoC4/CapSense.c **** 	*******************************************************************************/
 854:.\Generated_Source\PSoC4/CapSense.c **** 	void CapSense_SetScanResolution(uint32 widget, uint32 resolution)
 855:.\Generated_Source\PSoC4/CapSense.c **** 	{ 
 856:.\Generated_Source\PSoC4/CapSense.c ****         CapSense_widgetResolution[widget] = resolution;
 857:.\Generated_Source\PSoC4/CapSense.c **** 	}
 858:.\Generated_Source\PSoC4/CapSense.c **** #endif /* (CapSense_TUNING_METHOD != CapSense__TUNING_NONE) */
 859:.\Generated_Source\PSoC4/CapSense.c **** 
 860:.\Generated_Source\PSoC4/CapSense.c **** 
 861:.\Generated_Source\PSoC4/CapSense.c **** /*******************************************************************************
 862:.\Generated_Source\PSoC4/CapSense.c **** * Function Name: CapSense_GetScanResolution
 863:.\Generated_Source\PSoC4/CapSense.c **** ********************************************************************************
 864:.\Generated_Source\PSoC4/CapSense.c **** *
 865:.\Generated_Source\PSoC4/CapSense.c **** * Summary:
 866:.\Generated_Source\PSoC4/CapSense.c **** *  Returns the resolution value for the appropriate sensor.
 867:.\Generated_Source\PSoC4/CapSense.c **** *  This function is not available for tuning mode "None".
 868:.\Generated_Source\PSoC4/CapSense.c **** *
 869:.\Generated_Source\PSoC4/CapSense.c **** * Parameters:
 870:.\Generated_Source\PSoC4/CapSense.c **** *  widget:     Widget index.
 871:.\Generated_Source\PSoC4/CapSense.c **** *
 872:.\Generated_Source\PSoC4/CapSense.c **** * Return:
 873:.\Generated_Source\PSoC4/CapSense.c **** *  resolution: Returns the resolution value for the appropriate sensor. 
 874:.\Generated_Source\PSoC4/CapSense.c **** *              The resolution values are defined in the CapSense.h file 
 875:.\Generated_Source\PSoC4/CapSense.c **** *              The defines are encountered below:
 876:.\Generated_Source\PSoC4/CapSense.c **** *			   CapSense_RESOLUTION_6_BITS
 877:.\Generated_Source\PSoC4/CapSense.c **** *			   CapSense_RESOLUTION_7_BITS
 878:.\Generated_Source\PSoC4/CapSense.c **** *			   CapSense_RESOLUTION_8_BITS
 879:.\Generated_Source\PSoC4/CapSense.c **** *			   CapSense_RESOLUTION_9_BITS
ARM GAS  C:\Users\ALEXAN~1\AppData\Local\Temp\cckq0yk2.s 			page 22


 880:.\Generated_Source\PSoC4/CapSense.c **** *			   CapSense_RESOLUTION_10_BITS
 881:.\Generated_Source\PSoC4/CapSense.c **** *			   CapSense_RESOLUTION_11_BITS
 882:.\Generated_Source\PSoC4/CapSense.c **** *			   CapSense_RESOLUTION_12_BITS
 883:.\Generated_Source\PSoC4/CapSense.c **** *			   CapSense_RESOLUTION_13_BITS
 884:.\Generated_Source\PSoC4/CapSense.c **** *			   CapSense_RESOLUTION_14_BITS
 885:.\Generated_Source\PSoC4/CapSense.c **** *			   CapSense_RESOLUTION_15_BITS
 886:.\Generated_Source\PSoC4/CapSense.c **** *			   CapSense_RESOLUTION_16_BITS
 887:.\Generated_Source\PSoC4/CapSense.c **** *
 888:.\Generated_Source\PSoC4/CapSense.c **** * Global Variables:
 889:.\Generated_Source\PSoC4/CapSense.c **** *  CapSense_widgetResolution[] - used to store scan resolution of every widget.
 890:.\Generated_Source\PSoC4/CapSense.c **** *
 891:.\Generated_Source\PSoC4/CapSense.c **** * Side Effects: 
 892:.\Generated_Source\PSoC4/CapSense.c **** *  None
 893:.\Generated_Source\PSoC4/CapSense.c **** *
 894:.\Generated_Source\PSoC4/CapSense.c **** *******************************************************************************/
 895:.\Generated_Source\PSoC4/CapSense.c **** uint32 CapSense_GetScanResolution(uint32 widget)
 896:.\Generated_Source\PSoC4/CapSense.c **** {
 319              		.loc 1 896 0
 320              		.cfi_startproc
 321              	.LVL32:
 897:.\Generated_Source\PSoC4/CapSense.c **** 	return(CapSense_widgetResolution[widget]);
 898:.\Generated_Source\PSoC4/CapSense.c **** }
 322              		.loc 1 898 0
 323 0000 0048     		ldr	r0, .L20
 324              	.LVL33:
 325              		@ sp needed
 326 0002 7047     		bx	lr
 327              	.L21:
 328              		.align	2
 329              	.L20:
 330 0004 0000FFFF 		.word	-65536
 331              		.cfi_endproc
 332              	.LFE47:
 333              		.size	CapSense_GetScanResolution, .-CapSense_GetScanResolution
 334              		.section	.text.CapSense_EnableSensor,"ax",%progbits
 335              		.align	2
 336              		.global	CapSense_EnableSensor
 337              		.code	16
 338              		.thumb_func
 339              		.type	CapSense_EnableSensor, %function
 340              	CapSense_EnableSensor:
 341              	.LFB49:
 899:.\Generated_Source\PSoC4/CapSense.c **** 
 900:.\Generated_Source\PSoC4/CapSense.c **** 
 901:.\Generated_Source\PSoC4/CapSense.c **** /*******************************************************************************
 902:.\Generated_Source\PSoC4/CapSense.c **** * Function Name: CapSense_ClearSensors
 903:.\Generated_Source\PSoC4/CapSense.c **** ********************************************************************************
 904:.\Generated_Source\PSoC4/CapSense.c **** *
 905:.\Generated_Source\PSoC4/CapSense.c **** * Summary:
 906:.\Generated_Source\PSoC4/CapSense.c **** *  Resets all the sensors to the non-sampling state by sequentially disconnecting
 907:.\Generated_Source\PSoC4/CapSense.c **** *  all the sensors from Analog MUX Bus and putting them to an inactive state.
 908:.\Generated_Source\PSoC4/CapSense.c **** *
 909:.\Generated_Source\PSoC4/CapSense.c **** * Parameters:
 910:.\Generated_Source\PSoC4/CapSense.c **** *  None
 911:.\Generated_Source\PSoC4/CapSense.c **** *
 912:.\Generated_Source\PSoC4/CapSense.c **** * Return:
 913:.\Generated_Source\PSoC4/CapSense.c **** *  None
ARM GAS  C:\Users\ALEXAN~1\AppData\Local\Temp\cckq0yk2.s 			page 23


 914:.\Generated_Source\PSoC4/CapSense.c **** *
 915:.\Generated_Source\PSoC4/CapSense.c **** * Global Variables:
 916:.\Generated_Source\PSoC4/CapSense.c **** *  None
 917:.\Generated_Source\PSoC4/CapSense.c **** *
 918:.\Generated_Source\PSoC4/CapSense.c **** * Side Effects: 
 919:.\Generated_Source\PSoC4/CapSense.c **** *  None
 920:.\Generated_Source\PSoC4/CapSense.c **** *
 921:.\Generated_Source\PSoC4/CapSense.c **** *******************************************************************************/
 922:.\Generated_Source\PSoC4/CapSense.c **** void CapSense_ClearSensors(void)
 923:.\Generated_Source\PSoC4/CapSense.c **** {
 924:.\Generated_Source\PSoC4/CapSense.c **** 	uint32 snsIndex;
 925:.\Generated_Source\PSoC4/CapSense.c **** 	
 926:.\Generated_Source\PSoC4/CapSense.c ****     for (snsIndex = 0u; snsIndex < CapSense_TOTAL_SENSOR_COUNT; snsIndex++)
 927:.\Generated_Source\PSoC4/CapSense.c ****     {
 928:.\Generated_Source\PSoC4/CapSense.c ****         CapSense_DisableScanSlot(snsIndex);
 929:.\Generated_Source\PSoC4/CapSense.c ****     }
 930:.\Generated_Source\PSoC4/CapSense.c **** }
 931:.\Generated_Source\PSoC4/CapSense.c **** 
 932:.\Generated_Source\PSoC4/CapSense.c **** 
 933:.\Generated_Source\PSoC4/CapSense.c **** #if (CapSense_IS_COMPLEX_SCANSLOTS)
 934:.\Generated_Source\PSoC4/CapSense.c ****     /*******************************************************************************
 935:.\Generated_Source\PSoC4/CapSense.c ****     * Function Name: CapSense_EnableScanSlot
 936:.\Generated_Source\PSoC4/CapSense.c ****     ********************************************************************************
 937:.\Generated_Source\PSoC4/CapSense.c ****     *
 938:.\Generated_Source\PSoC4/CapSense.c ****     * Summary:
 939:.\Generated_Source\PSoC4/CapSense.c ****     *  Configures the selected slot to measure during the next measurement 
 940:.\Generated_Source\PSoC4/CapSense.c ****     *  cycle. The corresponding pin/pins are set to Analog High-Z mode and 
 941:.\Generated_Source\PSoC4/CapSense.c ****     *  connected to the Analog Mux Bus. This also enables the comparator function.
 942:.\Generated_Source\PSoC4/CapSense.c ****     *
 943:.\Generated_Source\PSoC4/CapSense.c ****     * Parameters:
 944:.\Generated_Source\PSoC4/CapSense.c ****     *  slot:  Slot number.
 945:.\Generated_Source\PSoC4/CapSense.c ****     *
 946:.\Generated_Source\PSoC4/CapSense.c ****     * Return:
 947:.\Generated_Source\PSoC4/CapSense.c ****     *  None
 948:.\Generated_Source\PSoC4/CapSense.c ****     *
 949:.\Generated_Source\PSoC4/CapSense.c ****     * Global Constants:
 950:.\Generated_Source\PSoC4/CapSense.c ****     *  CapSense_portTable[]  - used to store the port number that pin 
 951:.\Generated_Source\PSoC4/CapSense.c ****     *  belongs to for each sensor.
 952:.\Generated_Source\PSoC4/CapSense.c ****     *  CapSense_maskTable[]  - used to store the pin within the port for 
 953:.\Generated_Source\PSoC4/CapSense.c ****     *  each sensor.
 954:.\Generated_Source\PSoC4/CapSense.c ****     *  CapSense_indexTable[] - used to store indexes of complex sensors.
 955:.\Generated_Source\PSoC4/CapSense.c ****     *  The offset and position in this array are stored in a port and mask table for 
 956:.\Generated_Source\PSoC4/CapSense.c ****     *  complex sensors.
 957:.\Generated_Source\PSoC4/CapSense.c ****     *  Bit 7 (msb) is used to define the sensor type: single or complex.
 958:.\Generated_Source\PSoC4/CapSense.c ****     *
 959:.\Generated_Source\PSoC4/CapSense.c **** 	* Side Effects: 
 960:.\Generated_Source\PSoC4/CapSense.c **** 	*  None
 961:.\Generated_Source\PSoC4/CapSense.c **** 	*
 962:.\Generated_Source\PSoC4/CapSense.c ****     *******************************************************************************/
 963:.\Generated_Source\PSoC4/CapSense.c ****     void CapSense_EnableScanSlot(uint32 slot)
 964:.\Generated_Source\PSoC4/CapSense.c ****     {
 965:.\Generated_Source\PSoC4/CapSense.c ****         uint8 j;
 966:.\Generated_Source\PSoC4/CapSense.c ****         uint8 snsNumber;
 967:.\Generated_Source\PSoC4/CapSense.c ****         const uint8 *index;
 968:.\Generated_Source\PSoC4/CapSense.c ****         /* Read sensor type: single or complex */
 969:.\Generated_Source\PSoC4/CapSense.c ****         uint8 snsType = CapSense_portTable[slot];
 970:.\Generated_Source\PSoC4/CapSense.c **** 
ARM GAS  C:\Users\ALEXAN~1\AppData\Local\Temp\cckq0yk2.s 			page 24


 971:.\Generated_Source\PSoC4/CapSense.c ****         /* Check if sensor is complex */
 972:.\Generated_Source\PSoC4/CapSense.c ****         if ((snsType & CapSense_COMPLEX_SS_FLAG) == 0u)
 973:.\Generated_Source\PSoC4/CapSense.c ****         {
 974:.\Generated_Source\PSoC4/CapSense.c ****             /* Enable sensor (single) */
 975:.\Generated_Source\PSoC4/CapSense.c ****             CapSense_EnableSensor(slot);
 976:.\Generated_Source\PSoC4/CapSense.c ****         }
 977:.\Generated_Source\PSoC4/CapSense.c ****         else
 978:.\Generated_Source\PSoC4/CapSense.c ****         {
 979:.\Generated_Source\PSoC4/CapSense.c ****             /* Enable complex sensor */
 980:.\Generated_Source\PSoC4/CapSense.c ****             snsType &= ~CapSense_COMPLEX_SS_FLAG;
 981:.\Generated_Source\PSoC4/CapSense.c ****             index = &CapSense_indexTable[snsType];
 982:.\Generated_Source\PSoC4/CapSense.c ****             snsNumber = CapSense_maskTable[slot];
 983:.\Generated_Source\PSoC4/CapSense.c ****                         
 984:.\Generated_Source\PSoC4/CapSense.c ****             for (j = 0u; j < snsNumber; j++)
 985:.\Generated_Source\PSoC4/CapSense.c ****             {
 986:.\Generated_Source\PSoC4/CapSense.c ****                 CapSense_EnableSensor(index[j]);
 987:.\Generated_Source\PSoC4/CapSense.c ****             }
 988:.\Generated_Source\PSoC4/CapSense.c ****         }
 989:.\Generated_Source\PSoC4/CapSense.c ****     }
 990:.\Generated_Source\PSoC4/CapSense.c ****     
 991:.\Generated_Source\PSoC4/CapSense.c ****     
 992:.\Generated_Source\PSoC4/CapSense.c ****     /*******************************************************************************
 993:.\Generated_Source\PSoC4/CapSense.c ****     * Function Name: CapSense_DisableScanSlot
 994:.\Generated_Source\PSoC4/CapSense.c ****     ********************************************************************************
 995:.\Generated_Source\PSoC4/CapSense.c ****     *
 996:.\Generated_Source\PSoC4/CapSense.c ****     * Summary:
 997:.\Generated_Source\PSoC4/CapSense.c ****     *  Disables the selected slot. The corresponding pin/pins is/are disconnected 
 998:.\Generated_Source\PSoC4/CapSense.c ****     *  from the Analog Mux Bus and connected to GND, High_Z or Shield electrode.
 999:.\Generated_Source\PSoC4/CapSense.c ****     *
1000:.\Generated_Source\PSoC4/CapSense.c ****     * Parameters:
1001:.\Generated_Source\PSoC4/CapSense.c ****     *  slot:  Slot number.
1002:.\Generated_Source\PSoC4/CapSense.c ****     *
1003:.\Generated_Source\PSoC4/CapSense.c ****     * Return:
1004:.\Generated_Source\PSoC4/CapSense.c ****     *  None
1005:.\Generated_Source\PSoC4/CapSense.c ****     *
1006:.\Generated_Source\PSoC4/CapSense.c ****     * Global Variables:
1007:.\Generated_Source\PSoC4/CapSense.c ****     *  CapSense_portTable[]  - used to store the port number that pin 
1008:.\Generated_Source\PSoC4/CapSense.c ****     *  belongs to for each sensor.
1009:.\Generated_Source\PSoC4/CapSense.c ****     *  CapSense_maskTable[]  - used to store the pin within the port for 
1010:.\Generated_Source\PSoC4/CapSense.c ****     *  each sensor.
1011:.\Generated_Source\PSoC4/CapSense.c ****     *  CapSense_indexTable[] - used to store indexes of complex sensors.
1012:.\Generated_Source\PSoC4/CapSense.c ****     *  The offset and position in this array are stored in a port and mask table for 
1013:.\Generated_Source\PSoC4/CapSense.c ****     *  complex sensors.
1014:.\Generated_Source\PSoC4/CapSense.c ****     *  7bit(msb) is used to define the sensor type: single or complex.
1015:.\Generated_Source\PSoC4/CapSense.c ****     *
1016:.\Generated_Source\PSoC4/CapSense.c **** 	* Side Effects: 
1017:.\Generated_Source\PSoC4/CapSense.c **** 	*  None
1018:.\Generated_Source\PSoC4/CapSense.c **** 	*
1019:.\Generated_Source\PSoC4/CapSense.c ****     *******************************************************************************/
1020:.\Generated_Source\PSoC4/CapSense.c ****     void CapSense_DisableScanSlot(uint32 slot)
1021:.\Generated_Source\PSoC4/CapSense.c ****     {
1022:.\Generated_Source\PSoC4/CapSense.c ****         uint8 j;
1023:.\Generated_Source\PSoC4/CapSense.c ****         uint8 snsNumber;
1024:.\Generated_Source\PSoC4/CapSense.c ****         const uint8 *index;
1025:.\Generated_Source\PSoC4/CapSense.c **** 
1026:.\Generated_Source\PSoC4/CapSense.c ****         /* Read sensor type: single or complex */
1027:.\Generated_Source\PSoC4/CapSense.c ****         uint8 snsType = CapSense_portTable[slot];
ARM GAS  C:\Users\ALEXAN~1\AppData\Local\Temp\cckq0yk2.s 			page 25


1028:.\Generated_Source\PSoC4/CapSense.c ****         
1029:.\Generated_Source\PSoC4/CapSense.c ****         /* Check if sensor is complex */
1030:.\Generated_Source\PSoC4/CapSense.c ****         if ((snsType & CapSense_COMPLEX_SS_FLAG) == 0u)
1031:.\Generated_Source\PSoC4/CapSense.c ****         {
1032:.\Generated_Source\PSoC4/CapSense.c ****             /* Disable sensor (single) */
1033:.\Generated_Source\PSoC4/CapSense.c ****             CapSense_DisableSensor(slot);
1034:.\Generated_Source\PSoC4/CapSense.c ****         }
1035:.\Generated_Source\PSoC4/CapSense.c ****         else
1036:.\Generated_Source\PSoC4/CapSense.c ****         {
1037:.\Generated_Source\PSoC4/CapSense.c ****             /* Disable complex sensor */
1038:.\Generated_Source\PSoC4/CapSense.c ****             snsType &= ~CapSense_COMPLEX_SS_FLAG;
1039:.\Generated_Source\PSoC4/CapSense.c ****             index = &CapSense_indexTable[snsType];
1040:.\Generated_Source\PSoC4/CapSense.c ****             snsNumber = CapSense_maskTable[slot];
1041:.\Generated_Source\PSoC4/CapSense.c ****                         
1042:.\Generated_Source\PSoC4/CapSense.c ****             for (j=0; j < snsNumber; j++)
1043:.\Generated_Source\PSoC4/CapSense.c ****             {
1044:.\Generated_Source\PSoC4/CapSense.c ****                 CapSense_DisableSensor(index[j]);
1045:.\Generated_Source\PSoC4/CapSense.c ****             }
1046:.\Generated_Source\PSoC4/CapSense.c ****         } 
1047:.\Generated_Source\PSoC4/CapSense.c ****     }
1048:.\Generated_Source\PSoC4/CapSense.c **** #endif  /* CapSense_IS_COMPLEX_SCANSLOTS */
1049:.\Generated_Source\PSoC4/CapSense.c **** 
1050:.\Generated_Source\PSoC4/CapSense.c **** 
1051:.\Generated_Source\PSoC4/CapSense.c **** /*******************************************************************************
1052:.\Generated_Source\PSoC4/CapSense.c **** * Function Name: CapSense_EnableSensor
1053:.\Generated_Source\PSoC4/CapSense.c **** ********************************************************************************
1054:.\Generated_Source\PSoC4/CapSense.c **** *
1055:.\Generated_Source\PSoC4/CapSense.c **** * Summary:
1056:.\Generated_Source\PSoC4/CapSense.c **** *  Configures the selected sensor to measure during the next measurement cycle.
1057:.\Generated_Source\PSoC4/CapSense.c **** *  The corresponding pins are set to Analog High-Z mode and connected to the
1058:.\Generated_Source\PSoC4/CapSense.c **** *  Analog Mux Bus. This also enables the comparator function.
1059:.\Generated_Source\PSoC4/CapSense.c **** *
1060:.\Generated_Source\PSoC4/CapSense.c **** * Parameters:
1061:.\Generated_Source\PSoC4/CapSense.c **** *  sensor:  Sensor number.
1062:.\Generated_Source\PSoC4/CapSense.c **** *
1063:.\Generated_Source\PSoC4/CapSense.c **** * Return:
1064:.\Generated_Source\PSoC4/CapSense.c **** *  None
1065:.\Generated_Source\PSoC4/CapSense.c **** *
1066:.\Generated_Source\PSoC4/CapSense.c **** * Global Variables:
1067:.\Generated_Source\PSoC4/CapSense.c **** *  CapSense_portTable[] - used to store the port number that pin 
1068:.\Generated_Source\PSoC4/CapSense.c **** *  belongs to for each sensor.
1069:.\Generated_Source\PSoC4/CapSense.c **** *  CapSense_pinShiftTbl[] - used to store position of pin that 
1070:.\Generated_Source\PSoC4/CapSense.c **** *  configured as sensor in port. 
1071:.\Generated_Source\PSoC4/CapSense.c **** *  CapSense_prtSelTbl[] - Contains pointers to the HSIOM 
1072:.\Generated_Source\PSoC4/CapSense.c **** *  registers for each port. 
1073:.\Generated_Source\PSoC4/CapSense.c **** *  CapSense_PrtCfgTb[] - Contains pointers to the port config 
1074:.\Generated_Source\PSoC4/CapSense.c **** *  registers for each port.
1075:.\Generated_Source\PSoC4/CapSense.c **** *
1076:.\Generated_Source\PSoC4/CapSense.c **** * Side Effects: 
1077:.\Generated_Source\PSoC4/CapSense.c **** *  None
1078:.\Generated_Source\PSoC4/CapSense.c **** *
1079:.\Generated_Source\PSoC4/CapSense.c **** *******************************************************************************/
1080:.\Generated_Source\PSoC4/CapSense.c **** void CapSense_EnableSensor(uint32 sensor)
1081:.\Generated_Source\PSoC4/CapSense.c **** {
 342              		.loc 1 1081 0
 343              		.cfi_startproc
 344              	.LVL34:
ARM GAS  C:\Users\ALEXAN~1\AppData\Local\Temp\cckq0yk2.s 			page 26


 345 0000 F8B5     		push	{r3, r4, r5, r6, r7, lr}
 346              		.cfi_def_cfa_offset 24
 347              		.cfi_offset 3, -24
 348              		.cfi_offset 4, -20
 349              		.cfi_offset 5, -16
 350              		.cfi_offset 6, -12
 351              		.cfi_offset 7, -8
 352              		.cfi_offset 14, -4
1082:.\Generated_Source\PSoC4/CapSense.c **** 	uint8  pinModeShift;
1083:.\Generated_Source\PSoC4/CapSense.c ****     uint8  pinHSIOMShift;
1084:.\Generated_Source\PSoC4/CapSense.c **** 	uint8 interruptState;
1085:.\Generated_Source\PSoC4/CapSense.c **** 	uint32 newRegisterValue;
1086:.\Generated_Source\PSoC4/CapSense.c ****     uint32 port;
1087:.\Generated_Source\PSoC4/CapSense.c **** 	
1088:.\Generated_Source\PSoC4/CapSense.c **** 	port = (uint32) CapSense_portTable[sensor];
 353              		.loc 1 1088 0
 354 0002 104C     		ldr	r4, .L23
 355 0004 275C     		ldrb	r7, [r4, r0]
 356              	.LVL35:
1089:.\Generated_Source\PSoC4/CapSense.c ****     pinModeShift = CapSense_pinShiftTbl[sensor]  * CapSense_PC_PIN_CFG_SIZE;
 357              		.loc 1 1089 0
 358 0006 2018     		add	r0, r4, r0
 359              	.LVL36:
 360 0008 037A     		ldrb	r3, [r0, #8]
 361 000a 5E00     		lsl	r6, r3, #1
 362 000c 9E19     		add	r6, r3, r6
 363 000e F6B2     		uxtb	r6, r6
 364              	.LVL37:
1090:.\Generated_Source\PSoC4/CapSense.c ****     pinHSIOMShift = CapSense_pinShiftTbl[sensor] * CapSense_HSIOM_PIN_CFG_SIZE;
 365              		.loc 1 1090 0
 366 0010 9B00     		lsl	r3, r3, #2
 367 0012 DDB2     		uxtb	r5, r3
 368              	.LVL38:
1091:.\Generated_Source\PSoC4/CapSense.c **** 
1092:.\Generated_Source\PSoC4/CapSense.c **** 	interruptState = CyEnterCriticalSection();
 369              		.loc 1 1092 0
 370 0014 FFF7FEFF 		bl	CyEnterCriticalSection
 371              	.LVL39:
1093:.\Generated_Source\PSoC4/CapSense.c **** 	
1094:.\Generated_Source\PSoC4/CapSense.c **** 	newRegisterValue = *CapSense_prtSelTbl[port];
 372              		.loc 1 1094 0
 373 0018 BF00     		lsl	r7, r7, #2
 374              	.LVL40:
 375 001a E419     		add	r4, r4, r7
 376              	.LVL41:
 377 001c 2269     		ldr	r2, [r4, #16]
 378 001e 1168     		ldr	r1, [r2]
 379              	.LVL42:
1095:.\Generated_Source\PSoC4/CapSense.c **** 	newRegisterValue &= ~(CapSense_CSD_HSIOM_MASK << pinHSIOMShift);
 380              		.loc 1 1095 0
 381 0020 0F23     		mov	r3, #15
 382 0022 AB40     		lsl	r3, r3, r5
 383 0024 9943     		bic	r1, r3
 384              	.LVL43:
1096:.\Generated_Source\PSoC4/CapSense.c **** 	newRegisterValue |= (uint32)((uint32)CapSense_CSD_SENSE_PORT_MODE << pinHSIOMShift);
 385              		.loc 1 1096 0
 386 0026 0423     		mov	r3, #4
ARM GAS  C:\Users\ALEXAN~1\AppData\Local\Temp\cckq0yk2.s 			page 27


 387 0028 AB40     		lsl	r3, r3, r5
 388 002a 1D1C     		mov	r5, r3
 389              	.LVL44:
 390 002c 0D43     		orr	r5, r1
 391              	.LVL45:
1097:.\Generated_Source\PSoC4/CapSense.c ****    
1098:.\Generated_Source\PSoC4/CapSense.c ****     *CapSense_prtCfgTbl[port] &= (uint32)~((uint32)CapSense_CSD_PIN_MODE_MASK << pinModeShift);
 392              		.loc 1 1098 0
 393 002e A16A     		ldr	r1, [r4, #40]
 394 0030 0B68     		ldr	r3, [r1]
 395 0032 0724     		mov	r4, #7
 396 0034 B440     		lsl	r4, r4, r6
 397 0036 A343     		bic	r3, r4
 398 0038 0B60     		str	r3, [r1]
1099:.\Generated_Source\PSoC4/CapSense.c ****     *CapSense_prtSelTbl[port] = newRegisterValue;
 399              		.loc 1 1099 0
 400 003a 1560     		str	r5, [r2]
1100:.\Generated_Source\PSoC4/CapSense.c **** 	
1101:.\Generated_Source\PSoC4/CapSense.c **** 	CyExitCriticalSection(interruptState);
 401              		.loc 1 1101 0
 402 003c FFF7FEFF 		bl	CyExitCriticalSection
 403              	.LVL46:
1102:.\Generated_Source\PSoC4/CapSense.c **** }
 404              		.loc 1 1102 0
 405              		@ sp needed
 406              	.LVL47:
 407              	.LVL48:
 408 0040 F8BD     		pop	{r3, r4, r5, r6, r7, pc}
 409              	.L24:
 410 0042 C046     		.align	2
 411              	.L23:
 412 0044 00000000 		.word	.LANCHOR1
 413              		.cfi_endproc
 414              	.LFE49:
 415              		.size	CapSense_EnableSensor, .-CapSense_EnableSensor
 416              		.section	.text.CapSense_DisableSensor,"ax",%progbits
 417              		.align	2
 418              		.global	CapSense_DisableSensor
 419              		.code	16
 420              		.thumb_func
 421              		.type	CapSense_DisableSensor, %function
 422              	CapSense_DisableSensor:
 423              	.LFB50:
1103:.\Generated_Source\PSoC4/CapSense.c **** 
1104:.\Generated_Source\PSoC4/CapSense.c **** 
1105:.\Generated_Source\PSoC4/CapSense.c **** /*******************************************************************************
1106:.\Generated_Source\PSoC4/CapSense.c **** * Function Name: CapSense_DisableSensor
1107:.\Generated_Source\PSoC4/CapSense.c **** ********************************************************************************
1108:.\Generated_Source\PSoC4/CapSense.c **** *
1109:.\Generated_Source\PSoC4/CapSense.c **** * Summary:
1110:.\Generated_Source\PSoC4/CapSense.c **** *  Disables the selected sensor. The corresponding pin is disconnected from the
1111:.\Generated_Source\PSoC4/CapSense.c **** *  Analog Mux Bus and connected to GND, High_Z or Shield electrode.
1112:.\Generated_Source\PSoC4/CapSense.c **** *
1113:.\Generated_Source\PSoC4/CapSense.c **** * Parameters:
1114:.\Generated_Source\PSoC4/CapSense.c **** *  sensor:  Sensor number
1115:.\Generated_Source\PSoC4/CapSense.c **** *
1116:.\Generated_Source\PSoC4/CapSense.c **** * Return:
ARM GAS  C:\Users\ALEXAN~1\AppData\Local\Temp\cckq0yk2.s 			page 28


1117:.\Generated_Source\PSoC4/CapSense.c **** *  None
1118:.\Generated_Source\PSoC4/CapSense.c **** *
1119:.\Generated_Source\PSoC4/CapSense.c **** * Global Variables:
1120:.\Generated_Source\PSoC4/CapSense.c **** *  CapSense_portTable[] - used to store the port number that pin 
1121:.\Generated_Source\PSoC4/CapSense.c **** *  belongs to for each sensor.
1122:.\Generated_Source\PSoC4/CapSense.c **** *  CapSense_pinShiftTbl[] - used to store position of pin that 
1123:.\Generated_Source\PSoC4/CapSense.c **** *  configured as a sensor in the port. 
1124:.\Generated_Source\PSoC4/CapSense.c **** *  CapSense_prtSelTbl[] - Contains pointers to the HSIOM 
1125:.\Generated_Source\PSoC4/CapSense.c **** *  registers for each port. 
1126:.\Generated_Source\PSoC4/CapSense.c **** *  CapSense_PrtCfgTb[] - Contains pointers to the port config 
1127:.\Generated_Source\PSoC4/CapSense.c **** *  registers for each port.
1128:.\Generated_Source\PSoC4/CapSense.c **** *
1129:.\Generated_Source\PSoC4/CapSense.c **** * Side Effects: 
1130:.\Generated_Source\PSoC4/CapSense.c **** *  None
1131:.\Generated_Source\PSoC4/CapSense.c **** *
1132:.\Generated_Source\PSoC4/CapSense.c **** *******************************************************************************/
1133:.\Generated_Source\PSoC4/CapSense.c **** void CapSense_DisableSensor(uint32 sensor)
1134:.\Generated_Source\PSoC4/CapSense.c **** {
 424              		.loc 1 1134 0
 425              		.cfi_startproc
 426              	.LVL49:
 427 0000 F8B5     		push	{r3, r4, r5, r6, r7, lr}
 428              		.cfi_def_cfa_offset 24
 429              		.cfi_offset 3, -24
 430              		.cfi_offset 4, -20
 431              		.cfi_offset 5, -16
 432              		.cfi_offset 6, -12
 433              		.cfi_offset 7, -8
 434              		.cfi_offset 14, -4
1135:.\Generated_Source\PSoC4/CapSense.c ****     uint8 interruptState;
1136:.\Generated_Source\PSoC4/CapSense.c **** 	uint32 newRegisterValue;
1137:.\Generated_Source\PSoC4/CapSense.c **** 	
1138:.\Generated_Source\PSoC4/CapSense.c ****     uint32 port = (uint32) CapSense_portTable[sensor];
 435              		.loc 1 1138 0
 436 0002 194B     		ldr	r3, .L30
 437 0004 1D5C     		ldrb	r5, [r3, r0]
 438              	.LVL50:
1139:.\Generated_Source\PSoC4/CapSense.c ****     uint8  pinHSIOMShift = CapSense_pinShiftTbl[sensor] * CapSense_HSIOM_PIN_CFG_SIZE;
 439              		.loc 1 1139 0
 440 0006 1A18     		add	r2, r3, r0
 441 0008 147A     		ldrb	r4, [r2, #8]
 442 000a A700     		lsl	r7, r4, #2
 443 000c FFB2     		uxtb	r7, r7
 444              	.LVL51:
1140:.\Generated_Source\PSoC4/CapSense.c ****     uint8  pinModeShift = CapSense_pinShiftTbl[sensor]  * CapSense_PC_PIN_CFG_SIZE;
 445              		.loc 1 1140 0
 446 000e 6600     		lsl	r6, r4, #1
 447 0010 A619     		add	r6, r4, r6
 448 0012 F6B2     		uxtb	r6, r6
 449              	.LVL52:
1141:.\Generated_Source\PSoC4/CapSense.c **** 
1142:.\Generated_Source\PSoC4/CapSense.c **** 	uint32 inactiveConnect = CapSense_SNS_HIZANALOG_CONNECT;
1143:.\Generated_Source\PSoC4/CapSense.c **** 	uint32 sensorState = CapSense_unscannedSnsDriveMode[sensor];
 450              		.loc 1 1143 0
 451 0014 154A     		ldr	r2, .L30+4
 452 0016 125C     		ldrb	r2, [r2, r0]
 453              	.LVL53:
ARM GAS  C:\Users\ALEXAN~1\AppData\Local\Temp\cckq0yk2.s 			page 29


1144:.\Generated_Source\PSoC4/CapSense.c **** 
1145:.\Generated_Source\PSoC4/CapSense.c ****     *CapSense_prtSelTbl[port] &= ~(CapSense_CSD_HSIOM_MASK << pinHSIOMShift);
 454              		.loc 1 1145 0
 455 0018 A900     		lsl	r1, r5, #2
 456 001a 5B18     		add	r3, r3, r1
 457 001c 1B69     		ldr	r3, [r3, #16]
 458 001e 1968     		ldr	r1, [r3]
 459 0020 0F20     		mov	r0, #15
 460              	.LVL54:
 461 0022 B840     		lsl	r0, r0, r7
 462 0024 8143     		bic	r1, r0
 463 0026 1960     		str	r1, [r3]
1146:.\Generated_Source\PSoC4/CapSense.c **** 
1147:.\Generated_Source\PSoC4/CapSense.c **** 	#if(CapSense_IS_SHIELD_ENABLE != 0)
1148:.\Generated_Source\PSoC4/CapSense.c **** 	if(sensorState != (uint32)CapSense__SHIELD)
1149:.\Generated_Source\PSoC4/CapSense.c **** 	{
1150:.\Generated_Source\PSoC4/CapSense.c **** 	#else
1151:.\Generated_Source\PSoC4/CapSense.c **** 	    /* Connected to Ground if shield is disabled */
1152:.\Generated_Source\PSoC4/CapSense.c **** 	    if(sensorState == (uint32)CapSense__SHIELD)
 464              		.loc 1 1152 0
 465 0028 022A     		cmp	r2, #2
 466 002a 00D1     		bne	.L26
1153:.\Generated_Source\PSoC4/CapSense.c **** 		{
1154:.\Generated_Source\PSoC4/CapSense.c **** 			sensorState = (uint32)CapSense__GROUND;
 467              		.loc 1 1154 0
 468 002c 0022     		mov	r2, #0
 469              	.LVL55:
 470              	.L26:
1155:.\Generated_Source\PSoC4/CapSense.c **** 		}
1156:.\Generated_Source\PSoC4/CapSense.c **** 	#endif /* (CapSense_IS_SHIELD_ENABLE) */
1157:.\Generated_Source\PSoC4/CapSense.c **** 	    if(sensorState != (uint32)CapSense__HIZ_ANALOG)
 471              		.loc 1 1157 0
 472 002e 012A     		cmp	r2, #1
 473 0030 01D1     		bne	.L29
1142:.\Generated_Source\PSoC4/CapSense.c **** 	uint32 inactiveConnect = CapSense_SNS_HIZANALOG_CONNECT;
 474              		.loc 1 1142 0
 475 0032 0027     		mov	r7, #0
 476              	.LVL56:
 477 0034 00E0     		b	.L27
 478              	.L29:
1158:.\Generated_Source\PSoC4/CapSense.c **** 		{   
1159:.\Generated_Source\PSoC4/CapSense.c **** 		    /* Connected to Ground */
1160:.\Generated_Source\PSoC4/CapSense.c **** 		    inactiveConnect = (uint32)CapSense_SNS_GROUND_CONNECT;
 479              		.loc 1 1160 0
 480 0036 0627     		mov	r7, #6
 481              	.L27:
 482              	.LVL57:
1161:.\Generated_Source\PSoC4/CapSense.c **** 		}
1162:.\Generated_Source\PSoC4/CapSense.c **** 		
1163:.\Generated_Source\PSoC4/CapSense.c ****         interruptState = CyEnterCriticalSection();
 483              		.loc 1 1163 0
 484 0038 FFF7FEFF 		bl	CyEnterCriticalSection
 485              	.LVL58:
1164:.\Generated_Source\PSoC4/CapSense.c **** 
1165:.\Generated_Source\PSoC4/CapSense.c ****         /* Set drive mode */
1166:.\Generated_Source\PSoC4/CapSense.c ****     	newRegisterValue = *CapSense_prtCfgTbl[port];
 486              		.loc 1 1166 0
ARM GAS  C:\Users\ALEXAN~1\AppData\Local\Temp\cckq0yk2.s 			page 30


 487 003c AD00     		lsl	r5, r5, #2
 488              	.LVL59:
 489 003e 0A4B     		ldr	r3, .L30
 490              	.LVL60:
 491 0040 5D19     		add	r5, r3, r5
 492 0042 AB6A     		ldr	r3, [r5, #40]
 493              	.LVL61:
 494 0044 1A68     		ldr	r2, [r3]
 495              	.LVL62:
1167:.\Generated_Source\PSoC4/CapSense.c ****     	newRegisterValue &= ~(CapSense_CSD_PIN_MODE_MASK << pinModeShift);
 496              		.loc 1 1167 0
 497 0046 0721     		mov	r1, #7
 498 0048 B140     		lsl	r1, r1, r6
 499 004a 8A43     		bic	r2, r1
 500              	.LVL63:
1168:.\Generated_Source\PSoC4/CapSense.c ****     	newRegisterValue |=  (uint32)(inactiveConnect << pinModeShift);
 501              		.loc 1 1168 0
 502 004c B740     		lsl	r7, r7, r6
 503              	.LVL64:
 504 004e 3E1C     		mov	r6, r7
 505              	.LVL65:
 506 0050 1643     		orr	r6, r2
 507              	.LVL66:
1169:.\Generated_Source\PSoC4/CapSense.c ****         *CapSense_prtCfgTbl[port] =  newRegisterValue;
 508              		.loc 1 1169 0
 509 0052 1E60     		str	r6, [r3]
1170:.\Generated_Source\PSoC4/CapSense.c ****         
1171:.\Generated_Source\PSoC4/CapSense.c ****         CyExitCriticalSection(interruptState);
 510              		.loc 1 1171 0
 511 0054 FFF7FEFF 		bl	CyExitCriticalSection
 512              	.LVL67:
1172:.\Generated_Source\PSoC4/CapSense.c **** 
1173:.\Generated_Source\PSoC4/CapSense.c ****     	*CapSense_prtDRTbl[port]  &=  (uint32)~(uint32)((uint32)1u << CapSense_pinShiftTbl[sensor]); 
 513              		.loc 1 1173 0
 514 0058 2B6C     		ldr	r3, [r5, #64]
 515 005a 1A68     		ldr	r2, [r3]
 516 005c 0121     		mov	r1, #1
 517 005e A140     		lsl	r1, r1, r4
 518 0060 8A43     		bic	r2, r1
 519 0062 1A60     		str	r2, [r3]
1174:.\Generated_Source\PSoC4/CapSense.c **** 	#if(CapSense_IS_SHIELD_ENABLE != 0)
1175:.\Generated_Source\PSoC4/CapSense.c **** 	}
1176:.\Generated_Source\PSoC4/CapSense.c **** 	else
1177:.\Generated_Source\PSoC4/CapSense.c **** 	{
1178:.\Generated_Source\PSoC4/CapSense.c **** 		/* Connect to Shield */
1179:.\Generated_Source\PSoC4/CapSense.c **** 		*CapSense_prtSelTbl[port] |= (CapSense_CSD_SHIELD_PORT_MODE << pinHSIOMShift);
1180:.\Generated_Source\PSoC4/CapSense.c **** 	}
1181:.\Generated_Source\PSoC4/CapSense.c **** 	#endif /* (CapSense_IS_SHIELD_ENABLE) */
1182:.\Generated_Source\PSoC4/CapSense.c **** }
 520              		.loc 1 1182 0
 521              		@ sp needed
 522              	.LVL68:
 523              	.LVL69:
 524 0064 F8BD     		pop	{r3, r4, r5, r6, r7, pc}
 525              	.L31:
 526 0066 C046     		.align	2
 527              	.L30:
ARM GAS  C:\Users\ALEXAN~1\AppData\Local\Temp\cckq0yk2.s 			page 31


 528 0068 00000000 		.word	.LANCHOR1
 529 006c 00000000 		.word	CapSense_unscannedSnsDriveMode
 530              		.cfi_endproc
 531              	.LFE50:
 532              		.size	CapSense_DisableSensor, .-CapSense_DisableSensor
 533              		.section	.text.CapSense_ClearSensors,"ax",%progbits
 534              		.align	2
 535              		.global	CapSense_ClearSensors
 536              		.code	16
 537              		.thumb_func
 538              		.type	CapSense_ClearSensors, %function
 539              	CapSense_ClearSensors:
 540              	.LFB48:
 923:.\Generated_Source\PSoC4/CapSense.c **** {
 541              		.loc 1 923 0
 542              		.cfi_startproc
 543 0000 10B5     		push	{r4, lr}
 544              		.cfi_def_cfa_offset 8
 545              		.cfi_offset 4, -8
 546              		.cfi_offset 14, -4
 547              	.LVL70:
 926:.\Generated_Source\PSoC4/CapSense.c ****     for (snsIndex = 0u; snsIndex < CapSense_TOTAL_SENSOR_COUNT; snsIndex++)
 548              		.loc 1 926 0
 549 0002 0024     		mov	r4, #0
 550 0004 03E0     		b	.L33
 551              	.LVL71:
 552              	.L34:
 928:.\Generated_Source\PSoC4/CapSense.c ****         CapSense_DisableScanSlot(snsIndex);
 553              		.loc 1 928 0 discriminator 2
 554 0006 201C     		mov	r0, r4
 555 0008 FFF7FEFF 		bl	CapSense_DisableSensor
 556              	.LVL72:
 926:.\Generated_Source\PSoC4/CapSense.c ****     for (snsIndex = 0u; snsIndex < CapSense_TOTAL_SENSOR_COUNT; snsIndex++)
 557              		.loc 1 926 0 discriminator 2
 558 000c 0134     		add	r4, r4, #1
 559              	.LVL73:
 560              	.L33:
 926:.\Generated_Source\PSoC4/CapSense.c ****     for (snsIndex = 0u; snsIndex < CapSense_TOTAL_SENSOR_COUNT; snsIndex++)
 561              		.loc 1 926 0 is_stmt 0 discriminator 1
 562 000e 042C     		cmp	r4, #4
 563 0010 F9D9     		bls	.L34
 930:.\Generated_Source\PSoC4/CapSense.c **** }
 564              		.loc 1 930 0 is_stmt 1
 565              		@ sp needed
 566              	.LVL74:
 567 0012 10BD     		pop	{r4, pc}
 568              		.cfi_endproc
 569              	.LFE48:
 570              		.size	CapSense_ClearSensors, .-CapSense_ClearSensors
 571              		.section	.text.CapSense_SetPinDriveMode,"ax",%progbits
 572              		.align	2
 573              		.global	CapSense_SetPinDriveMode
 574              		.code	16
 575              		.thumb_func
 576              		.type	CapSense_SetPinDriveMode, %function
 577              	CapSense_SetPinDriveMode:
 578              	.LFB53:
ARM GAS  C:\Users\ALEXAN~1\AppData\Local\Temp\cckq0yk2.s 			page 32


1183:.\Generated_Source\PSoC4/CapSense.c **** 
1184:.\Generated_Source\PSoC4/CapSense.c **** 
1185:.\Generated_Source\PSoC4/CapSense.c **** /*******************************************************************************
1186:.\Generated_Source\PSoC4/CapSense.c **** * Function Name: CapSense_SetDriveModeAllPins
1187:.\Generated_Source\PSoC4/CapSense.c **** ********************************************************************************
1188:.\Generated_Source\PSoC4/CapSense.c **** *
1189:.\Generated_Source\PSoC4/CapSense.c **** * Summary:
1190:.\Generated_Source\PSoC4/CapSense.c **** * This API sets the drive mode of port pins used by the CapSense
1191:.\Generated_Source\PSoC4/CapSense.c **** * component (sensors, guard, shield, shield tank and Cmod) to drive the 
1192:.\Generated_Source\PSoC4/CapSense.c **** * mode specified by the argument.
1193:.\Generated_Source\PSoC4/CapSense.c **** *
1194:.\Generated_Source\PSoC4/CapSense.c **** * Parameters:
1195:.\Generated_Source\PSoC4/CapSense.c **** *  driveMode:  Drive mode definition.
1196:.\Generated_Source\PSoC4/CapSense.c **** *
1197:.\Generated_Source\PSoC4/CapSense.c **** * Return:
1198:.\Generated_Source\PSoC4/CapSense.c **** *  None
1199:.\Generated_Source\PSoC4/CapSense.c **** *
1200:.\Generated_Source\PSoC4/CapSense.c **** * Global Variables:
1201:.\Generated_Source\PSoC4/CapSense.c **** *  CapSense_portTable[] - used to store the port number that pin 
1202:.\Generated_Source\PSoC4/CapSense.c **** *  belongs to for each sensor.
1203:.\Generated_Source\PSoC4/CapSense.c **** *  CapSense_pinShiftTbl[] - used to store position of pin that 
1204:.\Generated_Source\PSoC4/CapSense.c **** *  configured as a sensor in the port. 
1205:.\Generated_Source\PSoC4/CapSense.c **** *
1206:.\Generated_Source\PSoC4/CapSense.c **** * Side Effects: 
1207:.\Generated_Source\PSoC4/CapSense.c **** *  This API shall be called only after CapSense component is stopped.
1208:.\Generated_Source\PSoC4/CapSense.c **** *
1209:.\Generated_Source\PSoC4/CapSense.c **** *******************************************************************************/
1210:.\Generated_Source\PSoC4/CapSense.c **** void CapSense_SetDriveModeAllPins(uint32 driveMode)
1211:.\Generated_Source\PSoC4/CapSense.c **** {
1212:.\Generated_Source\PSoC4/CapSense.c **** 	uint8 curSensor;
1213:.\Generated_Source\PSoC4/CapSense.c **** 	#if (CapSense_IS_COMPLEX_SCANSLOTS)
1214:.\Generated_Source\PSoC4/CapSense.c **** 		uint8 snsNumber;
1215:.\Generated_Source\PSoC4/CapSense.c **** 		uint8 snsType;
1216:.\Generated_Source\PSoC4/CapSense.c **** 	#endif  /* CapSense_IS_COMPLEX_SCANSLOTS */
1217:.\Generated_Source\PSoC4/CapSense.c **** 	uint32 prtNumberTmp;
1218:.\Generated_Source\PSoC4/CapSense.c **** 	uint32 pinNumberTmp;
1219:.\Generated_Source\PSoC4/CapSense.c **** 
1220:.\Generated_Source\PSoC4/CapSense.c **** 	for(curSensor = 0u; curSensor < CapSense_TOTAL_SENSOR_COUNT; curSensor++)
1221:.\Generated_Source\PSoC4/CapSense.c **** 	{	
1222:.\Generated_Source\PSoC4/CapSense.c **** 		#if (CapSense_IS_COMPLEX_SCANSLOTS)
1223:.\Generated_Source\PSoC4/CapSense.c **** 			/* Read sensor type: single or complex */
1224:.\Generated_Source\PSoC4/CapSense.c **** 			snsType = CapSense_portTable[curSensor];
1225:.\Generated_Source\PSoC4/CapSense.c **** 		
1226:.\Generated_Source\PSoC4/CapSense.c **** 			/* Check if sensor is complex */
1227:.\Generated_Source\PSoC4/CapSense.c **** 			if ((snsType & CapSense_COMPLEX_SS_FLAG) == 0u)
1228:.\Generated_Source\PSoC4/CapSense.c **** 			{
1229:.\Generated_Source\PSoC4/CapSense.c **** 				/* The sensor is not complex */
1230:.\Generated_Source\PSoC4/CapSense.c **** 				snsNumber = curSensor;
1231:.\Generated_Source\PSoC4/CapSense.c **** 			}
1232:.\Generated_Source\PSoC4/CapSense.c **** 			else
1233:.\Generated_Source\PSoC4/CapSense.c **** 			{
1234:.\Generated_Source\PSoC4/CapSense.c **** 				/* Get dedicated sensor ID of the complex sensor */
1235:.\Generated_Source\PSoC4/CapSense.c **** 				snsType &= ~CapSense_COMPLEX_SS_FLAG;
1236:.\Generated_Source\PSoC4/CapSense.c **** 				snsNumber = CapSense_indexTable[snsType];
1237:.\Generated_Source\PSoC4/CapSense.c **** 			}
1238:.\Generated_Source\PSoC4/CapSense.c **** 
1239:.\Generated_Source\PSoC4/CapSense.c **** 			prtNumberTmp = CapSense_portTable[snsNumber];
ARM GAS  C:\Users\ALEXAN~1\AppData\Local\Temp\cckq0yk2.s 			page 33


1240:.\Generated_Source\PSoC4/CapSense.c **** 			pinNumberTmp = CapSense_pinShiftTbl[snsNumber];
1241:.\Generated_Source\PSoC4/CapSense.c **** 		#else
1242:.\Generated_Source\PSoC4/CapSense.c **** 			prtNumberTmp = CapSense_portTable[curSensor];
1243:.\Generated_Source\PSoC4/CapSense.c **** 			pinNumberTmp = CapSense_pinShiftTbl[curSensor];
1244:.\Generated_Source\PSoC4/CapSense.c **** 		#endif  /* CapSense_IS_COMPLEX_SCANSLOTS */
1245:.\Generated_Source\PSoC4/CapSense.c **** 	
1246:.\Generated_Source\PSoC4/CapSense.c **** 		CapSense_SetPinDriveMode(driveMode, pinNumberTmp, prtNumberTmp);
1247:.\Generated_Source\PSoC4/CapSense.c **** 	}
1248:.\Generated_Source\PSoC4/CapSense.c **** 	
1249:.\Generated_Source\PSoC4/CapSense.c **** 	CapSense_SetPinDriveMode(driveMode, (uint32)CapSense_CMOD_PIN_NUMBER, (uint32)CapSense_CMOD_PRT_NU
1250:.\Generated_Source\PSoC4/CapSense.c **** 	
1251:.\Generated_Source\PSoC4/CapSense.c **** 	#if(0u != CapSense_CSH_TANK_ENABLE)
1252:.\Generated_Source\PSoC4/CapSense.c **** 		CapSense_SetPinDriveMode(driveMode, (uint32)CapSense_CTANK_PIN_NUMBER, (uint32)CapSense_CTANK_PRT
1253:.\Generated_Source\PSoC4/CapSense.c **** 	#endif /* (0u != CapSense_CSH_TANK_ENABLE) */	
1254:.\Generated_Source\PSoC4/CapSense.c **** 	
1255:.\Generated_Source\PSoC4/CapSense.c **** 	#if(0u != CapSense_IS_SHIELD_ENABLE)
1256:.\Generated_Source\PSoC4/CapSense.c **** 		CapSense_SetPinDriveMode(driveMode, (uint32)CapSense_SHIELD_PIN_NUMBER, (uint32)CapSense_SHIELD_P
1257:.\Generated_Source\PSoC4/CapSense.c **** 	#endif /* (0u != CapSense_IS_SHIELD_ENABLE) */	
1258:.\Generated_Source\PSoC4/CapSense.c **** }
1259:.\Generated_Source\PSoC4/CapSense.c **** 
1260:.\Generated_Source\PSoC4/CapSense.c **** 
1261:.\Generated_Source\PSoC4/CapSense.c **** /*******************************************************************************
1262:.\Generated_Source\PSoC4/CapSense.c **** * Function Name: CapSense_RestoreDriveModeAllPins
1263:.\Generated_Source\PSoC4/CapSense.c **** ********************************************************************************
1264:.\Generated_Source\PSoC4/CapSense.c **** *
1265:.\Generated_Source\PSoC4/CapSense.c **** * Summary:
1266:.\Generated_Source\PSoC4/CapSense.c **** *  This API restores the drive for all the CapSense port pins to the original
1267:.\Generated_Source\PSoC4/CapSense.c **** *  state.
1268:.\Generated_Source\PSoC4/CapSense.c **** *
1269:.\Generated_Source\PSoC4/CapSense.c **** * Parameters:
1270:.\Generated_Source\PSoC4/CapSense.c **** *  None
1271:.\Generated_Source\PSoC4/CapSense.c **** *
1272:.\Generated_Source\PSoC4/CapSense.c **** * Return:
1273:.\Generated_Source\PSoC4/CapSense.c **** *  None
1274:.\Generated_Source\PSoC4/CapSense.c **** *
1275:.\Generated_Source\PSoC4/CapSense.c **** * Global Variables:
1276:.\Generated_Source\PSoC4/CapSense.c **** *  CapSense_prtSelTbl[] - Contains pointers to the HSIOM 
1277:.\Generated_Source\PSoC4/CapSense.c **** *  registers for each port. 
1278:.\Generated_Source\PSoC4/CapSense.c **** *
1279:.\Generated_Source\PSoC4/CapSense.c **** * Side Effects: 
1280:.\Generated_Source\PSoC4/CapSense.c **** *  This API is called only after the CapSense component is stopped.
1281:.\Generated_Source\PSoC4/CapSense.c **** *
1282:.\Generated_Source\PSoC4/CapSense.c **** *******************************************************************************/
1283:.\Generated_Source\PSoC4/CapSense.c **** void CapSense_RestoreDriveModeAllPins(void)
1284:.\Generated_Source\PSoC4/CapSense.c **** {
1285:.\Generated_Source\PSoC4/CapSense.c **** 	uint32 newRegisterValue;
1286:.\Generated_Source\PSoC4/CapSense.c **** 	
1287:.\Generated_Source\PSoC4/CapSense.c **** 	CapSense_SetDriveModeAllPins(CY_SYS_PINS_DM_ALG_HIZ);
1288:.\Generated_Source\PSoC4/CapSense.c **** 	
1289:.\Generated_Source\PSoC4/CapSense.c **** 	newRegisterValue = CapSense_CMOD_CONNECTION_REG; 
1290:.\Generated_Source\PSoC4/CapSense.c ****     newRegisterValue &= ~(CapSense_CSD_CMOD_CONNECTION_MASK);
1291:.\Generated_Source\PSoC4/CapSense.c ****     newRegisterValue |= CapSense_CSD_CMOD_TO_AMUXBUS_A;
1292:.\Generated_Source\PSoC4/CapSense.c ****     CapSense_CMOD_CONNECTION_REG = newRegisterValue;
1293:.\Generated_Source\PSoC4/CapSense.c **** 	
1294:.\Generated_Source\PSoC4/CapSense.c **** 	#if(0u != CapSense_CSH_TANK_ENABLE)
1295:.\Generated_Source\PSoC4/CapSense.c **** 		newRegisterValue = CapSense_CTANK_CONNECTION_REG;
1296:.\Generated_Source\PSoC4/CapSense.c ****         newRegisterValue &= ~(CapSense_CSD_CTANK_CONNECTION_MASK);
ARM GAS  C:\Users\ALEXAN~1\AppData\Local\Temp\cckq0yk2.s 			page 34


1297:.\Generated_Source\PSoC4/CapSense.c **** 		newRegisterValue |= CapSense_CSD_CTANK_TO_AMUXBUS_B;
1298:.\Generated_Source\PSoC4/CapSense.c ****         CapSense_CTANK_CONNECTION_REG = newRegisterValue;
1299:.\Generated_Source\PSoC4/CapSense.c **** 	#endif/* (0u != CapSense_CSH_TANK_ENABLE) */
1300:.\Generated_Source\PSoC4/CapSense.c **** 	
1301:.\Generated_Source\PSoC4/CapSense.c **** 	#if(0u != CapSense_IS_SHIELD_ENABLE)
1302:.\Generated_Source\PSoC4/CapSense.c **** 		newRegisterValue = *CapSense_prtSelTbl[CapSense_SHIELD_PORT_NUMBER];
1303:.\Generated_Source\PSoC4/CapSense.c ****         newRegisterValue &= ~(CapSense_CSD_HSIOM_MASK << ((uint32)CapSense_SHIELD_PIN_NUMBER * CapS
1304:.\Generated_Source\PSoC4/CapSense.c ****         newRegisterValue |= (CapSense_CSD_SHIELD_PORT_MODE << ((uint32)CapSense_SHIELD_PIN_NUMBER *
1305:.\Generated_Source\PSoC4/CapSense.c ****         *CapSense_prtSelTbl[CapSense_SHIELD_PORT_NUMBER] = newRegisterValue;
1306:.\Generated_Source\PSoC4/CapSense.c **** 	#endif /* (0u != CapSense_IS_SHIELD_ENABLE) */	
1307:.\Generated_Source\PSoC4/CapSense.c **** }
1308:.\Generated_Source\PSoC4/CapSense.c **** 
1309:.\Generated_Source\PSoC4/CapSense.c **** 
1310:.\Generated_Source\PSoC4/CapSense.c **** /*******************************************************************************
1311:.\Generated_Source\PSoC4/CapSense.c **** * Function Name: CapSense_SetPinDriveMode
1312:.\Generated_Source\PSoC4/CapSense.c **** ********************************************************************************
1313:.\Generated_Source\PSoC4/CapSense.c **** *
1314:.\Generated_Source\PSoC4/CapSense.c **** * Summary:
1315:.\Generated_Source\PSoC4/CapSense.c **** * This API sets the drive mode for the appropriate port/pin.
1316:.\Generated_Source\PSoC4/CapSense.c **** *
1317:.\Generated_Source\PSoC4/CapSense.c **** * Parameters:
1318:.\Generated_Source\PSoC4/CapSense.c **** *  driveMode:  Drive mode definition.
1319:.\Generated_Source\PSoC4/CapSense.c **** *  portNumber: contains port number (0, 1, 2).
1320:.\Generated_Source\PSoC4/CapSense.c **** *  pinNumber: contains pin number (0, 1, 2, ... , 7).
1321:.\Generated_Source\PSoC4/CapSense.c **** *
1322:.\Generated_Source\PSoC4/CapSense.c **** * Return:
1323:.\Generated_Source\PSoC4/CapSense.c **** *  None
1324:.\Generated_Source\PSoC4/CapSense.c **** *
1325:.\Generated_Source\PSoC4/CapSense.c **** * Global Variables:
1326:.\Generated_Source\PSoC4/CapSense.c **** *  CapSense_prtSelTbl[] - Contains pointers to the HSIOM 
1327:.\Generated_Source\PSoC4/CapSense.c **** *  registers for each port. 
1328:.\Generated_Source\PSoC4/CapSense.c **** *  CapSense_prtCfgTb[] - Contains pointers to the port config 
1329:.\Generated_Source\PSoC4/CapSense.c **** *  registers for each port.
1330:.\Generated_Source\PSoC4/CapSense.c **** *
1331:.\Generated_Source\PSoC4/CapSense.c **** * Side Effects: 
1332:.\Generated_Source\PSoC4/CapSense.c **** *  This API is called only after CapSense component is stopped.
1333:.\Generated_Source\PSoC4/CapSense.c **** *
1334:.\Generated_Source\PSoC4/CapSense.c **** *******************************************************************************/
1335:.\Generated_Source\PSoC4/CapSense.c **** void CapSense_SetPinDriveMode(uint32 driveMode, uint32 pinNumber, uint32 portNumber)
1336:.\Generated_Source\PSoC4/CapSense.c **** {	
 579              		.loc 1 1336 0
 580              		.cfi_startproc
 581              	.LVL75:
 582 0000 10B5     		push	{r4, lr}
 583              		.cfi_def_cfa_offset 8
 584              		.cfi_offset 4, -8
 585              		.cfi_offset 14, -4
1337:.\Generated_Source\PSoC4/CapSense.c **** 	uint32  pinModeShift;
1338:.\Generated_Source\PSoC4/CapSense.c **** 	uint32 newRegisterValue;
1339:.\Generated_Source\PSoC4/CapSense.c **** 	
1340:.\Generated_Source\PSoC4/CapSense.c **** 	pinModeShift  = pinNumber * CapSense_PC_PIN_CFG_SIZE;
 586              		.loc 1 1340 0
 587 0002 4B00     		lsl	r3, r1, #1
 588 0004 5918     		add	r1, r3, r1
 589              	.LVL76:
1341:.\Generated_Source\PSoC4/CapSense.c **** 	
1342:.\Generated_Source\PSoC4/CapSense.c **** 	newRegisterValue = *CapSense_prtCfgTbl[portNumber];
ARM GAS  C:\Users\ALEXAN~1\AppData\Local\Temp\cckq0yk2.s 			page 35


 590              		.loc 1 1342 0
 591 0006 9200     		lsl	r2, r2, #2
 592              	.LVL77:
 593 0008 054B     		ldr	r3, .L36
 594 000a 9A18     		add	r2, r3, r2
 595 000c 936A     		ldr	r3, [r2, #40]
 596 000e 1A68     		ldr	r2, [r3]
 597              	.LVL78:
1343:.\Generated_Source\PSoC4/CapSense.c **** 	newRegisterValue &= ~(CapSense_CSD_PIN_MODE_MASK << pinModeShift);
 598              		.loc 1 1343 0
 599 0010 0724     		mov	r4, #7
 600 0012 8C40     		lsl	r4, r4, r1
 601 0014 A243     		bic	r2, r4
 602              	.LVL79:
1344:.\Generated_Source\PSoC4/CapSense.c **** 	newRegisterValue |=  (uint32)((uint32)driveMode << pinModeShift);
 603              		.loc 1 1344 0
 604 0016 8840     		lsl	r0, r0, r1
 605              	.LVL80:
 606 0018 011C     		mov	r1, r0
 607              	.LVL81:
 608 001a 1143     		orr	r1, r2
 609              	.LVL82:
1345:.\Generated_Source\PSoC4/CapSense.c ****     *CapSense_prtCfgTbl[portNumber] =  newRegisterValue;
 610              		.loc 1 1345 0
 611 001c 1960     		str	r1, [r3]
1346:.\Generated_Source\PSoC4/CapSense.c **** }
 612              		.loc 1 1346 0
 613              		@ sp needed
 614 001e 10BD     		pop	{r4, pc}
 615              	.L37:
 616              		.align	2
 617              	.L36:
 618 0020 00000000 		.word	.LANCHOR1
 619              		.cfi_endproc
 620              	.LFE53:
 621              		.size	CapSense_SetPinDriveMode, .-CapSense_SetPinDriveMode
 622              		.section	.text.CapSense_SetDriveModeAllPins,"ax",%progbits
 623              		.align	2
 624              		.global	CapSense_SetDriveModeAllPins
 625              		.code	16
 626              		.thumb_func
 627              		.type	CapSense_SetDriveModeAllPins, %function
 628              	CapSense_SetDriveModeAllPins:
 629              	.LFB51:
1211:.\Generated_Source\PSoC4/CapSense.c **** {
 630              		.loc 1 1211 0
 631              		.cfi_startproc
 632              	.LVL83:
 633 0000 70B5     		push	{r4, r5, r6, lr}
 634              		.cfi_def_cfa_offset 16
 635              		.cfi_offset 4, -16
 636              		.cfi_offset 5, -12
 637              		.cfi_offset 6, -8
 638              		.cfi_offset 14, -4
 639 0002 061C     		mov	r6, r0
 640              	.LVL84:
1220:.\Generated_Source\PSoC4/CapSense.c **** 	for(curSensor = 0u; curSensor < CapSense_TOTAL_SENSOR_COUNT; curSensor++)
ARM GAS  C:\Users\ALEXAN~1\AppData\Local\Temp\cckq0yk2.s 			page 36


 641              		.loc 1 1220 0
 642 0004 0024     		mov	r4, #0
1242:.\Generated_Source\PSoC4/CapSense.c **** 			prtNumberTmp = CapSense_portTable[curSensor];
 643              		.loc 1 1242 0
 644 0006 094D     		ldr	r5, .L41
1220:.\Generated_Source\PSoC4/CapSense.c **** 	for(curSensor = 0u; curSensor < CapSense_TOTAL_SENSOR_COUNT; curSensor++)
 645              		.loc 1 1220 0
 646 0008 07E0     		b	.L39
 647              	.LVL85:
 648              	.L40:
1242:.\Generated_Source\PSoC4/CapSense.c **** 			prtNumberTmp = CapSense_portTable[curSensor];
 649              		.loc 1 1242 0 discriminator 2
 650 000a 2A5D     		ldrb	r2, [r5, r4]
 651              	.LVL86:
1243:.\Generated_Source\PSoC4/CapSense.c **** 			pinNumberTmp = CapSense_pinShiftTbl[curSensor];
 652              		.loc 1 1243 0 discriminator 2
 653 000c 2B19     		add	r3, r5, r4
 654 000e 197A     		ldrb	r1, [r3, #8]
 655              	.LVL87:
1246:.\Generated_Source\PSoC4/CapSense.c **** 		CapSense_SetPinDriveMode(driveMode, pinNumberTmp, prtNumberTmp);
 656              		.loc 1 1246 0 discriminator 2
 657 0010 301C     		mov	r0, r6
 658 0012 FFF7FEFF 		bl	CapSense_SetPinDriveMode
 659              	.LVL88:
1220:.\Generated_Source\PSoC4/CapSense.c **** 	for(curSensor = 0u; curSensor < CapSense_TOTAL_SENSOR_COUNT; curSensor++)
 660              		.loc 1 1220 0 discriminator 2
 661 0016 0134     		add	r4, r4, #1
 662              	.LVL89:
 663 0018 E4B2     		uxtb	r4, r4
 664              	.LVL90:
 665              	.L39:
1220:.\Generated_Source\PSoC4/CapSense.c **** 	for(curSensor = 0u; curSensor < CapSense_TOTAL_SENSOR_COUNT; curSensor++)
 666              		.loc 1 1220 0 is_stmt 0 discriminator 1
 667 001a 042C     		cmp	r4, #4
 668 001c F5D9     		bls	.L40
1249:.\Generated_Source\PSoC4/CapSense.c **** 	CapSense_SetPinDriveMode(driveMode, (uint32)CapSense_CMOD_PIN_NUMBER, (uint32)CapSense_CMOD_PRT_NU
 669              		.loc 1 1249 0 is_stmt 1
 670 001e 301C     		mov	r0, r6
 671 0020 0021     		mov	r1, #0
 672 0022 0422     		mov	r2, #4
 673 0024 FFF7FEFF 		bl	CapSense_SetPinDriveMode
 674              	.LVL91:
1258:.\Generated_Source\PSoC4/CapSense.c **** }
 675              		.loc 1 1258 0
 676              		@ sp needed
 677              	.LVL92:
 678              	.LVL93:
 679 0028 70BD     		pop	{r4, r5, r6, pc}
 680              	.L42:
 681 002a C046     		.align	2
 682              	.L41:
 683 002c 00000000 		.word	.LANCHOR1
 684              		.cfi_endproc
 685              	.LFE51:
 686              		.size	CapSense_SetDriveModeAllPins, .-CapSense_SetDriveModeAllPins
 687              		.section	.text.CapSense_RestoreDriveModeAllPins,"ax",%progbits
 688              		.align	2
ARM GAS  C:\Users\ALEXAN~1\AppData\Local\Temp\cckq0yk2.s 			page 37


 689              		.global	CapSense_RestoreDriveModeAllPins
 690              		.code	16
 691              		.thumb_func
 692              		.type	CapSense_RestoreDriveModeAllPins, %function
 693              	CapSense_RestoreDriveModeAllPins:
 694              	.LFB52:
1284:.\Generated_Source\PSoC4/CapSense.c **** {
 695              		.loc 1 1284 0
 696              		.cfi_startproc
 697 0000 08B5     		push	{r3, lr}
 698              		.cfi_def_cfa_offset 8
 699              		.cfi_offset 3, -8
 700              		.cfi_offset 14, -4
1287:.\Generated_Source\PSoC4/CapSense.c **** 	CapSense_SetDriveModeAllPins(CY_SYS_PINS_DM_ALG_HIZ);
 701              		.loc 1 1287 0
 702 0002 0020     		mov	r0, #0
 703 0004 FFF7FEFF 		bl	CapSense_SetDriveModeAllPins
 704              	.LVL94:
1289:.\Generated_Source\PSoC4/CapSense.c **** 	newRegisterValue = CapSense_CMOD_CONNECTION_REG; 
 705              		.loc 1 1289 0
 706 0008 034B     		ldr	r3, .L44
 707 000a 1A68     		ldr	r2, [r3]
 708              	.LVL95:
1290:.\Generated_Source\PSoC4/CapSense.c ****     newRegisterValue &= ~(CapSense_CSD_CMOD_CONNECTION_MASK);
 709              		.loc 1 1290 0
 710 000c 0F21     		mov	r1, #15
 711 000e 8A43     		bic	r2, r1
 712              	.LVL96:
1291:.\Generated_Source\PSoC4/CapSense.c ****     newRegisterValue |= CapSense_CSD_CMOD_TO_AMUXBUS_A;
 713              		.loc 1 1291 0
 714 0010 0621     		mov	r1, #6
 715 0012 0A43     		orr	r2, r1
 716              	.LVL97:
1292:.\Generated_Source\PSoC4/CapSense.c ****     CapSense_CMOD_CONNECTION_REG = newRegisterValue;
 717              		.loc 1 1292 0
 718 0014 1A60     		str	r2, [r3]
1307:.\Generated_Source\PSoC4/CapSense.c **** }
 719              		.loc 1 1307 0
 720              		@ sp needed
 721 0016 08BD     		pop	{r3, pc}
 722              	.L45:
 723              		.align	2
 724              	.L44:
 725 0018 00040240 		.word	1073873920
 726              		.cfi_endproc
 727              	.LFE52:
 728              		.size	CapSense_RestoreDriveModeAllPins, .-CapSense_RestoreDriveModeAllPins
 729              		.section	.text.CapSense_PreScan,"ax",%progbits
 730              		.align	2
 731              		.global	CapSense_PreScan
 732              		.code	16
 733              		.thumb_func
 734              		.type	CapSense_PreScan, %function
 735              	CapSense_PreScan:
 736              	.LFB54:
1347:.\Generated_Source\PSoC4/CapSense.c **** 
1348:.\Generated_Source\PSoC4/CapSense.c **** 
ARM GAS  C:\Users\ALEXAN~1\AppData\Local\Temp\cckq0yk2.s 			page 38


1349:.\Generated_Source\PSoC4/CapSense.c **** /*******************************************************************************
1350:.\Generated_Source\PSoC4/CapSense.c **** * Function Name: CapSense_PreScan
1351:.\Generated_Source\PSoC4/CapSense.c **** ********************************************************************************
1352:.\Generated_Source\PSoC4/CapSense.c **** *
1353:.\Generated_Source\PSoC4/CapSense.c **** * Summary:
1354:.\Generated_Source\PSoC4/CapSense.c **** *  Sets required settings, enables a sensor, removes Vref from AMUX and starts the 
1355:.\Generated_Source\PSoC4/CapSense.c **** *  scanning process of the sensor.
1356:.\Generated_Source\PSoC4/CapSense.c **** *
1357:.\Generated_Source\PSoC4/CapSense.c **** * Parameters:
1358:.\Generated_Source\PSoC4/CapSense.c **** *  sensor:  Sensor number.
1359:.\Generated_Source\PSoC4/CapSense.c **** *
1360:.\Generated_Source\PSoC4/CapSense.c **** * Return:
1361:.\Generated_Source\PSoC4/CapSense.c **** *  None
1362:.\Generated_Source\PSoC4/CapSense.c **** *
1363:.\Generated_Source\PSoC4/CapSense.c **** * Global Variables:
1364:.\Generated_Source\PSoC4/CapSense.c **** * CapSense_widgetNumber[] - This array contains numbers of widgets for each sensor.
1365:.\Generated_Source\PSoC4/CapSense.c **** * CapSense_widgetResolution[] - Contains the widget resolution.
1366:.\Generated_Source\PSoC4/CapSense.c **** *
1367:.\Generated_Source\PSoC4/CapSense.c **** * Side Effects: 
1368:.\Generated_Source\PSoC4/CapSense.c **** *  None
1369:.\Generated_Source\PSoC4/CapSense.c **** *
1370:.\Generated_Source\PSoC4/CapSense.c **** *******************************************************************************/
1371:.\Generated_Source\PSoC4/CapSense.c **** void CapSense_PreScan(uint32 sensor)
1372:.\Generated_Source\PSoC4/CapSense.c **** {
 737              		.loc 1 1372 0
 738              		.cfi_startproc
 739              	.LVL98:
 740 0000 70B5     		push	{r4, r5, r6, lr}
 741              		.cfi_def_cfa_offset 16
 742              		.cfi_offset 4, -16
 743              		.cfi_offset 5, -12
 744              		.cfi_offset 6, -8
 745              		.cfi_offset 14, -4
 746 0002 041C     		mov	r4, r0
 747              	.LVL99:
1373:.\Generated_Source\PSoC4/CapSense.c ****     uint8 widget;
1374:.\Generated_Source\PSoC4/CapSense.c ****     uint8 interruptState;
1375:.\Generated_Source\PSoC4/CapSense.c **** 	uint32 newRegValue;
1376:.\Generated_Source\PSoC4/CapSense.c **** 	uint32 counterResolution;
1377:.\Generated_Source\PSoC4/CapSense.c **** 	
1378:.\Generated_Source\PSoC4/CapSense.c **** 	#if(CapSense_PRS_OPTIONS == CapSense__PRS_AUTO)
1379:.\Generated_Source\PSoC4/CapSense.c **** 		uint8 senseClkDivMath;
1380:.\Generated_Source\PSoC4/CapSense.c **** 		uint8 sampleClkDivMath;
1381:.\Generated_Source\PSoC4/CapSense.c **** 	#endif /* (CapSense_PRS_OPTIONS == CapSense__PRS_AUTO) */	
1382:.\Generated_Source\PSoC4/CapSense.c **** 	
1383:.\Generated_Source\PSoC4/CapSense.c **** 	#if ((CapSense_TUNING_METHOD == CapSense__TUNING_AUTO) &&\
1384:.\Generated_Source\PSoC4/CapSense.c **** 		 (0 != CapSense_IS_OVERSAMPLING_EN))
1385:.\Generated_Source\PSoC4/CapSense.c **** 		uint32 oversamplingFactor;
1386:.\Generated_Source\PSoC4/CapSense.c **** 	#endif /* ((CapSense_TUNING_METHOD == CapSense__TUNING_AUTO) &&\
1387:.\Generated_Source\PSoC4/CapSense.c **** 	           (0 != CapSense_IS_OVERSAMPLING_EN)) */
1388:.\Generated_Source\PSoC4/CapSense.c **** 
1389:.\Generated_Source\PSoC4/CapSense.c ****     /* Define widget sensor belongs to */
1390:.\Generated_Source\PSoC4/CapSense.c ****     widget = CapSense_widgetNumber[sensor];
1391:.\Generated_Source\PSoC4/CapSense.c **** 
1392:.\Generated_Source\PSoC4/CapSense.c **** 	/* Recalculate Counter Resolution to MSB 16 bits */
1393:.\Generated_Source\PSoC4/CapSense.c **** 	counterResolution = CapSense_widgetResolution[widget];
1394:.\Generated_Source\PSoC4/CapSense.c **** 	
ARM GAS  C:\Users\ALEXAN~1\AppData\Local\Temp\cckq0yk2.s 			page 39


1395:.\Generated_Source\PSoC4/CapSense.c **** 	#if ((CapSense_TUNING_METHOD == CapSense__TUNING_AUTO) &&\
1396:.\Generated_Source\PSoC4/CapSense.c **** 		 (0 != CapSense_IS_OVERSAMPLING_EN))
1397:.\Generated_Source\PSoC4/CapSense.c **** 	    oversamplingFactor = CapSense_GetBitValue(scanSpeedTbl, sensor);
1398:.\Generated_Source\PSoC4/CapSense.c **** 
1399:.\Generated_Source\PSoC4/CapSense.c **** 		if(counterResolution < CapSense_RESOLUTION_16_BITS)
1400:.\Generated_Source\PSoC4/CapSense.c **** 		{
1401:.\Generated_Source\PSoC4/CapSense.c **** 			counterResolution <<= oversamplingFactor;
1402:.\Generated_Source\PSoC4/CapSense.c **** 			counterResolution |= (uint32)(CapSense_RESOLUTION_8_BITS);
1403:.\Generated_Source\PSoC4/CapSense.c **** 		}
1404:.\Generated_Source\PSoC4/CapSense.c **** 	#endif /* ((CapSense_TUNING_METHOD == CapSense__TUNING_AUTO) &&\
1405:.\Generated_Source\PSoC4/CapSense.c **** 	           (0 != CapSense_IS_OVERSAMPLING_EN)) */
1406:.\Generated_Source\PSoC4/CapSense.c **** 	
1407:.\Generated_Source\PSoC4/CapSense.c **** 	#if (0u != CapSense_IS_M0S8PERI_BLOCK)
1408:.\Generated_Source\PSoC4/CapSense.c **** 		CapSense_SenseClk_Stop();
 748              		.loc 1 1408 0
 749 0004 FFF7FEFF 		bl	CapSense_SenseClk_Stop
 750              	.LVL100:
1409:.\Generated_Source\PSoC4/CapSense.c **** 		CapSense_SampleClk_Stop();
 751              		.loc 1 1409 0
 752 0008 FFF7FEFF 		bl	CapSense_SampleClk_Stop
 753              	.LVL101:
1410:.\Generated_Source\PSoC4/CapSense.c **** 	#endif /* (0u != CapSense_IS_M0S8PERI_BLOCK) */
1411:.\Generated_Source\PSoC4/CapSense.c **** 
1412:.\Generated_Source\PSoC4/CapSense.c **** 	#if (0u != CapSense_MULTIPLE_FREQUENCY_SET)
1413:.\Generated_Source\PSoC4/CapSense.c **** 		CapSense_SampleClk_SetDividerValue((uint16)CapSense_sampleClkDividerVal[sensor]);
 754              		.loc 1 1413 0
 755 000c 2B4D     		ldr	r5, .L48
 756 000e 2B1C     		mov	r3, r5
 757 0010 5833     		add	r3, r3, #88
 758 0012 1E5D     		ldrb	r6, [r3, r4]
 759 0014 701E     		sub	r0, r6, #1
 760 0016 80B2     		uxth	r0, r0
 761 0018 0021     		mov	r1, #0
 762 001a FFF7FEFF 		bl	CapSense_SampleClk_SetFractionalDividerRegister
 763              	.LVL102:
1414:.\Generated_Source\PSoC4/CapSense.c **** 		CapSense_SenseClk_SetDividerValue((uint16)CapSense_senseClkDividerVal[sensor]);
 764              		.loc 1 1414 0
 765 001e 6035     		add	r5, r5, #96
 766 0020 2D5D     		ldrb	r5, [r5, r4]
 767 0022 681E     		sub	r0, r5, #1
 768 0024 80B2     		uxth	r0, r0
 769 0026 0021     		mov	r1, #0
 770 0028 FFF7FEFF 		bl	CapSense_SenseClk_SetFractionalDividerRegister
 771              	.LVL103:
1415:.\Generated_Source\PSoC4/CapSense.c **** 	#else
1416:.\Generated_Source\PSoC4/CapSense.c **** 		CapSense_SampleClk_SetDividerValue((uint16)CapSense_sampleClkDividerVal);
1417:.\Generated_Source\PSoC4/CapSense.c **** 		CapSense_SenseClk_SetDividerValue((uint16)CapSense_senseClkDividerVal);
1418:.\Generated_Source\PSoC4/CapSense.c **** 	#endif /* (0u != CapSense_MULTIPLE_FREQUENCY_SET) */
1419:.\Generated_Source\PSoC4/CapSense.c **** 
1420:.\Generated_Source\PSoC4/CapSense.c **** 	#if (0u != CapSense_IS_M0S8PERI_BLOCK)
1421:.\Generated_Source\PSoC4/CapSense.c **** 		CapSense_SampleClk_Start();
 772              		.loc 1 1421 0
 773 002c FF20     		mov	r0, #255
 774 002e FFF7FEFF 		bl	CapSense_SampleClk_StartEx
 775              	.LVL104:
1422:.\Generated_Source\PSoC4/CapSense.c **** 		CapSense_SenseClk_StartEx(CapSense_SampleClk__DIV_ID);
 776              		.loc 1 1422 0
ARM GAS  C:\Users\ALEXAN~1\AppData\Local\Temp\cckq0yk2.s 			page 40


 777 0032 4020     		mov	r0, #64
 778 0034 FFF7FEFF 		bl	CapSense_SenseClk_StartEx
 779              	.LVL105:
1423:.\Generated_Source\PSoC4/CapSense.c **** 		
1424:.\Generated_Source\PSoC4/CapSense.c **** 		#if(CapSense_PRS_OPTIONS == CapSense__PRS_NONE)
1425:.\Generated_Source\PSoC4/CapSense.c **** 			CyIntDisable(CapSense_ISR_NUMBER);
1426:.\Generated_Source\PSoC4/CapSense.c **** 			CapSense_CSD_CNT_REG = CapSense_ONE_CYCLE;
1427:.\Generated_Source\PSoC4/CapSense.c **** 			while(0u != (CapSense_CSD_CNT_REG & CapSense_RESOLUTION_16_BITS))
1428:.\Generated_Source\PSoC4/CapSense.c **** 			{
1429:.\Generated_Source\PSoC4/CapSense.c **** 			/* Wait until scanning is complete */ 
1430:.\Generated_Source\PSoC4/CapSense.c **** 			}
1431:.\Generated_Source\PSoC4/CapSense.c **** 			CapSense_CSD_INTR_REG = 1u;
1432:.\Generated_Source\PSoC4/CapSense.c **** 			CyIntClearPending(CapSense_ISR_NUMBER);
1433:.\Generated_Source\PSoC4/CapSense.c **** 			CyIntEnable(CapSense_ISR_NUMBER); 
1434:.\Generated_Source\PSoC4/CapSense.c **** 		#endif /* CapSense_PRS_OPTIONS == CapSense__PRS_NONE */
1435:.\Generated_Source\PSoC4/CapSense.c **** 	#endif /* (0u != CapSense_IS_M0S8PERI_BLOCK) */
1436:.\Generated_Source\PSoC4/CapSense.c **** 
1437:.\Generated_Source\PSoC4/CapSense.c **** #if(CapSense_PRS_OPTIONS != CapSense__PRS_NONE)
1438:.\Generated_Source\PSoC4/CapSense.c **** 
1439:.\Generated_Source\PSoC4/CapSense.c **** 	#if(CapSense_TUNING_METHOD == CapSense__TUNING_AUTO)
1440:.\Generated_Source\PSoC4/CapSense.c **** 		if(CapSense_prescalersTuningDone != 0u)
1441:.\Generated_Source\PSoC4/CapSense.c **** 		{
1442:.\Generated_Source\PSoC4/CapSense.c **** 	#endif /* (CapSense_TUNING_METHOD == CapSense__TUNING_AUTO) */
1443:.\Generated_Source\PSoC4/CapSense.c **** 			
1444:.\Generated_Source\PSoC4/CapSense.c **** 			CyIntDisable(CapSense_ISR_NUMBER);
 780              		.loc 1 1444 0
 781 0038 1020     		mov	r0, #16
 782 003a FFF7FEFF 		bl	CyIntDisable
 783              	.LVL106:
1445:.\Generated_Source\PSoC4/CapSense.c **** 			
1446:.\Generated_Source\PSoC4/CapSense.c **** 			newRegValue = CapSense_CSD_CFG_REG;
 784              		.loc 1 1446 0
 785 003e 204B     		ldr	r3, .L48+4
 786 0040 1968     		ldr	r1, [r3]
 787              	.LVL107:
1447:.\Generated_Source\PSoC4/CapSense.c **** 			newRegValue |= CapSense_CSD_CFG_PRS_SELECT;
1448:.\Generated_Source\PSoC4/CapSense.c **** 			
1449:.\Generated_Source\PSoC4/CapSense.c **** 			#if(CapSense_PRS_OPTIONS == CapSense__PRS_AUTO)
1450:.\Generated_Source\PSoC4/CapSense.c **** 				
1451:.\Generated_Source\PSoC4/CapSense.c **** 				newRegValue &= ~(CapSense_PRS_MODE_MASK);
 788              		.loc 1 1451 0
 789 0042 8023     		mov	r3, #128
 790 0044 9943     		bic	r1, r3
 791              	.LVL108:
 792 0046 4022     		mov	r2, #64
 793 0048 0A43     		orr	r2, r1
 794              	.LVL109:
1452:.\Generated_Source\PSoC4/CapSense.c **** 				
1453:.\Generated_Source\PSoC4/CapSense.c **** 				#if (0u != CapSense_MULTIPLE_FREQUENCY_SET)
1454:.\Generated_Source\PSoC4/CapSense.c **** 					senseClkDivMath = CapSense_senseClkDividerVal[sensor];
1455:.\Generated_Source\PSoC4/CapSense.c **** 					sampleClkDivMath = CapSense_sampleClkDividerVal[sensor];
1456:.\Generated_Source\PSoC4/CapSense.c **** 				#else
1457:.\Generated_Source\PSoC4/CapSense.c **** 					senseClkDivMath = CapSense_senseClkDividerVal;
1458:.\Generated_Source\PSoC4/CapSense.c **** 					sampleClkDivMath = CapSense_sampleClkDividerVal;
1459:.\Generated_Source\PSoC4/CapSense.c **** 				#endif /* ( CapSense_MULTIPLE_FREQUENCY_SET) */
1460:.\Generated_Source\PSoC4/CapSense.c **** 				
1461:.\Generated_Source\PSoC4/CapSense.c **** 				#if(0u == CapSense_IS_M0S8PERI_BLOCK)
ARM GAS  C:\Users\ALEXAN~1\AppData\Local\Temp\cckq0yk2.s 			page 41


1462:.\Generated_Source\PSoC4/CapSense.c **** 					senseClkDivMath *= sampleClkDivMath;
1463:.\Generated_Source\PSoC4/CapSense.c **** 				#endif /* (0u == CapSense_IS_M0S8PERI_BLOCK) */	
1464:.\Generated_Source\PSoC4/CapSense.c **** 				
1465:.\Generated_Source\PSoC4/CapSense.c **** 				if((senseClkDivMath * CapSense_RESOLUTION_12_BITS) <
 795              		.loc 1 1465 0
 796 004a 2B03     		lsl	r3, r5, #12
 797 004c 5D1B     		sub	r5, r3, r5
 798 004e 2D04     		lsl	r5, r5, #16
1466:.\Generated_Source\PSoC4/CapSense.c **** 				   (sampleClkDivMath * CapSense_widgetResolution[widget]))
 799              		.loc 1 1466 0
 800 0050 3304     		lsl	r3, r6, #16
 801 0052 5B42     		neg	r3, r3
1465:.\Generated_Source\PSoC4/CapSense.c **** 				if((senseClkDivMath * CapSense_RESOLUTION_12_BITS) <
 802              		.loc 1 1465 0
 803 0054 9D42     		cmp	r5, r3
 804 0056 01D2     		bcs	.L47
1467:.\Generated_Source\PSoC4/CapSense.c **** 				{
1468:.\Generated_Source\PSoC4/CapSense.c **** 					newRegValue |= CapSense_CSD_PRS_12_BIT;
 805              		.loc 1 1468 0
 806 0058 C022     		mov	r2, #192
 807              	.LVL110:
 808 005a 0A43     		orr	r2, r1
 809              	.LVL111:
 810              	.L47:
1469:.\Generated_Source\PSoC4/CapSense.c **** 				}
1470:.\Generated_Source\PSoC4/CapSense.c **** 			#endif /* (CapSense_PRS_OPTIONS == CapSense__PRS_AUTO) */
1471:.\Generated_Source\PSoC4/CapSense.c **** 			
1472:.\Generated_Source\PSoC4/CapSense.c **** 			CapSense_CSD_CFG_REG = newRegValue;
 811              		.loc 1 1472 0
 812 005c 184D     		ldr	r5, .L48+4
 813 005e 2A60     		str	r2, [r5]
1473:.\Generated_Source\PSoC4/CapSense.c **** 			
1474:.\Generated_Source\PSoC4/CapSense.c **** 			CyIntEnable(CapSense_ISR_NUMBER);
 814              		.loc 1 1474 0
 815 0060 1020     		mov	r0, #16
 816 0062 FFF7FEFF 		bl	CyIntEnable
 817              	.LVL112:
1475:.\Generated_Source\PSoC4/CapSense.c **** 			
1476:.\Generated_Source\PSoC4/CapSense.c **** 	#if(CapSense_TUNING_METHOD == CapSense__TUNING_AUTO)	
1477:.\Generated_Source\PSoC4/CapSense.c **** 		}
1478:.\Generated_Source\PSoC4/CapSense.c **** 	#endif /* (CapSense_PRS_OPTIONS != CapSense__PRS_NONE) */
1479:.\Generated_Source\PSoC4/CapSense.c **** 
1480:.\Generated_Source\PSoC4/CapSense.c **** #endif /* (CapSense_PRS_OPTIONS == CapSense__PRS_NONE) */
1481:.\Generated_Source\PSoC4/CapSense.c **** 	
1482:.\Generated_Source\PSoC4/CapSense.c **** 	/* Set Idac Value */
1483:.\Generated_Source\PSoC4/CapSense.c **** 	CyIntDisable(CapSense_ISR_NUMBER);
 818              		.loc 1 1483 0
 819 0066 1020     		mov	r0, #16
 820 0068 FFF7FEFF 		bl	CyIntDisable
 821              	.LVL113:
1484:.\Generated_Source\PSoC4/CapSense.c ****     newRegValue = CapSense_CSD_IDAC_REG;
 822              		.loc 1 1484 0
 823 006c 154B     		ldr	r3, .L48+8
 824 006e 1968     		ldr	r1, [r3]
 825              	.LVL114:
1485:.\Generated_Source\PSoC4/CapSense.c ****  
1486:.\Generated_Source\PSoC4/CapSense.c **** #if (CapSense_IDAC_CNT == 1u)    
ARM GAS  C:\Users\ALEXAN~1\AppData\Local\Temp\cckq0yk2.s 			page 42


1487:.\Generated_Source\PSoC4/CapSense.c **** 	newRegValue &= ~(CapSense_CSD_IDAC1_DATA_MASK);
1488:.\Generated_Source\PSoC4/CapSense.c **** 	newRegValue |= CapSense_modulationIDAC[sensor];
1489:.\Generated_Source\PSoC4/CapSense.c **** #else
1490:.\Generated_Source\PSoC4/CapSense.c **** 	newRegValue &= ~(CapSense_CSD_IDAC1_DATA_MASK | CapSense_CSD_IDAC2_DATA_MASK);
 826              		.loc 1 1490 0
 827 0070 154A     		ldr	r2, .L48+12
 828 0072 1140     		and	r1, r2
 829              	.LVL115:
1491:.\Generated_Source\PSoC4/CapSense.c **** 	newRegValue |= (CapSense_modulationIDAC[sensor] | 
 830              		.loc 1 1491 0
 831 0074 114A     		ldr	r2, .L48
 832              	.LVL116:
 833 0076 101C     		mov	r0, r2
 834 0078 6830     		add	r0, r0, #104
 835 007a 005D     		ldrb	r0, [r0, r4]
1492:.\Generated_Source\PSoC4/CapSense.c **** 							(uint32)((uint32)CapSense_compensationIDAC[sensor] <<
 836              		.loc 1 1492 0
 837 007c 7032     		add	r2, r2, #112
 838              	.LVL117:
 839 007e 125D     		ldrb	r2, [r2, r4]
 840 0080 1204     		lsl	r2, r2, #16
1491:.\Generated_Source\PSoC4/CapSense.c **** 	newRegValue |= (CapSense_modulationIDAC[sensor] | 
 841              		.loc 1 1491 0
 842 0082 0243     		orr	r2, r0
 843 0084 0A43     		orr	r2, r1
 844              	.LVL118:
1493:.\Generated_Source\PSoC4/CapSense.c **** 							CapSense_CSD_IDAC2_DATA_OFFSET));                               
1494:.\Generated_Source\PSoC4/CapSense.c **** #endif /* (CapSense_IDAC_CNT == 1u) */
1495:.\Generated_Source\PSoC4/CapSense.c **** 	
1496:.\Generated_Source\PSoC4/CapSense.c **** 	CapSense_CSD_IDAC_REG = newRegValue;
 845              		.loc 1 1496 0
 846 0086 1A60     		str	r2, [r3]
1497:.\Generated_Source\PSoC4/CapSense.c **** 
1498:.\Generated_Source\PSoC4/CapSense.c **** #if(CapSense_CMOD_PREGARGE_OPTION == CapSense__CAPPRIOBUF)
1499:.\Generated_Source\PSoC4/CapSense.c **** 	newRegValue = CapSense_CMOD_CONNECTION_REG;
1500:.\Generated_Source\PSoC4/CapSense.c **** 	newRegValue &= ~(CapSense_CSD_CMOD_CONNECTION_MASK);
1501:.\Generated_Source\PSoC4/CapSense.c **** 	newRegValue |= CapSense_CSD_CMOD_TO_AMUXBUS_A;
1502:.\Generated_Source\PSoC4/CapSense.c **** 	CapSense_CMOD_CONNECTION_REG = newRegValue;
1503:.\Generated_Source\PSoC4/CapSense.c **** 	
1504:.\Generated_Source\PSoC4/CapSense.c **** 	newRegValue = CapSense_CMOD_PORT_PC_REG;
1505:.\Generated_Source\PSoC4/CapSense.c **** 	newRegValue &= ~(CapSense_CSD_CMOD_PC_MASK);
1506:.\Generated_Source\PSoC4/CapSense.c **** 	newRegValue |= CapSense_CMOD_PC_HIGH_Z_MODE;
1507:.\Generated_Source\PSoC4/CapSense.c **** 	CapSense_CMOD_PORT_PC_REG = newRegValue;
1508:.\Generated_Source\PSoC4/CapSense.c **** #endif /* (CapSense_CMOD_PREGARGE_OPTION == CapSense__CAPPRIOBUF) */
1509:.\Generated_Source\PSoC4/CapSense.c **** 
1510:.\Generated_Source\PSoC4/CapSense.c ****     /* Disconnect Vref Buffer from AMUX */
1511:.\Generated_Source\PSoC4/CapSense.c **** 	newRegValue = CapSense_CSD_CFG_REG;
 847              		.loc 1 1511 0
 848 0088 2E68     		ldr	r6, [r5]
 849              	.LVL119:
1512:.\Generated_Source\PSoC4/CapSense.c **** 	newRegValue &= ~(CapSense_PRECHARGE_CONFIG_MASK);
 850              		.loc 1 1512 0
 851 008a 104B     		ldr	r3, .L48+16
 852 008c 1E40     		and	r6, r3
 853              	.LVL120:
1513:.\Generated_Source\PSoC4/CapSense.c **** 	newRegValue |= CapSense_CTANK_PRECHARGE_CONFIG;
 854              		.loc 1 1513 0
ARM GAS  C:\Users\ALEXAN~1\AppData\Local\Temp\cckq0yk2.s 			page 43


 855 008e 104B     		ldr	r3, .L48+20
 856 0090 1E43     		orr	r6, r3
 857              	.LVL121:
1514:.\Generated_Source\PSoC4/CapSense.c **** 	
1515:.\Generated_Source\PSoC4/CapSense.c **** 	CyIntEnable(CapSense_ISR_NUMBER);
 858              		.loc 1 1515 0
 859 0092 1020     		mov	r0, #16
 860 0094 FFF7FEFF 		bl	CyIntEnable
 861              	.LVL122:
1516:.\Generated_Source\PSoC4/CapSense.c **** 	
1517:.\Generated_Source\PSoC4/CapSense.c ****     /* Enable Sensor */
1518:.\Generated_Source\PSoC4/CapSense.c ****     CapSense_EnableScanSlot(sensor);
 862              		.loc 1 1518 0
 863 0098 201C     		mov	r0, r4
 864 009a FFF7FEFF 		bl	CapSense_EnableSensor
 865              	.LVL123:
1519:.\Generated_Source\PSoC4/CapSense.c ****     
1520:.\Generated_Source\PSoC4/CapSense.c **** 	interruptState = CyEnterCriticalSection();
 866              		.loc 1 1520 0
 867 009e FFF7FEFF 		bl	CyEnterCriticalSection
 868              	.LVL124:
 869 00a2 041C     		mov	r4, r0
 870              	.LVL125:
1521:.\Generated_Source\PSoC4/CapSense.c **** 	CapSense_CSD_CFG_REG = newRegValue;
 871              		.loc 1 1521 0
 872 00a4 2E60     		str	r6, [r5]
1522:.\Generated_Source\PSoC4/CapSense.c **** 	
1523:.\Generated_Source\PSoC4/CapSense.c **** 	/* `#START CapSense_PreSettlingDelay_Debug` */
1524:.\Generated_Source\PSoC4/CapSense.c **** 
1525:.\Generated_Source\PSoC4/CapSense.c **** 	/* `#END` */
1526:.\Generated_Source\PSoC4/CapSense.c **** 	
1527:.\Generated_Source\PSoC4/CapSense.c **** 	CyDelayCycles(CapSense_GLITCH_ELIMINATION_CYCLES);
 873              		.loc 1 1527 0
 874 00a6 0020     		mov	r0, #0
 875              	.LVL126:
 876 00a8 FFF7FEFF 		bl	CyDelayCycles
 877              	.LVL127:
1528:.\Generated_Source\PSoC4/CapSense.c **** 	
1529:.\Generated_Source\PSoC4/CapSense.c **** 	/* `#START CapSense_PreScan_Debug` */
1530:.\Generated_Source\PSoC4/CapSense.c **** 
1531:.\Generated_Source\PSoC4/CapSense.c **** 	/* `#END` */
1532:.\Generated_Source\PSoC4/CapSense.c **** 	
1533:.\Generated_Source\PSoC4/CapSense.c ****     CapSense_CSD_CNT_REG = counterResolution;
 878              		.loc 1 1533 0
 879 00ac 094A     		ldr	r2, .L48+24
 880 00ae 0A4B     		ldr	r3, .L48+28
 881 00b0 1A60     		str	r2, [r3]
1534:.\Generated_Source\PSoC4/CapSense.c ****     CyExitCriticalSection(interruptState);
 882              		.loc 1 1534 0
 883 00b2 201C     		mov	r0, r4
 884 00b4 FFF7FEFF 		bl	CyExitCriticalSection
 885              	.LVL128:
1535:.\Generated_Source\PSoC4/CapSense.c **** }
 886              		.loc 1 1535 0
 887              		@ sp needed
 888              	.LVL129:
 889              	.LVL130:
ARM GAS  C:\Users\ALEXAN~1\AppData\Local\Temp\cckq0yk2.s 			page 44


 890 00b8 70BD     		pop	{r4, r5, r6, pc}
 891              	.L49:
 892 00ba C046     		.align	2
 893              	.L48:
 894 00bc 00000000 		.word	.LANCHOR1
 895 00c0 04002840 		.word	1076363268
 896 00c4 08002840 		.word	1076363272
 897 00c8 00FF80FF 		.word	-8323328
 898 00cc FF1FDFFF 		.word	-2154497
 899 00d0 20E02000 		.word	2154528
 900 00d4 0000FFFF 		.word	-65536
 901 00d8 0C002840 		.word	1076363276
 902              		.cfi_endproc
 903              	.LFE54:
 904              		.size	CapSense_PreScan, .-CapSense_PreScan
 905              		.section	.text.CapSense_ScanSensor,"ax",%progbits
 906              		.align	2
 907              		.global	CapSense_ScanSensor
 908              		.code	16
 909              		.thumb_func
 910              		.type	CapSense_ScanSensor, %function
 911              	CapSense_ScanSensor:
 912              	.LFB41:
 591:.\Generated_Source\PSoC4/CapSense.c **** {
 913              		.loc 1 591 0
 914              		.cfi_startproc
 915              	.LVL131:
 916 0000 08B5     		push	{r3, lr}
 917              		.cfi_def_cfa_offset 8
 918              		.cfi_offset 3, -8
 919              		.cfi_offset 14, -4
 593:.\Generated_Source\PSoC4/CapSense.c ****     CapSense_csdStatusVar = 0u;
 920              		.loc 1 593 0
 921 0002 054B     		ldr	r3, .L51
 922 0004 0022     		mov	r2, #0
 923 0006 1A70     		strb	r2, [r3]
 594:.\Generated_Source\PSoC4/CapSense.c ****     CapSense_sensorIndex = (uint8)sensor;
 924              		.loc 1 594 0
 925 0008 C2B2     		uxtb	r2, r0
 926 000a 9A73     		strb	r2, [r3, #14]
 597:.\Generated_Source\PSoC4/CapSense.c ****     CapSense_csdStatusVar = (CapSense_SW_STS_BUSY | CapSense_SW_CTRL_SINGLE_SCAN);
 927              		.loc 1 597 0
 928 000c 8122     		mov	r2, #129
 929 000e 1A70     		strb	r2, [r3]
 598:.\Generated_Source\PSoC4/CapSense.c ****     CapSense_PreScan(sensor);
 930              		.loc 1 598 0
 931 0010 FFF7FEFF 		bl	CapSense_PreScan
 932              	.LVL132:
 599:.\Generated_Source\PSoC4/CapSense.c **** }
 933              		.loc 1 599 0
 934              		@ sp needed
 935 0014 08BD     		pop	{r3, pc}
 936              	.L52:
 937 0016 C046     		.align	2
 938              	.L51:
 939 0018 00000000 		.word	.LANCHOR0
 940              		.cfi_endproc
ARM GAS  C:\Users\ALEXAN~1\AppData\Local\Temp\cckq0yk2.s 			page 45


 941              	.LFE41:
 942              		.size	CapSense_ScanSensor, .-CapSense_ScanSensor
 943              		.section	.text.CapSense_PostScan,"ax",%progbits
 944              		.align	2
 945              		.global	CapSense_PostScan
 946              		.code	16
 947              		.thumb_func
 948              		.type	CapSense_PostScan, %function
 949              	CapSense_PostScan:
 950              	.LFB55:
1536:.\Generated_Source\PSoC4/CapSense.c **** 
1537:.\Generated_Source\PSoC4/CapSense.c **** 
1538:.\Generated_Source\PSoC4/CapSense.c **** /*******************************************************************************
1539:.\Generated_Source\PSoC4/CapSense.c **** * Function Name: CapSense_PostScan
1540:.\Generated_Source\PSoC4/CapSense.c **** ********************************************************************************
1541:.\Generated_Source\PSoC4/CapSense.c **** *
1542:.\Generated_Source\PSoC4/CapSense.c **** * Summary:
1543:.\Generated_Source\PSoC4/CapSense.c **** *  Stores the results of measurement in the CapSense_sensorRaw[] array,
1544:.\Generated_Source\PSoC4/CapSense.c **** *  sets the scanning sensor in the non-sampling state, turns off Idac(Current Source IDAC),
1545:.\Generated_Source\PSoC4/CapSense.c **** *  disconnects the IDAC(Sink mode), and applies Vref on AMUX.
1546:.\Generated_Source\PSoC4/CapSense.c **** *
1547:.\Generated_Source\PSoC4/CapSense.c **** * Parameters:
1548:.\Generated_Source\PSoC4/CapSense.c **** *  sensor:  Sensor number.
1549:.\Generated_Source\PSoC4/CapSense.c **** *
1550:.\Generated_Source\PSoC4/CapSense.c **** * Return:
1551:.\Generated_Source\PSoC4/CapSense.c **** *  None
1552:.\Generated_Source\PSoC4/CapSense.c **** *
1553:.\Generated_Source\PSoC4/CapSense.c **** * Global Variables:
1554:.\Generated_Source\PSoC4/CapSense.c **** *  CapSense_sensorRaw[] - used to store sensors raw data.
1555:.\Generated_Source\PSoC4/CapSense.c **** *
1556:.\Generated_Source\PSoC4/CapSense.c **** * Side Effects: 
1557:.\Generated_Source\PSoC4/CapSense.c **** *  None
1558:.\Generated_Source\PSoC4/CapSense.c **** *
1559:.\Generated_Source\PSoC4/CapSense.c **** *******************************************************************************/
1560:.\Generated_Source\PSoC4/CapSense.c **** void CapSense_PostScan(uint32 sensor)
1561:.\Generated_Source\PSoC4/CapSense.c **** {	
 951              		.loc 1 1561 0
 952              		.cfi_startproc
 953              	.LVL133:
 954 0000 08B5     		push	{r3, lr}
 955              		.cfi_def_cfa_offset 8
 956              		.cfi_offset 3, -8
 957              		.cfi_offset 14, -4
1562:.\Generated_Source\PSoC4/CapSense.c **** 	uint32 newRegValue;
1563:.\Generated_Source\PSoC4/CapSense.c **** #if ((CapSense_TUNING_METHOD == CapSense__TUNING_AUTO) &&\
1564:.\Generated_Source\PSoC4/CapSense.c **** 	 (0 != CapSense_IS_OVERSAMPLING_EN))
1565:.\Generated_Source\PSoC4/CapSense.c ****     uint32 oversamplingFactor;
1566:.\Generated_Source\PSoC4/CapSense.c ****     uint32 widget;
1567:.\Generated_Source\PSoC4/CapSense.c **** #endif /* ((CapSense_TUNING_METHOD == CapSense__TUNING_AUTO) &&\
1568:.\Generated_Source\PSoC4/CapSense.c **** 		   (0 != CapSense_IS_OVERSAMPLING_EN)) */	
1569:.\Generated_Source\PSoC4/CapSense.c **** 
1570:.\Generated_Source\PSoC4/CapSense.c **** 	/* `#START CapSense_PostScan_Debug` */
1571:.\Generated_Source\PSoC4/CapSense.c **** 
1572:.\Generated_Source\PSoC4/CapSense.c **** 	/* `#END` */
1573:.\Generated_Source\PSoC4/CapSense.c **** 
1574:.\Generated_Source\PSoC4/CapSense.c **** 
1575:.\Generated_Source\PSoC4/CapSense.c ****     /* Read SlotResult from Raw Counter */
ARM GAS  C:\Users\ALEXAN~1\AppData\Local\Temp\cckq0yk2.s 			page 46


1576:.\Generated_Source\PSoC4/CapSense.c ****     CapSense_sensorRaw[sensor]  = (uint16)CapSense_CSD_CNT_REG;
 958              		.loc 1 1576 0
 959 0002 0E4B     		ldr	r3, .L54
 960 0004 1A68     		ldr	r2, [r3]
 961 0006 4300     		lsl	r3, r0, #1
 962 0008 0D49     		ldr	r1, .L54+4
 963 000a CB18     		add	r3, r1, r3
 964 000c 9A80     		strh	r2, [r3, #4]
1577:.\Generated_Source\PSoC4/CapSense.c **** 	
1578:.\Generated_Source\PSoC4/CapSense.c **** #if ((CapSense_TUNING_METHOD == CapSense__TUNING_AUTO) &&\
1579:.\Generated_Source\PSoC4/CapSense.c **** 	 (0 != CapSense_IS_OVERSAMPLING_EN))
1580:.\Generated_Source\PSoC4/CapSense.c **** 	widget = CapSense_widgetNumber[sensor];
1581:.\Generated_Source\PSoC4/CapSense.c **** 	if(CapSense_widgetResolution[widget] < CapSense_RESOLUTION_16_BITS)
1582:.\Generated_Source\PSoC4/CapSense.c **** 	{
1583:.\Generated_Source\PSoC4/CapSense.c **** 		oversamplingFactor = CapSense_GetBitValue(scanSpeedTbl, sensor);
1584:.\Generated_Source\PSoC4/CapSense.c **** 		CapSense_sensorRaw[sensor] >>= oversamplingFactor;
1585:.\Generated_Source\PSoC4/CapSense.c **** 	}
1586:.\Generated_Source\PSoC4/CapSense.c **** #endif /* ((CapSense_TUNING_METHOD == CapSense__TUNING_AUTO) &&\
1587:.\Generated_Source\PSoC4/CapSense.c **** 		   (0 != CapSense_IS_OVERSAMPLING_EN)) */
1588:.\Generated_Source\PSoC4/CapSense.c **** 
1589:.\Generated_Source\PSoC4/CapSense.c ****     /* Disable Sensor */
1590:.\Generated_Source\PSoC4/CapSense.c ****     CapSense_DisableScanSlot(sensor);
 965              		.loc 1 1590 0
 966 000e FFF7FEFF 		bl	CapSense_DisableSensor
 967              	.LVL134:
1591:.\Generated_Source\PSoC4/CapSense.c **** 
1592:.\Generated_Source\PSoC4/CapSense.c **** 	CyIntDisable(CapSense_ISR_NUMBER);
 968              		.loc 1 1592 0
 969 0012 1020     		mov	r0, #16
 970 0014 FFF7FEFF 		bl	CyIntDisable
 971              	.LVL135:
1593:.\Generated_Source\PSoC4/CapSense.c **** 	
1594:.\Generated_Source\PSoC4/CapSense.c **** #if(CapSense_CMOD_PREGARGE_OPTION == CapSense__CAPPRIOBUF)
1595:.\Generated_Source\PSoC4/CapSense.c **** 	newRegValue = CapSense_CMOD_CONNECTION_REG;
1596:.\Generated_Source\PSoC4/CapSense.c **** 	newRegValue &= ~(CapSense_CSD_CMOD_CONNECTION_MASK);
1597:.\Generated_Source\PSoC4/CapSense.c **** 	newRegValue |= CapSense_CSD_CMOD_TO_AMUXBUS_B;
1598:.\Generated_Source\PSoC4/CapSense.c **** 	CapSense_CMOD_CONNECTION_REG = newRegValue;
1599:.\Generated_Source\PSoC4/CapSense.c **** 	
1600:.\Generated_Source\PSoC4/CapSense.c **** 	newRegValue = CapSense_CMOD_PORT_PC_REG;
1601:.\Generated_Source\PSoC4/CapSense.c **** 	newRegValue &= ~(CapSense_CSD_CMOD_PC_MASK);
1602:.\Generated_Source\PSoC4/CapSense.c **** 	newRegValue |= CapSense_CMOD_PC_STRONG_MODE;
1603:.\Generated_Source\PSoC4/CapSense.c **** 	CapSense_CMOD_PORT_PC_REG = newRegValue;
1604:.\Generated_Source\PSoC4/CapSense.c **** 		
1605:.\Generated_Source\PSoC4/CapSense.c **** 	newRegValue = CapSense_CMOD_PORT_DR_REG;
1606:.\Generated_Source\PSoC4/CapSense.c ****     newRegValue &= ~(CapSense_CMOD_DR_MASK);
1607:.\Generated_Source\PSoC4/CapSense.c **** 	newRegValue |= CapSense_CMOD_DR_CONFIG;
1608:.\Generated_Source\PSoC4/CapSense.c ****     CapSense_CMOD_PORT_DR_REG = newRegValue;    
1609:.\Generated_Source\PSoC4/CapSense.c **** #endif /* (CapSense_CMOD_PREGARGE_OPTION == CapSense__CAPPRIOBUF) */
1610:.\Generated_Source\PSoC4/CapSense.c **** 	
1611:.\Generated_Source\PSoC4/CapSense.c **** 	/* Connect Vref Buffer to AMUX bus  */
1612:.\Generated_Source\PSoC4/CapSense.c **** 	newRegValue = CapSense_CSD_CFG_REG;
 972              		.loc 1 1612 0
 973 0018 0A4B     		ldr	r3, .L54+8
 974 001a 1968     		ldr	r1, [r3]
 975              	.LVL136:
1613:.\Generated_Source\PSoC4/CapSense.c **** 	newRegValue &= ~(CapSense_PRECHARGE_CONFIG_MASK);
 976              		.loc 1 1613 0
ARM GAS  C:\Users\ALEXAN~1\AppData\Local\Temp\cckq0yk2.s 			page 47


 977 001c 0A4A     		ldr	r2, .L54+12
 978 001e 0A40     		and	r2, r1
 979              	.LVL137:
1614:.\Generated_Source\PSoC4/CapSense.c **** 	newRegValue |= CapSense_CMOD_PRECHARGE_CONFIG;
 980              		.loc 1 1614 0
 981 0020 A021     		mov	r1, #160
 982 0022 0902     		lsl	r1, r1, #8
 983 0024 0A43     		orr	r2, r1
 984              	.LVL138:
1615:.\Generated_Source\PSoC4/CapSense.c **** 	CapSense_CSD_CFG_REG = newRegValue;
 985              		.loc 1 1615 0
 986 0026 1A60     		str	r2, [r3]
1616:.\Generated_Source\PSoC4/CapSense.c **** 
1617:.\Generated_Source\PSoC4/CapSense.c **** 	/* Set Idac Value = 0 */
1618:.\Generated_Source\PSoC4/CapSense.c **** #if (CapSense_IDAC_CNT == 1u)   
1619:.\Generated_Source\PSoC4/CapSense.c **** 	CapSense_CSD_IDAC_REG &= ~(CapSense_CSD_IDAC1_DATA_MASK);
1620:.\Generated_Source\PSoC4/CapSense.c **** #else
1621:.\Generated_Source\PSoC4/CapSense.c **** 	CapSense_CSD_IDAC_REG &= ~(CapSense_CSD_IDAC1_DATA_MASK | CapSense_CSD_IDAC2_DATA_MASK);          
 987              		.loc 1 1621 0
 988 0028 084B     		ldr	r3, .L54+16
 989 002a 1968     		ldr	r1, [r3]
 990 002c 084A     		ldr	r2, .L54+20
 991              	.LVL139:
 992 002e 0A40     		and	r2, r1
 993 0030 1A60     		str	r2, [r3]
 994              	.LVL140:
1622:.\Generated_Source\PSoC4/CapSense.c **** #endif /* (CapSense_IDAC_CNT == 1u) */
1623:.\Generated_Source\PSoC4/CapSense.c **** 
1624:.\Generated_Source\PSoC4/CapSense.c **** 	CyIntEnable(CapSense_ISR_NUMBER);
 995              		.loc 1 1624 0
 996 0032 1020     		mov	r0, #16
 997 0034 FFF7FEFF 		bl	CyIntEnable
 998              	.LVL141:
1625:.\Generated_Source\PSoC4/CapSense.c **** }
 999              		.loc 1 1625 0
 1000              		@ sp needed
 1001 0038 08BD     		pop	{r3, pc}
 1002              	.L55:
 1003 003a C046     		.align	2
 1004              	.L54:
 1005 003c 0C002840 		.word	1076363276
 1006 0040 00000000 		.word	.LANCHOR0
 1007 0044 04002840 		.word	1076363268
 1008 0048 FF1FDFFF 		.word	-2154497
 1009 004c 08002840 		.word	1076363272
 1010 0050 00FF80FF 		.word	-8323328
 1011              		.cfi_endproc
 1012              	.LFE55:
 1013              		.size	CapSense_PostScan, .-CapSense_PostScan
 1014              		.section	.text.CapSense_EnableShieldElectrode,"ax",%progbits
 1015              		.align	2
 1016              		.global	CapSense_EnableShieldElectrode
 1017              		.code	16
 1018              		.thumb_func
 1019              		.type	CapSense_EnableShieldElectrode, %function
 1020              	CapSense_EnableShieldElectrode:
 1021              	.LFB56:
ARM GAS  C:\Users\ALEXAN~1\AppData\Local\Temp\cckq0yk2.s 			page 48


1626:.\Generated_Source\PSoC4/CapSense.c **** 
1627:.\Generated_Source\PSoC4/CapSense.c **** 
1628:.\Generated_Source\PSoC4/CapSense.c **** /*******************************************************************************
1629:.\Generated_Source\PSoC4/CapSense.c **** * Function Name: CapSense_EnableShieldElectrode
1630:.\Generated_Source\PSoC4/CapSense.c **** ********************************************************************************
1631:.\Generated_Source\PSoC4/CapSense.c **** *
1632:.\Generated_Source\PSoC4/CapSense.c **** * Summary:
1633:.\Generated_Source\PSoC4/CapSense.c **** *  This API enables or disables the shield electrode on a specified port pin.
1634:.\Generated_Source\PSoC4/CapSense.c **** *
1635:.\Generated_Source\PSoC4/CapSense.c **** * Parameters:
1636:.\Generated_Source\PSoC4/CapSense.c **** *  portNumber: contains the shield electrode port number (0, 1, 2).
1637:.\Generated_Source\PSoC4/CapSense.c **** *  pinNumber: contains the shield electrode pin number (0, 1, 2, ... , 7).
1638:.\Generated_Source\PSoC4/CapSense.c **** *
1639:.\Generated_Source\PSoC4/CapSense.c **** * Return:
1640:.\Generated_Source\PSoC4/CapSense.c **** *  None
1641:.\Generated_Source\PSoC4/CapSense.c **** *
1642:.\Generated_Source\PSoC4/CapSense.c **** * Global Variables:
1643:.\Generated_Source\PSoC4/CapSense.c **** *  CapSense_prtCfgTbl[] - Contains pointers to the port config registers for each port.
1644:.\Generated_Source\PSoC4/CapSense.c **** *  CapSense_prtSelTbl[] - Contains pointers to the HSIOM registers for each port.
1645:.\Generated_Source\PSoC4/CapSense.c **** *
1646:.\Generated_Source\PSoC4/CapSense.c **** * Side Effects: 
1647:.\Generated_Source\PSoC4/CapSense.c **** *  None
1648:.\Generated_Source\PSoC4/CapSense.c **** *
1649:.\Generated_Source\PSoC4/CapSense.c **** *******************************************************************************/
1650:.\Generated_Source\PSoC4/CapSense.c **** void CapSense_EnableShieldElectrode(uint32 pinNumber, uint32 portNumber)
1651:.\Generated_Source\PSoC4/CapSense.c **** {
 1022              		.loc 1 1651 0
 1023              		.cfi_startproc
 1024              	.LVL142:
 1025 0000 30B5     		push	{r4, r5, lr}
 1026              		.cfi_def_cfa_offset 12
 1027              		.cfi_offset 4, -12
 1028              		.cfi_offset 5, -8
 1029              		.cfi_offset 14, -4
1652:.\Generated_Source\PSoC4/CapSense.c **** 	uint32 newRegValue;
1653:.\Generated_Source\PSoC4/CapSense.c **** 	
1654:.\Generated_Source\PSoC4/CapSense.c **** 	*CapSense_prtCfgTbl[portNumber] &= ~(CapSense_CSD_PIN_MODE_MASK << (pinNumber * CapSense_PC_PIN_CF
 1030              		.loc 1 1654 0
 1031 0002 8900     		lsl	r1, r1, #2
 1032              	.LVL143:
 1033 0004 0A4B     		ldr	r3, .L57
 1034 0006 5918     		add	r1, r3, r1
 1035 0008 8B6A     		ldr	r3, [r1, #40]
 1036 000a 1A68     		ldr	r2, [r3]
 1037 000c 4400     		lsl	r4, r0, #1
 1038 000e 2418     		add	r4, r4, r0
 1039 0010 0725     		mov	r5, #7
 1040 0012 A540     		lsl	r5, r5, r4
 1041 0014 AA43     		bic	r2, r5
 1042 0016 1A60     		str	r2, [r3]
1655:.\Generated_Source\PSoC4/CapSense.c **** 	newRegValue = *CapSense_prtSelTbl[portNumber];
 1043              		.loc 1 1655 0
 1044 0018 0B69     		ldr	r3, [r1, #16]
 1045 001a 1A68     		ldr	r2, [r3]
 1046              	.LVL144:
1656:.\Generated_Source\PSoC4/CapSense.c ****     newRegValue &= ~(CapSense_CSD_HSIOM_MASK << (pinNumber * CapSense_HSIOM_PIN_CFG_SIZE));
 1047              		.loc 1 1656 0
ARM GAS  C:\Users\ALEXAN~1\AppData\Local\Temp\cckq0yk2.s 			page 49


 1048 001c 8000     		lsl	r0, r0, #2
 1049              	.LVL145:
 1050 001e 0F21     		mov	r1, #15
 1051 0020 8140     		lsl	r1, r1, r0
 1052 0022 8A43     		bic	r2, r1
 1053              	.LVL146:
1657:.\Generated_Source\PSoC4/CapSense.c ****     newRegValue |= (CapSense_CSD_SHIELD_PORT_MODE << (pinNumber * CapSense_HSIOM_PIN_CFG_SIZE));
 1054              		.loc 1 1657 0
 1055 0024 0521     		mov	r1, #5
 1056 0026 8140     		lsl	r1, r1, r0
 1057 0028 081C     		mov	r0, r1
 1058 002a 1043     		orr	r0, r2
 1059              	.LVL147:
1658:.\Generated_Source\PSoC4/CapSense.c ****     *CapSense_prtSelTbl[portNumber] = newRegValue;
 1060              		.loc 1 1658 0
 1061 002c 1860     		str	r0, [r3]
1659:.\Generated_Source\PSoC4/CapSense.c **** }
 1062              		.loc 1 1659 0
 1063              		@ sp needed
 1064 002e 30BD     		pop	{r4, r5, pc}
 1065              	.L58:
 1066              		.align	2
 1067              	.L57:
 1068 0030 00000000 		.word	.LANCHOR1
 1069              		.cfi_endproc
 1070              	.LFE56:
 1071              		.size	CapSense_EnableShieldElectrode, .-CapSense_EnableShieldElectrode
 1072              		.section	.text.CapSense_SetShieldDelay,"ax",%progbits
 1073              		.align	2
 1074              		.global	CapSense_SetShieldDelay
 1075              		.code	16
 1076              		.thumb_func
 1077              		.type	CapSense_SetShieldDelay, %function
 1078              	CapSense_SetShieldDelay:
 1079              	.LFB57:
1660:.\Generated_Source\PSoC4/CapSense.c **** 
1661:.\Generated_Source\PSoC4/CapSense.c **** 
1662:.\Generated_Source\PSoC4/CapSense.c **** /*******************************************************************************
1663:.\Generated_Source\PSoC4/CapSense.c **** * Function Name: CapSense_SetShieldDelay
1664:.\Generated_Source\PSoC4/CapSense.c **** ********************************************************************************
1665:.\Generated_Source\PSoC4/CapSense.c **** *
1666:.\Generated_Source\PSoC4/CapSense.c **** * Summary:
1667:.\Generated_Source\PSoC4/CapSense.c **** *  This API sets a shield delay.
1668:.\Generated_Source\PSoC4/CapSense.c **** *
1669:.\Generated_Source\PSoC4/CapSense.c **** * Parameters:
1670:.\Generated_Source\PSoC4/CapSense.c **** *  delay:  shield delay value:
1671:.\Generated_Source\PSoC4/CapSense.c **** *                               0 - no delay
1672:.\Generated_Source\PSoC4/CapSense.c **** *                               1 - 1 cycle delay
1673:.\Generated_Source\PSoC4/CapSense.c **** *                               2 - 2 cycles delay
1674:.\Generated_Source\PSoC4/CapSense.c **** *
1675:.\Generated_Source\PSoC4/CapSense.c **** * Return:
1676:.\Generated_Source\PSoC4/CapSense.c **** *  None
1677:.\Generated_Source\PSoC4/CapSense.c **** *
1678:.\Generated_Source\PSoC4/CapSense.c **** * Global Variables:
1679:.\Generated_Source\PSoC4/CapSense.c **** *  None
1680:.\Generated_Source\PSoC4/CapSense.c **** *
1681:.\Generated_Source\PSoC4/CapSense.c **** * Side Effects: 
ARM GAS  C:\Users\ALEXAN~1\AppData\Local\Temp\cckq0yk2.s 			page 50


1682:.\Generated_Source\PSoC4/CapSense.c **** *  None
1683:.\Generated_Source\PSoC4/CapSense.c **** *
1684:.\Generated_Source\PSoC4/CapSense.c **** *******************************************************************************/
1685:.\Generated_Source\PSoC4/CapSense.c **** void CapSense_SetShieldDelay(uint32 delay)
1686:.\Generated_Source\PSoC4/CapSense.c **** {
 1080              		.loc 1 1686 0
 1081              		.cfi_startproc
 1082              	.LVL148:
1687:.\Generated_Source\PSoC4/CapSense.c ****     uint32 newRegValue;
1688:.\Generated_Source\PSoC4/CapSense.c ****     
1689:.\Generated_Source\PSoC4/CapSense.c ****     delay &= 0x03u;
 1083              		.loc 1 1689 0
 1084 0000 0323     		mov	r3, #3
 1085 0002 1840     		and	r0, r3
 1086              	.LVL149:
1690:.\Generated_Source\PSoC4/CapSense.c ****     
1691:.\Generated_Source\PSoC4/CapSense.c ****     newRegValue = CapSense_CSD_CFG_REG;
 1087              		.loc 1 1691 0
 1088 0004 024B     		ldr	r3, .L60
 1089 0006 1A68     		ldr	r2, [r3]
 1090              	.LVL150:
1692:.\Generated_Source\PSoC4/CapSense.c ****     newRegValue &= (uint32)(~(uint32)CapSense_SHIELD_DELAY);    
1693:.\Generated_Source\PSoC4/CapSense.c ****     newRegValue |= (delay << CapSense_CSD_CFG_SHIELD_DELAY_POS);    
 1091              		.loc 1 1693 0
 1092 0008 4002     		lsl	r0, r0, #9
 1093              	.LVL151:
 1094 000a 1043     		orr	r0, r2
 1095              	.LVL152:
1694:.\Generated_Source\PSoC4/CapSense.c ****     CapSense_CSD_CFG_REG = newRegValue;
 1096              		.loc 1 1694 0
 1097 000c 1860     		str	r0, [r3]
1695:.\Generated_Source\PSoC4/CapSense.c **** }
 1098              		.loc 1 1695 0
 1099              		@ sp needed
 1100 000e 7047     		bx	lr
 1101              	.L61:
 1102              		.align	2
 1103              	.L60:
 1104 0010 04002840 		.word	1076363268
 1105              		.cfi_endproc
 1106              	.LFE57:
 1107              		.size	CapSense_SetShieldDelay, .-CapSense_SetShieldDelay
 1108              		.section	.text.CapSense_Init,"ax",%progbits
 1109              		.align	2
 1110              		.global	CapSense_Init
 1111              		.code	16
 1112              		.thumb_func
 1113              		.type	CapSense_Init, %function
 1114              	CapSense_Init:
 1115              	.LFB35:
 204:.\Generated_Source\PSoC4/CapSense.c **** {   
 1116              		.loc 1 204 0
 1117              		.cfi_startproc
 1118 0000 08B5     		push	{r3, lr}
 1119              		.cfi_def_cfa_offset 8
 1120              		.cfi_offset 3, -8
 1121              		.cfi_offset 14, -4
ARM GAS  C:\Users\ALEXAN~1\AppData\Local\Temp\cckq0yk2.s 			page 51


 1122              	.LVL153:
 235:.\Generated_Source\PSoC4/CapSense.c **** 	for(curSensor = 0u; curSensor < CapSense_TOTAL_SENSOR_COUNT; curSensor++)
 1123              		.loc 1 235 0
 1124 0002 0023     		mov	r3, #0
 237:.\Generated_Source\PSoC4/CapSense.c **** 		CapSense_unscannedSnsDriveMode[curSensor] = CapSense_CONNECT_INACTIVE_SNS;
 1125              		.loc 1 237 0
 1126 0004 0749     		ldr	r1, .L65
 1127 0006 0122     		mov	r2, #1
 235:.\Generated_Source\PSoC4/CapSense.c **** 	for(curSensor = 0u; curSensor < CapSense_TOTAL_SENSOR_COUNT; curSensor++)
 1128              		.loc 1 235 0
 1129 0008 01E0     		b	.L63
 1130              	.LVL154:
 1131              	.L64:
 237:.\Generated_Source\PSoC4/CapSense.c **** 		CapSense_unscannedSnsDriveMode[curSensor] = CapSense_CONNECT_INACTIVE_SNS;
 1132              		.loc 1 237 0 discriminator 2
 1133 000a CA54     		strb	r2, [r1, r3]
 235:.\Generated_Source\PSoC4/CapSense.c **** 	for(curSensor = 0u; curSensor < CapSense_TOTAL_SENSOR_COUNT; curSensor++)
 1134              		.loc 1 235 0 discriminator 2
 1135 000c 0133     		add	r3, r3, #1
 1136              	.LVL155:
 1137              	.L63:
 235:.\Generated_Source\PSoC4/CapSense.c **** 	for(curSensor = 0u; curSensor < CapSense_TOTAL_SENSOR_COUNT; curSensor++)
 1138              		.loc 1 235 0 is_stmt 0 discriminator 1
 1139 000e 042B     		cmp	r3, #4
 1140 0010 FBD9     		bls	.L64
 240:.\Generated_Source\PSoC4/CapSense.c **** 	CapSense_CsdHwBlockInit();
 1141              		.loc 1 240 0 is_stmt 1
 1142 0012 FFF7FEFF 		bl	CapSense_CsdHwBlockInit
 1143              	.LVL156:
 241:.\Generated_Source\PSoC4/CapSense.c ****     CapSense_SetShieldDelay(CapSense_SHIELD_DELAY );
 1144              		.loc 1 241 0
 1145 0016 0020     		mov	r0, #0
 1146 0018 FFF7FEFF 		bl	CapSense_SetShieldDelay
 1147              	.LVL157:
 244:.\Generated_Source\PSoC4/CapSense.c ****     CapSense_ClearSensors();
 1148              		.loc 1 244 0
 1149 001c FFF7FEFF 		bl	CapSense_ClearSensors
 1150              	.LVL158:
 245:.\Generated_Source\PSoC4/CapSense.c **** }
 1151              		.loc 1 245 0
 1152              		@ sp needed
 1153 0020 08BD     		pop	{r3, pc}
 1154              	.L66:
 1155 0022 C046     		.align	2
 1156              	.L65:
 1157 0024 00000000 		.word	CapSense_unscannedSnsDriveMode
 1158              		.cfi_endproc
 1159              	.LFE35:
 1160              		.size	CapSense_Init, .-CapSense_Init
 1161              		.section	.text.CapSense_Start,"ax",%progbits
 1162              		.align	2
 1163              		.global	CapSense_Start
 1164              		.code	16
 1165              		.thumb_func
 1166              		.type	CapSense_Start, %function
 1167              	CapSense_Start:
 1168              	.LFB38:
ARM GAS  C:\Users\ALEXAN~1\AppData\Local\Temp\cckq0yk2.s 			page 52


 413:.\Generated_Source\PSoC4/CapSense.c **** {
 1169              		.loc 1 413 0
 1170              		.cfi_startproc
 1171 0000 08B5     		push	{r3, lr}
 1172              		.cfi_def_cfa_offset 8
 1173              		.cfi_offset 3, -8
 1174              		.cfi_offset 14, -4
 423:.\Generated_Source\PSoC4/CapSense.c ****     if (CapSense_initVar == 0u)
 1175              		.loc 1 423 0
 1176 0002 094B     		ldr	r3, .L69
 1177 0004 DB7B     		ldrb	r3, [r3, #15]
 1178 0006 002B     		cmp	r3, #0
 1179 0008 04D1     		bne	.L68
 425:.\Generated_Source\PSoC4/CapSense.c ****         CapSense_Init();
 1180              		.loc 1 425 0
 1181 000a FFF7FEFF 		bl	CapSense_Init
 1182              	.LVL159:
 426:.\Generated_Source\PSoC4/CapSense.c ****         CapSense_initVar = 1u;
 1183              		.loc 1 426 0
 1184 000e 0122     		mov	r2, #1
 1185 0010 054B     		ldr	r3, .L69
 1186 0012 DA73     		strb	r2, [r3, #15]
 1187              	.L68:
 428:.\Generated_Source\PSoC4/CapSense.c ****     CapSense_Enable();
 1188              		.loc 1 428 0
 1189 0014 FFF7FEFF 		bl	CapSense_Enable
 1190              	.LVL160:
 477:.\Generated_Source\PSoC4/CapSense.c **** 	CapSense_CSD_CFG_REG |= CapSense_CSD_CFG_SENSE_INSEL;
 1191              		.loc 1 477 0
 1192 0018 044B     		ldr	r3, .L69+4
 1193 001a 1968     		ldr	r1, [r3]
 1194 001c 8022     		mov	r2, #128
 1195 001e D203     		lsl	r2, r2, #15
 1196 0020 0A43     		orr	r2, r1
 1197 0022 1A60     		str	r2, [r3]
 478:.\Generated_Source\PSoC4/CapSense.c **** }
 1198              		.loc 1 478 0
 1199              		@ sp needed
 1200 0024 08BD     		pop	{r3, pc}
 1201              	.L70:
 1202 0026 C046     		.align	2
 1203              	.L69:
 1204 0028 00000000 		.word	.LANCHOR0
 1205 002c 04002840 		.word	1076363268
 1206              		.cfi_endproc
 1207              	.LFE38:
 1208              		.size	CapSense_Start, .-CapSense_Start
 1209              		.section	.text.CapSense_ReadCurrentScanningSensor,"ax",%progbits
 1210              		.align	2
 1211              		.global	CapSense_ReadCurrentScanningSensor
 1212              		.code	16
 1213              		.thumb_func
 1214              		.type	CapSense_ReadCurrentScanningSensor, %function
 1215              	CapSense_ReadCurrentScanningSensor:
 1216              	.LFB58:
1696:.\Generated_Source\PSoC4/CapSense.c **** 
1697:.\Generated_Source\PSoC4/CapSense.c **** 
ARM GAS  C:\Users\ALEXAN~1\AppData\Local\Temp\cckq0yk2.s 			page 53


1698:.\Generated_Source\PSoC4/CapSense.c **** /*******************************************************************************
1699:.\Generated_Source\PSoC4/CapSense.c **** * Function Name: CapSense_ReadCurrentScanningSensor
1700:.\Generated_Source\PSoC4/CapSense.c **** ********************************************************************************
1701:.\Generated_Source\PSoC4/CapSense.c **** *
1702:.\Generated_Source\PSoC4/CapSense.c **** * Summary:
1703:.\Generated_Source\PSoC4/CapSense.c **** *  This API returns scanning sensor number when sensor scan is in progress. 
1704:.\Generated_Source\PSoC4/CapSense.c **** *  When sensor scan is completed the API returns 
1705:.\Generated_Source\PSoC4/CapSense.c **** *  $INSTANCE_NAME`_NOT_SENSOR (0xFFFFFFFF) (when no sensor is scanned).
1706:.\Generated_Source\PSoC4/CapSense.c **** *
1707:.\Generated_Source\PSoC4/CapSense.c **** * Parameters:
1708:.\Generated_Source\PSoC4/CapSense.c **** *	None.
1709:.\Generated_Source\PSoC4/CapSense.c **** *
1710:.\Generated_Source\PSoC4/CapSense.c **** * Return:
1711:.\Generated_Source\PSoC4/CapSense.c **** *  Returns Sensor number if sensor is being scanned and 
1712:.\Generated_Source\PSoC4/CapSense.c **** *  $INSTANCE_NAME`_NOT_SENSOR (0xFFFFFFFF) if scanning is complete.
1713:.\Generated_Source\PSoC4/CapSense.c **** *
1714:.\Generated_Source\PSoC4/CapSense.c **** * Global Variables:
1715:.\Generated_Source\PSoC4/CapSense.c **** *  CapSense_sensorIndex - the sensor number is being scanned.
1716:.\Generated_Source\PSoC4/CapSense.c **** *
1717:.\Generated_Source\PSoC4/CapSense.c **** * Side Effects: 
1718:.\Generated_Source\PSoC4/CapSense.c **** *  None
1719:.\Generated_Source\PSoC4/CapSense.c **** *
1720:.\Generated_Source\PSoC4/CapSense.c **** *******************************************************************************/
1721:.\Generated_Source\PSoC4/CapSense.c **** uint32 CapSense_ReadCurrentScanningSensor(void)
1722:.\Generated_Source\PSoC4/CapSense.c **** {
 1217              		.loc 1 1722 0
 1218              		.cfi_startproc
1723:.\Generated_Source\PSoC4/CapSense.c ****     return ((uint32)(( 0u != (CapSense_csdStatusVar & CapSense_SW_STS_BUSY)) ? 
 1219              		.loc 1 1723 0
 1220 0000 054B     		ldr	r3, .L74
 1221 0002 1B78     		ldrb	r3, [r3]
 1222 0004 DA07     		lsl	r2, r3, #31
 1223 0006 03D5     		bpl	.L73
 1224              		.loc 1 1723 0 is_stmt 0 discriminator 1
 1225 0008 034B     		ldr	r3, .L74
 1226 000a 987B     		ldrb	r0, [r3, #14]
 1227 000c C0B2     		uxtb	r0, r0
 1228 000e 01E0     		b	.L72
 1229              	.L73:
 1230              		.loc 1 1723 0
 1231 0010 0120     		mov	r0, #1
 1232 0012 4042     		neg	r0, r0
 1233              	.L72:
1724:.\Generated_Source\PSoC4/CapSense.c ****                      CapSense_sensorIndex : CapSense_NOT_SENSOR));
1725:.\Generated_Source\PSoC4/CapSense.c **** }
 1234              		.loc 1 1725 0 is_stmt 1 discriminator 3
 1235              		@ sp needed
 1236 0014 7047     		bx	lr
 1237              	.L75:
 1238 0016 C046     		.align	2
 1239              	.L74:
 1240 0018 00000000 		.word	.LANCHOR0
 1241              		.cfi_endproc
 1242              	.LFE58:
 1243              		.size	CapSense_ReadCurrentScanningSensor, .-CapSense_ReadCurrentScanningSensor
 1244              		.section	.text.CapSense_GetBitValue,"ax",%progbits
 1245              		.align	2
ARM GAS  C:\Users\ALEXAN~1\AppData\Local\Temp\cckq0yk2.s 			page 54


 1246              		.global	CapSense_GetBitValue
 1247              		.code	16
 1248              		.thumb_func
 1249              		.type	CapSense_GetBitValue, %function
 1250              	CapSense_GetBitValue:
 1251              	.LFB59:
1726:.\Generated_Source\PSoC4/CapSense.c **** 
1727:.\Generated_Source\PSoC4/CapSense.c **** 
1728:.\Generated_Source\PSoC4/CapSense.c **** /*******************************************************************************
1729:.\Generated_Source\PSoC4/CapSense.c **** * Function Name: CapSense_GetBitValue
1730:.\Generated_Source\PSoC4/CapSense.c **** ********************************************************************************
1731:.\Generated_Source\PSoC4/CapSense.c **** *
1732:.\Generated_Source\PSoC4/CapSense.c **** * Summary:
1733:.\Generated_Source\PSoC4/CapSense.c **** *  The API returns a bit status of the bit in the table array which contains the masks.
1734:.\Generated_Source\PSoC4/CapSense.c **** * 
1735:.\Generated_Source\PSoC4/CapSense.c **** * Parameters:
1736:.\Generated_Source\PSoC4/CapSense.c **** *  table[] - array with bit masks.
1737:.\Generated_Source\PSoC4/CapSense.c **** *  position - position of bit in the table[] array.
1738:.\Generated_Source\PSoC4/CapSense.c **** *
1739:.\Generated_Source\PSoC4/CapSense.c **** * Return:
1740:.\Generated_Source\PSoC4/CapSense.c **** *  0 - bit is not set; 1 - bit is set.
1741:.\Generated_Source\PSoC4/CapSense.c **** *
1742:.\Generated_Source\PSoC4/CapSense.c **** * Global Variables:
1743:.\Generated_Source\PSoC4/CapSense.c **** *  None
1744:.\Generated_Source\PSoC4/CapSense.c **** *
1745:.\Generated_Source\PSoC4/CapSense.c **** * Side Effects:
1746:.\Generated_Source\PSoC4/CapSense.c **** *  None
1747:.\Generated_Source\PSoC4/CapSense.c **** *
1748:.\Generated_Source\PSoC4/CapSense.c **** *******************************************************************************/
1749:.\Generated_Source\PSoC4/CapSense.c **** uint32 CapSense_GetBitValue(const uint8 table[], uint32 position)
1750:.\Generated_Source\PSoC4/CapSense.c **** {
 1252              		.loc 1 1750 0
 1253              		.cfi_startproc
 1254              	.LVL161:
1751:.\Generated_Source\PSoC4/CapSense.c ****     uint32 offset;
1752:.\Generated_Source\PSoC4/CapSense.c **** 	uint8 enMask;
1753:.\Generated_Source\PSoC4/CapSense.c **** 	
1754:.\Generated_Source\PSoC4/CapSense.c **** 	/* position is divided by 8 to calculate the element of the 
1755:.\Generated_Source\PSoC4/CapSense.c **** 	   table[] array that contains the enable bit 
1756:.\Generated_Source\PSoC4/CapSense.c **** 	   for an appropriate sensor.
1757:.\Generated_Source\PSoC4/CapSense.c **** 	*/
1758:.\Generated_Source\PSoC4/CapSense.c **** 	offset = (position >> 3u);
 1255              		.loc 1 1758 0
 1256 0000 CB08     		lsr	r3, r1, #3
 1257              	.LVL162:
1759:.\Generated_Source\PSoC4/CapSense.c **** 	
1760:.\Generated_Source\PSoC4/CapSense.c **** 	/* The enMask calculation for the appropriate sensor. Operation (position & 0x07u) 
1761:.\Generated_Source\PSoC4/CapSense.c **** 	   intends to calculate the enable bit offset for the 8-bit element of the 
1762:.\Generated_Source\PSoC4/CapSense.c **** 	   table[] array.
1763:.\Generated_Source\PSoC4/CapSense.c **** 	*/
1764:.\Generated_Source\PSoC4/CapSense.c **** 	enMask = 0x01u << (position & 0x07u);
 1258              		.loc 1 1764 0
 1259 0002 0722     		mov	r2, #7
 1260 0004 1140     		and	r1, r2
 1261              	.LVL163:
 1262 0006 0122     		mov	r2, #1
 1263 0008 8A40     		lsl	r2, r2, r1
ARM GAS  C:\Users\ALEXAN~1\AppData\Local\Temp\cckq0yk2.s 			page 55


 1264              	.LVL164:
1765:.\Generated_Source\PSoC4/CapSense.c ****     
1766:.\Generated_Source\PSoC4/CapSense.c ****     return ((0u !=(table[offset] & enMask)) ? 1Lu : 0Lu);
 1265              		.loc 1 1766 0
 1266 000a C35C     		ldrb	r3, [r0, r3]
 1267              	.LVL165:
 1268 000c 1A42     		tst	r2, r3
 1269 000e 01D0     		beq	.L78
 1270 0010 0120     		mov	r0, #1
 1271              	.LVL166:
 1272 0012 00E0     		b	.L77
 1273              	.LVL167:
 1274              	.L78:
 1275 0014 0020     		mov	r0, #0
 1276              	.LVL168:
 1277              	.L77:
1767:.\Generated_Source\PSoC4/CapSense.c **** }
 1278              		.loc 1 1767 0 discriminator 3
 1279              		@ sp needed
 1280 0016 7047     		bx	lr
 1281              		.cfi_endproc
 1282              	.LFE59:
 1283              		.size	CapSense_GetBitValue, .-CapSense_GetBitValue
 1284              		.section	.text.CapSense_FindNextSensor,"ax",%progbits
 1285              		.align	2
 1286              		.global	CapSense_FindNextSensor
 1287              		.code	16
 1288              		.thumb_func
 1289              		.type	CapSense_FindNextSensor, %function
 1290              	CapSense_FindNextSensor:
 1291              	.LFB40:
 543:.\Generated_Source\PSoC4/CapSense.c **** {
 1292              		.loc 1 543 0
 1293              		.cfi_startproc
 1294              	.LVL169:
 1295 0000 38B5     		push	{r3, r4, r5, lr}
 1296              		.cfi_def_cfa_offset 16
 1297              		.cfi_offset 3, -16
 1298              		.cfi_offset 4, -12
 1299              		.cfi_offset 5, -8
 1300              		.cfi_offset 14, -4
 1301 0002 041C     		mov	r4, r0
 555:.\Generated_Source\PSoC4/CapSense.c ****         enableFlag = CapSense_GetBitValue(CapSense_sensorEnableMask, (uint32)snsIndex);
 1302              		.loc 1 555 0
 1303 0004 064D     		ldr	r5, .L83
 1304              	.LVL170:
 1305              	.L81:
 550:.\Generated_Source\PSoC4/CapSense.c ****         snsIndex++;
 1306              		.loc 1 550 0
 1307 0006 0134     		add	r4, r4, #1
 1308              	.LVL171:
 1309 0008 E4B2     		uxtb	r4, r4
 1310              	.LVL172:
 551:.\Generated_Source\PSoC4/CapSense.c ****         if(snsIndex == CapSense_TOTAL_SENSOR_COUNT)
 1311              		.loc 1 551 0
 1312 000a 052C     		cmp	r4, #5
 1313 000c 05D0     		beq	.L80
ARM GAS  C:\Users\ALEXAN~1\AppData\Local\Temp\cckq0yk2.s 			page 56


 555:.\Generated_Source\PSoC4/CapSense.c ****         enableFlag = CapSense_GetBitValue(CapSense_sensorEnableMask, (uint32)snsIndex);
 1314              		.loc 1 555 0
 1315 000e 281C     		mov	r0, r5
 1316 0010 211C     		mov	r1, r4
 1317 0012 FFF7FEFF 		bl	CapSense_GetBitValue
 1318              	.LVL173:
 557:.\Generated_Source\PSoC4/CapSense.c ****     while(enableFlag == 0u);
 1319              		.loc 1 557 0
 1320 0016 0028     		cmp	r0, #0
 1321 0018 F5D0     		beq	.L81
 1322              	.LVL174:
 1323              	.L80:
 560:.\Generated_Source\PSoC4/CapSense.c **** }
 1324              		.loc 1 560 0
 1325 001a 201C     		mov	r0, r4
 1326              		@ sp needed
 1327              	.LVL175:
 1328 001c 38BD     		pop	{r3, r4, r5, pc}
 1329              	.L84:
 1330 001e C046     		.align	2
 1331              	.L83:
 1332 0020 00000000 		.word	.LANCHOR2
 1333              		.cfi_endproc
 1334              	.LFE40:
 1335              		.size	CapSense_FindNextSensor, .-CapSense_FindNextSensor
 1336              		.section	.text.CapSense_ScanEnabledWidgets,"ax",%progbits
 1337              		.align	2
 1338              		.global	CapSense_ScanEnabledWidgets
 1339              		.code	16
 1340              		.thumb_func
 1341              		.type	CapSense_ScanEnabledWidgets, %function
 1342              	CapSense_ScanEnabledWidgets:
 1343              	.LFB43:
 715:.\Generated_Source\PSoC4/CapSense.c **** {
 1344              		.loc 1 715 0
 1345              		.cfi_startproc
 1346 0000 10B5     		push	{r4, lr}
 1347              		.cfi_def_cfa_offset 8
 1348              		.cfi_offset 4, -8
 1349              		.cfi_offset 14, -4
 717:.\Generated_Source\PSoC4/CapSense.c ****     CapSense_csdStatusVar = 0u;
 1350              		.loc 1 717 0
 1351 0002 0B4C     		ldr	r4, .L87
 1352 0004 0023     		mov	r3, #0
 1353 0006 2370     		strb	r3, [r4]
 718:.\Generated_Source\PSoC4/CapSense.c ****     CapSense_sensorIndex = 0xFFu;
 1354              		.loc 1 718 0
 1355 0008 FF23     		mov	r3, #255
 1356 000a A373     		strb	r3, [r4, #14]
 721:.\Generated_Source\PSoC4/CapSense.c ****     CapSense_sensorIndex = (uint8)CapSense_FindNextSensor(CapSense_sensorIndex);
 1357              		.loc 1 721 0
 1358 000c A07B     		ldrb	r0, [r4, #14]
 1359 000e C0B2     		uxtb	r0, r0
 1360 0010 FFF7FEFF 		bl	CapSense_FindNextSensor
 1361              	.LVL176:
 1362 0014 A073     		strb	r0, [r4, #14]
 724:.\Generated_Source\PSoC4/CapSense.c ****     if(CapSense_sensorIndex < CapSense_TOTAL_SENSOR_COUNT)
ARM GAS  C:\Users\ALEXAN~1\AppData\Local\Temp\cckq0yk2.s 			page 57


 1363              		.loc 1 724 0
 1364 0016 A37B     		ldrb	r3, [r4, #14]
 1365 0018 DBB2     		uxtb	r3, r3
 1366 001a 042B     		cmp	r3, #4
 1367 001c 07D8     		bhi	.L85
 726:.\Generated_Source\PSoC4/CapSense.c ****         CapSense_csdStatusVar |= CapSense_SW_STS_BUSY;
 1368              		.loc 1 726 0
 1369 001e 2178     		ldrb	r1, [r4]
 1370 0020 0122     		mov	r2, #1
 1371 0022 0A43     		orr	r2, r1
 1372 0024 2270     		strb	r2, [r4]
 727:.\Generated_Source\PSoC4/CapSense.c ****         CapSense_PreScan((uint32)CapSense_sensorIndex);
 1373              		.loc 1 727 0
 1374 0026 A07B     		ldrb	r0, [r4, #14]
 1375 0028 C0B2     		uxtb	r0, r0
 1376 002a FFF7FEFF 		bl	CapSense_PreScan
 1377              	.LVL177:
 1378              	.L85:
 729:.\Generated_Source\PSoC4/CapSense.c **** }
 1379              		.loc 1 729 0
 1380              		@ sp needed
 1381 002e 10BD     		pop	{r4, pc}
 1382              	.L88:
 1383              		.align	2
 1384              	.L87:
 1385 0030 00000000 		.word	.LANCHOR0
 1386              		.cfi_endproc
 1387              	.LFE43:
 1388              		.size	CapSense_ScanEnabledWidgets, .-CapSense_ScanEnabledWidgets
 1389              		.section	.text.CapSense_SetBitValue,"ax",%progbits
 1390              		.align	2
 1391              		.global	CapSense_SetBitValue
 1392              		.code	16
 1393              		.thumb_func
 1394              		.type	CapSense_SetBitValue, %function
 1395              	CapSense_SetBitValue:
 1396              	.LFB60:
1768:.\Generated_Source\PSoC4/CapSense.c **** 
1769:.\Generated_Source\PSoC4/CapSense.c **** 
1770:.\Generated_Source\PSoC4/CapSense.c **** /*******************************************************************************
1771:.\Generated_Source\PSoC4/CapSense.c **** * Function Name: CapSense_SetBitValue
1772:.\Generated_Source\PSoC4/CapSense.c **** ********************************************************************************
1773:.\Generated_Source\PSoC4/CapSense.c **** *
1774:.\Generated_Source\PSoC4/CapSense.c **** * Summary:
1775:.\Generated_Source\PSoC4/CapSense.c **** *  The API sets a bit status of the bit in the table array which contains masks.
1776:.\Generated_Source\PSoC4/CapSense.c **** * 
1777:.\Generated_Source\PSoC4/CapSense.c **** * Parameters:
1778:.\Generated_Source\PSoC4/CapSense.c **** *  table[] - array with bit masks.
1779:.\Generated_Source\PSoC4/CapSense.c **** *  position - position of bit in the table[] array.
1780:.\Generated_Source\PSoC4/CapSense.c **** *  value: 0 - bit is not set; 1 - bit is set.
1781:.\Generated_Source\PSoC4/CapSense.c **** *
1782:.\Generated_Source\PSoC4/CapSense.c **** * Return:
1783:.\Generated_Source\PSoC4/CapSense.c **** *  None
1784:.\Generated_Source\PSoC4/CapSense.c **** *
1785:.\Generated_Source\PSoC4/CapSense.c **** * Global Variables:
1786:.\Generated_Source\PSoC4/CapSense.c **** *  None
1787:.\Generated_Source\PSoC4/CapSense.c **** *
ARM GAS  C:\Users\ALEXAN~1\AppData\Local\Temp\cckq0yk2.s 			page 58


1788:.\Generated_Source\PSoC4/CapSense.c **** * Side Effects:
1789:.\Generated_Source\PSoC4/CapSense.c **** *  None
1790:.\Generated_Source\PSoC4/CapSense.c **** *
1791:.\Generated_Source\PSoC4/CapSense.c **** *******************************************************************************/
1792:.\Generated_Source\PSoC4/CapSense.c **** void CapSense_SetBitValue(uint8 table[], uint32 position, uint32 value)
1793:.\Generated_Source\PSoC4/CapSense.c **** {
 1397              		.loc 1 1793 0
 1398              		.cfi_startproc
 1399              	.LVL178:
 1400 0000 10B5     		push	{r4, lr}
 1401              		.cfi_def_cfa_offset 8
 1402              		.cfi_offset 4, -8
 1403              		.cfi_offset 14, -4
1794:.\Generated_Source\PSoC4/CapSense.c ****     uint32 offset;
1795:.\Generated_Source\PSoC4/CapSense.c **** 	uint8 enMask;
1796:.\Generated_Source\PSoC4/CapSense.c **** 	
1797:.\Generated_Source\PSoC4/CapSense.c **** 	/* position is divided by 8 to calculate the element of the 
1798:.\Generated_Source\PSoC4/CapSense.c **** 	   table[] array that contains the enable bit 
1799:.\Generated_Source\PSoC4/CapSense.c **** 	   for an appropriate sensor.
1800:.\Generated_Source\PSoC4/CapSense.c **** 	*/
1801:.\Generated_Source\PSoC4/CapSense.c **** 	offset = (position >> 3u);
 1404              		.loc 1 1801 0
 1405 0002 CB08     		lsr	r3, r1, #3
 1406              	.LVL179:
1802:.\Generated_Source\PSoC4/CapSense.c **** 	
1803:.\Generated_Source\PSoC4/CapSense.c **** 	/* The enMask calculation for the appropriate sensor. Operation (position & 0x07u) 
1804:.\Generated_Source\PSoC4/CapSense.c **** 	   intends to calculate the enable bit offset for the 8-bit element of the 
1805:.\Generated_Source\PSoC4/CapSense.c **** 	   table[] array.
1806:.\Generated_Source\PSoC4/CapSense.c **** 	*/
1807:.\Generated_Source\PSoC4/CapSense.c **** 	enMask = 0x01u << (position & 0x07u);
 1407              		.loc 1 1807 0
 1408 0004 0724     		mov	r4, #7
 1409 0006 2140     		and	r1, r4
 1410              	.LVL180:
 1411 0008 0124     		mov	r4, #1
 1412 000a 8C40     		lsl	r4, r4, r1
 1413 000c E1B2     		uxtb	r1, r4
 1414              	.LVL181:
1808:.\Generated_Source\PSoC4/CapSense.c **** 	
1809:.\Generated_Source\PSoC4/CapSense.c **** 	if(0u != value)
 1415              		.loc 1 1809 0
 1416 000e 002A     		cmp	r2, #0
 1417 0010 04D0     		beq	.L90
1810:.\Generated_Source\PSoC4/CapSense.c **** 	{
1811:.\Generated_Source\PSoC4/CapSense.c **** 		table[offset] |= enMask;
 1418              		.loc 1 1811 0
 1419 0012 C018     		add	r0, r0, r3
 1420              	.LVL182:
 1421 0014 0378     		ldrb	r3, [r0]
 1422              	.LVL183:
 1423 0016 1943     		orr	r1, r3
 1424 0018 0170     		strb	r1, [r0]
 1425 001a 03E0     		b	.L89
 1426              	.LVL184:
 1427              	.L90:
1812:.\Generated_Source\PSoC4/CapSense.c **** 	}
1813:.\Generated_Source\PSoC4/CapSense.c **** 	else
ARM GAS  C:\Users\ALEXAN~1\AppData\Local\Temp\cckq0yk2.s 			page 59


1814:.\Generated_Source\PSoC4/CapSense.c **** 	{
1815:.\Generated_Source\PSoC4/CapSense.c **** 		table[offset] &= (uint8)~(enMask);
 1428              		.loc 1 1815 0
 1429 001c C018     		add	r0, r0, r3
 1430              	.LVL185:
 1431 001e 0378     		ldrb	r3, [r0]
 1432              	.LVL186:
 1433 0020 8B43     		bic	r3, r1
 1434 0022 0370     		strb	r3, [r0]
 1435              	.L89:
1816:.\Generated_Source\PSoC4/CapSense.c **** 	}
1817:.\Generated_Source\PSoC4/CapSense.c **** }
 1436              		.loc 1 1817 0
 1437              		@ sp needed
 1438              	.LVL187:
 1439 0024 10BD     		pop	{r4, pc}
 1440              		.cfi_endproc
 1441              	.LFE60:
 1442              		.size	CapSense_SetBitValue, .-CapSense_SetBitValue
 1443 0026 C046     		.section	.text.CapSense_ScanWidget,"ax",%progbits
 1444              		.align	2
 1445              		.global	CapSense_ScanWidget
 1446              		.code	16
 1447              		.thumb_func
 1448              		.type	CapSense_ScanWidget, %function
 1449              	CapSense_ScanWidget:
 1450              	.LFB42:
 630:.\Generated_Source\PSoC4/CapSense.c **** {
 1451              		.loc 1 630 0
 1452              		.cfi_startproc
 1453              	.LVL188:
 1454 0000 F8B5     		push	{r3, r4, r5, r6, r7, lr}
 1455              		.cfi_def_cfa_offset 24
 1456              		.cfi_offset 3, -24
 1457              		.cfi_offset 4, -20
 1458              		.cfi_offset 5, -16
 1459              		.cfi_offset 6, -12
 1460              		.cfi_offset 7, -8
 1461              		.cfi_offset 14, -4
 636:.\Generated_Source\PSoC4/CapSense.c **** 	CapSense_sensorIndex = CapSense_rawDataIndex[widget];
 1462              		.loc 1 636 0
 1463 0002 1C4B     		ldr	r3, .L102
 1464 0004 1F5C     		ldrb	r7, [r3, r0]
 1465 0006 1C4B     		ldr	r3, .L102+4
 1466 0008 9F73     		strb	r7, [r3, #14]
 639:.\Generated_Source\PSoC4/CapSense.c **** 	sensorsPerWidget = CapSense_numberOfSensors[widget];
 1467              		.loc 1 639 0
 1468 000a 1C4B     		ldr	r3, .L102+8
 1469 000c 1B5C     		ldrb	r3, [r3, r0]
 1470              	.LVL189:
 642:.\Generated_Source\PSoC4/CapSense.c **** 	if(sensorsPerWidget == 0u)
 1471              		.loc 1 642 0
 1472 000e 002B     		cmp	r3, #0
 1473 0010 00D1     		bne	.L93
 644:.\Generated_Source\PSoC4/CapSense.c **** 		sensorsPerWidget = 1u;
 1474              		.loc 1 644 0
 1475 0012 0123     		mov	r3, #1
ARM GAS  C:\Users\ALEXAN~1\AppData\Local\Temp\cckq0yk2.s 			page 60


 1476              	.LVL190:
 1477              	.L93:
 648:.\Generated_Source\PSoC4/CapSense.c **** 	lastSensor = (CapSense_rawDataIndex[widget] + sensorsPerWidget) - 1u;
 1478              		.loc 1 648 0
 1479 0014 FF18     		add	r7, r7, r3
 1480 0016 013F     		sub	r7, r7, #1
 1481              	.LVL191:
 651:.\Generated_Source\PSoC4/CapSense.c **** 	for(snsIndex = 0u; snsIndex < CapSense_TOTAL_SENSOR_MASK; snsIndex++)
 1482              		.loc 1 651 0
 1483 0018 0023     		mov	r3, #0
 1484              	.LVL192:
 1485 001a 04E0     		b	.L94
 1486              	.LVL193:
 1487              	.L95:
 654:.\Generated_Source\PSoC4/CapSense.c **** 		CapSense_sensorEnableMaskBackup[snsIndex] = CapSense_sensorEnableMask[snsIndex];
 1488              		.loc 1 654 0 discriminator 2
 1489 001c 1849     		ldr	r1, .L102+12
 1490 001e CA5C     		ldrb	r2, [r1, r3]
 1491 0020 1849     		ldr	r1, .L102+16
 1492 0022 CA54     		strb	r2, [r1, r3]
 651:.\Generated_Source\PSoC4/CapSense.c **** 	for(snsIndex = 0u; snsIndex < CapSense_TOTAL_SENSOR_MASK; snsIndex++)
 1493              		.loc 1 651 0 discriminator 2
 1494 0024 0133     		add	r3, r3, #1
 1495              	.LVL194:
 1496              	.L94:
 651:.\Generated_Source\PSoC4/CapSense.c **** 	for(snsIndex = 0u; snsIndex < CapSense_TOTAL_SENSOR_MASK; snsIndex++)
 1497              		.loc 1 651 0 is_stmt 0 discriminator 1
 1498 0026 002B     		cmp	r3, #0
 1499 0028 F8D0     		beq	.L95
 1500 002a 0024     		mov	r4, #0
 661:.\Generated_Source\PSoC4/CapSense.c **** 	    if((snsIndex >= CapSense_sensorIndex) && (snsIndex <= lastSensor))
 1501              		.loc 1 661 0 is_stmt 1
 1502 002c 124E     		ldr	r6, .L102+4
 669:.\Generated_Source\PSoC4/CapSense.c **** 		    CapSense_SetBitValue(CapSense_sensorEnableMask, snsIndex, 0u);
 1503              		.loc 1 669 0
 1504 002e 144D     		ldr	r5, .L102+12
 1505 0030 11E0     		b	.L96
 1506              	.LVL195:
 1507              	.L99:
 661:.\Generated_Source\PSoC4/CapSense.c **** 	    if((snsIndex >= CapSense_sensorIndex) && (snsIndex <= lastSensor))
 1508              		.loc 1 661 0
 1509 0032 B37B     		ldrb	r3, [r6, #14]
 1510 0034 DBB2     		uxtb	r3, r3
 1511 0036 A342     		cmp	r3, r4
 1512 0038 07D8     		bhi	.L97
 661:.\Generated_Source\PSoC4/CapSense.c **** 	    if((snsIndex >= CapSense_sensorIndex) && (snsIndex <= lastSensor))
 1513              		.loc 1 661 0 is_stmt 0 discriminator 1
 1514 003a BC42     		cmp	r4, r7
 1515 003c 05D8     		bhi	.L97
 664:.\Generated_Source\PSoC4/CapSense.c **** 			CapSense_SetBitValue(CapSense_sensorEnableMask, snsIndex, 1u);
 1516              		.loc 1 664 0 is_stmt 1
 1517 003e 1048     		ldr	r0, .L102+12
 1518 0040 211C     		mov	r1, r4
 1519 0042 0122     		mov	r2, #1
 1520 0044 FFF7FEFF 		bl	CapSense_SetBitValue
 1521              	.LVL196:
 1522 0048 04E0     		b	.L98
ARM GAS  C:\Users\ALEXAN~1\AppData\Local\Temp\cckq0yk2.s 			page 61


 1523              	.L97:
 669:.\Generated_Source\PSoC4/CapSense.c **** 		    CapSense_SetBitValue(CapSense_sensorEnableMask, snsIndex, 0u);
 1524              		.loc 1 669 0
 1525 004a 281C     		mov	r0, r5
 1526 004c 211C     		mov	r1, r4
 1527 004e 0022     		mov	r2, #0
 1528 0050 FFF7FEFF 		bl	CapSense_SetBitValue
 1529              	.LVL197:
 1530              	.L98:
 658:.\Generated_Source\PSoC4/CapSense.c **** 	for(snsIndex = 0u; snsIndex < CapSense_TOTAL_SENSOR_COUNT; snsIndex++)
 1531              		.loc 1 658 0
 1532 0054 0134     		add	r4, r4, #1
 1533              	.LVL198:
 1534              	.L96:
 658:.\Generated_Source\PSoC4/CapSense.c **** 	for(snsIndex = 0u; snsIndex < CapSense_TOTAL_SENSOR_COUNT; snsIndex++)
 1535              		.loc 1 658 0 is_stmt 0 discriminator 1
 1536 0056 042C     		cmp	r4, #4
 1537 0058 EBD9     		bls	.L99
 674:.\Generated_Source\PSoC4/CapSense.c ****     if(CapSense_sensorIndex < CapSense_TOTAL_SENSOR_COUNT)
 1538              		.loc 1 674 0 is_stmt 1
 1539 005a 074B     		ldr	r3, .L102+4
 1540 005c 9B7B     		ldrb	r3, [r3, #14]
 1541 005e DBB2     		uxtb	r3, r3
 1542 0060 042B     		cmp	r3, #4
 1543 0062 06D8     		bhi	.L92
 677:.\Generated_Source\PSoC4/CapSense.c **** 		CapSense_csdStatusVar = (CapSense_SW_STS_BUSY | CapSense_SW_CTRL_WIDGET_SCAN);
 1544              		.loc 1 677 0
 1545 0064 044B     		ldr	r3, .L102+4
 1546 0066 4122     		mov	r2, #65
 1547 0068 1A70     		strb	r2, [r3]
 679:.\Generated_Source\PSoC4/CapSense.c ****         CapSense_PreScan((uint32)CapSense_sensorIndex);
 1548              		.loc 1 679 0
 1549 006a 987B     		ldrb	r0, [r3, #14]
 1550 006c C0B2     		uxtb	r0, r0
 1551 006e FFF7FEFF 		bl	CapSense_PreScan
 1552              	.LVL199:
 1553              	.L92:
 681:.\Generated_Source\PSoC4/CapSense.c **** }
 1554              		.loc 1 681 0
 1555              		@ sp needed
 1556              	.LVL200:
 1557              	.LVL201:
 1558 0072 F8BD     		pop	{r3, r4, r5, r6, r7, pc}
 1559              	.L103:
 1560              		.align	2
 1561              	.L102:
 1562 0074 00000000 		.word	CapSense_rawDataIndex
 1563 0078 00000000 		.word	.LANCHOR0
 1564 007c 00000000 		.word	CapSense_numberOfSensors
 1565 0080 00000000 		.word	.LANCHOR2
 1566 0084 00000000 		.word	CapSense_sensorEnableMaskBackup
 1567              		.cfi_endproc
 1568              	.LFE42:
 1569              		.size	CapSense_ScanWidget, .-CapSense_ScanWidget
 1570              		.section	.text.CapSense_GetSenseClkDivider,"ax",%progbits
 1571              		.align	2
 1572              		.global	CapSense_GetSenseClkDivider
ARM GAS  C:\Users\ALEXAN~1\AppData\Local\Temp\cckq0yk2.s 			page 62


 1573              		.code	16
 1574              		.thumb_func
 1575              		.type	CapSense_GetSenseClkDivider, %function
 1576              	CapSense_GetSenseClkDivider:
 1577              	.LFB61:
1818:.\Generated_Source\PSoC4/CapSense.c **** 
1819:.\Generated_Source\PSoC4/CapSense.c **** 
1820:.\Generated_Source\PSoC4/CapSense.c **** 
1821:.\Generated_Source\PSoC4/CapSense.c **** /*******************************************************************************
1822:.\Generated_Source\PSoC4/CapSense.c **** * Function Name: CapSense_GetSenseClkDivider
1823:.\Generated_Source\PSoC4/CapSense.c **** ********************************************************************************
1824:.\Generated_Source\PSoC4/CapSense.c **** *
1825:.\Generated_Source\PSoC4/CapSense.c **** * Summary:
1826:.\Generated_Source\PSoC4/CapSense.c **** *  This API returns a value of the sense clock divider for the  sensor.
1827:.\Generated_Source\PSoC4/CapSense.c **** *
1828:.\Generated_Source\PSoC4/CapSense.c **** * Parameters:
1829:.\Generated_Source\PSoC4/CapSense.c **** *  sensor: sensor index. The index value can be 
1830:.\Generated_Source\PSoC4/CapSense.c **** *  from 0 to (CapSense_TOTAL_SENSOR_COUNT-1).
1831:.\Generated_Source\PSoC4/CapSense.c **** *
1832:.\Generated_Source\PSoC4/CapSense.c **** * Return:
1833:.\Generated_Source\PSoC4/CapSense.c **** *  This API returns the sense clock divider of the sensor. 
1834:.\Generated_Source\PSoC4/CapSense.c **** *
1835:.\Generated_Source\PSoC4/CapSense.c **** * Global Variables:
1836:.\Generated_Source\PSoC4/CapSense.c **** *  CapSense_senseClkDividerVal[] - stores the sense clock divider values.
1837:.\Generated_Source\PSoC4/CapSense.c **** * 
1838:.\Generated_Source\PSoC4/CapSense.c **** * Side Effects:
1839:.\Generated_Source\PSoC4/CapSense.c **** *  None
1840:.\Generated_Source\PSoC4/CapSense.c **** *
1841:.\Generated_Source\PSoC4/CapSense.c **** *******************************************************************************/
1842:.\Generated_Source\PSoC4/CapSense.c **** uint32 CapSense_GetSenseClkDivider(uint32 sensor)
1843:.\Generated_Source\PSoC4/CapSense.c **** {
 1578              		.loc 1 1843 0
 1579              		.cfi_startproc
 1580              	.LVL202:
1844:.\Generated_Source\PSoC4/CapSense.c **** 	#if(0u != CapSense_MULTIPLE_FREQUENCY_SET)
1845:.\Generated_Source\PSoC4/CapSense.c **** 		return((uint32)CapSense_senseClkDividerVal[sensor]);
 1581              		.loc 1 1845 0
 1582 0000 014B     		ldr	r3, .L105
 1583 0002 6033     		add	r3, r3, #96
 1584 0004 185C     		ldrb	r0, [r3, r0]
 1585              	.LVL203:
1846:.\Generated_Source\PSoC4/CapSense.c **** 	#else
1847:.\Generated_Source\PSoC4/CapSense.c **** 		return((uint32)CapSense_senseClkDividerVal);
1848:.\Generated_Source\PSoC4/CapSense.c **** 	#endif /* (0u != CapSense_MULTIPLE_FREQUENCY_SET) */
1849:.\Generated_Source\PSoC4/CapSense.c **** }
 1586              		.loc 1 1849 0
 1587              		@ sp needed
 1588 0006 7047     		bx	lr
 1589              	.L106:
 1590              		.align	2
 1591              	.L105:
 1592 0008 00000000 		.word	.LANCHOR1
 1593              		.cfi_endproc
 1594              	.LFE61:
 1595              		.size	CapSense_GetSenseClkDivider, .-CapSense_GetSenseClkDivider
 1596              		.section	.text.CapSense_GetModulatorClkDivider,"ax",%progbits
 1597              		.align	2
ARM GAS  C:\Users\ALEXAN~1\AppData\Local\Temp\cckq0yk2.s 			page 63


 1598              		.global	CapSense_GetModulatorClkDivider
 1599              		.code	16
 1600              		.thumb_func
 1601              		.type	CapSense_GetModulatorClkDivider, %function
 1602              	CapSense_GetModulatorClkDivider:
 1603              	.LFB62:
1850:.\Generated_Source\PSoC4/CapSense.c **** 
1851:.\Generated_Source\PSoC4/CapSense.c **** #if (CapSense_TUNING_METHOD != CapSense__TUNING_NONE)
1852:.\Generated_Source\PSoC4/CapSense.c **** 	/*******************************************************************************
1853:.\Generated_Source\PSoC4/CapSense.c **** 	* Function Name: CapSense_SetSenseClkDivider
1854:.\Generated_Source\PSoC4/CapSense.c **** 	********************************************************************************
1855:.\Generated_Source\PSoC4/CapSense.c **** 	*
1856:.\Generated_Source\PSoC4/CapSense.c **** 	* Summary:
1857:.\Generated_Source\PSoC4/CapSense.c **** 	*  This API sets a value of the sense clock divider for the  sensor. 
1858:.\Generated_Source\PSoC4/CapSense.c **** 	*
1859:.\Generated_Source\PSoC4/CapSense.c **** 	* Parameters:
1860:.\Generated_Source\PSoC4/CapSense.c **** 	*  sensor:  Sensor index.
1861:.\Generated_Source\PSoC4/CapSense.c **** 	*  senseClk: represents the sense clock value.
1862:.\Generated_Source\PSoC4/CapSense.c **** 	*
1863:.\Generated_Source\PSoC4/CapSense.c **** 	* Return:
1864:.\Generated_Source\PSoC4/CapSense.c **** 	*  None.
1865:.\Generated_Source\PSoC4/CapSense.c **** 	*
1866:.\Generated_Source\PSoC4/CapSense.c **** 	* Global Variables:
1867:.\Generated_Source\PSoC4/CapSense.c **** 	*  CapSense_senseClkDividerVal[] - stores the sense clock divider values.
1868:.\Generated_Source\PSoC4/CapSense.c **** 	* 
1869:.\Generated_Source\PSoC4/CapSense.c **** 	* Side Effects:
1870:.\Generated_Source\PSoC4/CapSense.c **** 	*  None
1871:.\Generated_Source\PSoC4/CapSense.c **** 	*
1872:.\Generated_Source\PSoC4/CapSense.c **** 	*******************************************************************************/
1873:.\Generated_Source\PSoC4/CapSense.c **** 	void CapSense_SetSenseClkDivider(uint32 sensor, uint32 senseClk)
1874:.\Generated_Source\PSoC4/CapSense.c **** 	{
1875:.\Generated_Source\PSoC4/CapSense.c **** 		#if(0u != CapSense_MULTIPLE_FREQUENCY_SET)
1876:.\Generated_Source\PSoC4/CapSense.c **** 			CapSense_senseClkDividerVal[sensor] = (uint8)senseClk;
1877:.\Generated_Source\PSoC4/CapSense.c **** 		#else
1878:.\Generated_Source\PSoC4/CapSense.c **** 			CapSense_senseClkDividerVal = (uint8)senseClk;
1879:.\Generated_Source\PSoC4/CapSense.c **** 		#endif /* (0u != CapSense_MULTIPLE_FREQUENCY_SET) */
1880:.\Generated_Source\PSoC4/CapSense.c **** 	}
1881:.\Generated_Source\PSoC4/CapSense.c **** #endif /* (CapSense_TUNING_METHOD != CapSense__TUNING_NONE) */
1882:.\Generated_Source\PSoC4/CapSense.c **** 
1883:.\Generated_Source\PSoC4/CapSense.c **** 
1884:.\Generated_Source\PSoC4/CapSense.c **** /*******************************************************************************
1885:.\Generated_Source\PSoC4/CapSense.c **** * Function Name: CapSense_GetModulatorClkDivider
1886:.\Generated_Source\PSoC4/CapSense.c **** ********************************************************************************
1887:.\Generated_Source\PSoC4/CapSense.c **** *
1888:.\Generated_Source\PSoC4/CapSense.c **** * Summary:
1889:.\Generated_Source\PSoC4/CapSense.c **** *  This API returns a value of the modulator sample clock divider for the  sensor.
1890:.\Generated_Source\PSoC4/CapSense.c **** *
1891:.\Generated_Source\PSoC4/CapSense.c **** * Parameters:
1892:.\Generated_Source\PSoC4/CapSense.c **** *  sensor: sensor index. The value of index can be 
1893:.\Generated_Source\PSoC4/CapSense.c **** *  from 0 to (CapSense_TOTAL_SENSOR_COUNT-1).
1894:.\Generated_Source\PSoC4/CapSense.c **** *
1895:.\Generated_Source\PSoC4/CapSense.c **** * Return:
1896:.\Generated_Source\PSoC4/CapSense.c **** *  This API returns the modulator sample clock divider for the  sensor.
1897:.\Generated_Source\PSoC4/CapSense.c **** *
1898:.\Generated_Source\PSoC4/CapSense.c **** * Global Variables:
1899:.\Generated_Source\PSoC4/CapSense.c **** *  CapSense_sampleClkDividerVal[] - stores the modulator sample divider values.
1900:.\Generated_Source\PSoC4/CapSense.c **** * 
ARM GAS  C:\Users\ALEXAN~1\AppData\Local\Temp\cckq0yk2.s 			page 64


1901:.\Generated_Source\PSoC4/CapSense.c **** * Side Effects:
1902:.\Generated_Source\PSoC4/CapSense.c **** *  None
1903:.\Generated_Source\PSoC4/CapSense.c **** *
1904:.\Generated_Source\PSoC4/CapSense.c **** *******************************************************************************/
1905:.\Generated_Source\PSoC4/CapSense.c **** uint32 CapSense_GetModulatorClkDivider(uint32 sensor)
1906:.\Generated_Source\PSoC4/CapSense.c **** {
 1604              		.loc 1 1906 0
 1605              		.cfi_startproc
 1606              	.LVL204:
1907:.\Generated_Source\PSoC4/CapSense.c **** 	#if(0u != CapSense_MULTIPLE_FREQUENCY_SET)
1908:.\Generated_Source\PSoC4/CapSense.c **** 		return((uint32)CapSense_sampleClkDividerVal[sensor]);
 1607              		.loc 1 1908 0
 1608 0000 014B     		ldr	r3, .L108
 1609 0002 5833     		add	r3, r3, #88
 1610 0004 185C     		ldrb	r0, [r3, r0]
 1611              	.LVL205:
1909:.\Generated_Source\PSoC4/CapSense.c **** 	#else
1910:.\Generated_Source\PSoC4/CapSense.c **** 		return((uint32)CapSense_sampleClkDividerVal);
1911:.\Generated_Source\PSoC4/CapSense.c **** 	#endif /* (0u != CapSense_MULTIPLE_FREQUENCY_SET) */
1912:.\Generated_Source\PSoC4/CapSense.c **** }
 1612              		.loc 1 1912 0
 1613              		@ sp needed
 1614 0006 7047     		bx	lr
 1615              	.L109:
 1616              		.align	2
 1617              	.L108:
 1618 0008 00000000 		.word	.LANCHOR1
 1619              		.cfi_endproc
 1620              	.LFE62:
 1621              		.size	CapSense_GetModulatorClkDivider, .-CapSense_GetModulatorClkDivider
 1622              		.section	.text.CapSense_GetModulationIDAC,"ax",%progbits
 1623              		.align	2
 1624              		.global	CapSense_GetModulationIDAC
 1625              		.code	16
 1626              		.thumb_func
 1627              		.type	CapSense_GetModulationIDAC, %function
 1628              	CapSense_GetModulationIDAC:
 1629              	.LFB63:
1913:.\Generated_Source\PSoC4/CapSense.c **** 
1914:.\Generated_Source\PSoC4/CapSense.c **** #if (CapSense_TUNING_METHOD != CapSense__TUNING_NONE)
1915:.\Generated_Source\PSoC4/CapSense.c **** 	/*******************************************************************************
1916:.\Generated_Source\PSoC4/CapSense.c **** 	* Function Name: CapSense_SetModulatorClkDivider
1917:.\Generated_Source\PSoC4/CapSense.c **** 	********************************************************************************
1918:.\Generated_Source\PSoC4/CapSense.c **** 	*
1919:.\Generated_Source\PSoC4/CapSense.c **** 	* Summary:
1920:.\Generated_Source\PSoC4/CapSense.c **** 	*  This API sets a value of the modulator sample clock divider for the  sensor.
1921:.\Generated_Source\PSoC4/CapSense.c **** 	*
1922:.\Generated_Source\PSoC4/CapSense.c **** 	* Parameters:
1923:.\Generated_Source\PSoC4/CapSense.c **** 	*  sensor:  Sensor index.
1924:.\Generated_Source\PSoC4/CapSense.c **** 	*  modulatorClk: represents the modulator sample clock value.
1925:.\Generated_Source\PSoC4/CapSense.c **** 	*
1926:.\Generated_Source\PSoC4/CapSense.c **** 	* Return:
1927:.\Generated_Source\PSoC4/CapSense.c **** 	*  None.
1928:.\Generated_Source\PSoC4/CapSense.c **** 	*
1929:.\Generated_Source\PSoC4/CapSense.c **** 	* Global Variables:
1930:.\Generated_Source\PSoC4/CapSense.c **** 	*  CapSense_sampleClkDividerVal[] - stores the modulator sample divider values.
1931:.\Generated_Source\PSoC4/CapSense.c **** 	* 
ARM GAS  C:\Users\ALEXAN~1\AppData\Local\Temp\cckq0yk2.s 			page 65


1932:.\Generated_Source\PSoC4/CapSense.c **** 	* Side Effects:
1933:.\Generated_Source\PSoC4/CapSense.c **** 	*  None
1934:.\Generated_Source\PSoC4/CapSense.c **** 	*
1935:.\Generated_Source\PSoC4/CapSense.c **** 	*******************************************************************************/
1936:.\Generated_Source\PSoC4/CapSense.c **** 	void CapSense_SetModulatorClkDivider(uint32 sensor, uint32 modulatorClk)
1937:.\Generated_Source\PSoC4/CapSense.c **** 	{
1938:.\Generated_Source\PSoC4/CapSense.c **** 		#if(0u != CapSense_MULTIPLE_FREQUENCY_SET)
1939:.\Generated_Source\PSoC4/CapSense.c **** 			CapSense_sampleClkDividerVal[sensor] = (uint8)modulatorClk;
1940:.\Generated_Source\PSoC4/CapSense.c **** 		#else
1941:.\Generated_Source\PSoC4/CapSense.c **** 			CapSense_sampleClkDividerVal = (uint8)modulatorClk;
1942:.\Generated_Source\PSoC4/CapSense.c **** 		#endif /* (0u != CapSense_MULTIPLE_FREQUENCY_SET) */
1943:.\Generated_Source\PSoC4/CapSense.c **** 	}
1944:.\Generated_Source\PSoC4/CapSense.c **** #endif /* (CapSense_TUNING_METHOD != CapSense__TUNING_NONE) */
1945:.\Generated_Source\PSoC4/CapSense.c **** 
1946:.\Generated_Source\PSoC4/CapSense.c **** /*******************************************************************************
1947:.\Generated_Source\PSoC4/CapSense.c **** * Function Name: CapSense_GetModulationIDAC
1948:.\Generated_Source\PSoC4/CapSense.c **** ********************************************************************************
1949:.\Generated_Source\PSoC4/CapSense.c **** *
1950:.\Generated_Source\PSoC4/CapSense.c **** * Summary:
1951:.\Generated_Source\PSoC4/CapSense.c **** *  This API returns a value of the modulation IDAC for the  sensor.
1952:.\Generated_Source\PSoC4/CapSense.c **** *
1953:.\Generated_Source\PSoC4/CapSense.c **** * Parameters:
1954:.\Generated_Source\PSoC4/CapSense.c **** *  sensor: sensor index. The index value can be 
1955:.\Generated_Source\PSoC4/CapSense.c **** *  from 0 to (CapSense_TOTAL_SENSOR_COUNT-1).
1956:.\Generated_Source\PSoC4/CapSense.c **** *
1957:.\Generated_Source\PSoC4/CapSense.c **** * Return:
1958:.\Generated_Source\PSoC4/CapSense.c **** *  This API returns the modulation IDAC of the sensor. 
1959:.\Generated_Source\PSoC4/CapSense.c **** *
1960:.\Generated_Source\PSoC4/CapSense.c **** * Global Variables:
1961:.\Generated_Source\PSoC4/CapSense.c **** *  CapSense_modulationIDAC[] - stores modulation IDAC values.
1962:.\Generated_Source\PSoC4/CapSense.c **** * 
1963:.\Generated_Source\PSoC4/CapSense.c **** * Side Effects:
1964:.\Generated_Source\PSoC4/CapSense.c **** *  None
1965:.\Generated_Source\PSoC4/CapSense.c **** *
1966:.\Generated_Source\PSoC4/CapSense.c **** *******************************************************************************/
1967:.\Generated_Source\PSoC4/CapSense.c **** uint32 CapSense_GetModulationIDAC(uint32 sensor)
1968:.\Generated_Source\PSoC4/CapSense.c **** {
 1630              		.loc 1 1968 0
 1631              		.cfi_startproc
 1632              	.LVL206:
1969:.\Generated_Source\PSoC4/CapSense.c **** 		return((uint32)CapSense_modulationIDAC[sensor]);
 1633              		.loc 1 1969 0
 1634 0000 014B     		ldr	r3, .L111
 1635 0002 6833     		add	r3, r3, #104
 1636 0004 185C     		ldrb	r0, [r3, r0]
 1637              	.LVL207:
1970:.\Generated_Source\PSoC4/CapSense.c **** }
 1638              		.loc 1 1970 0
 1639              		@ sp needed
 1640 0006 7047     		bx	lr
 1641              	.L112:
 1642              		.align	2
 1643              	.L111:
 1644 0008 00000000 		.word	.LANCHOR1
 1645              		.cfi_endproc
 1646              	.LFE63:
 1647              		.size	CapSense_GetModulationIDAC, .-CapSense_GetModulationIDAC
ARM GAS  C:\Users\ALEXAN~1\AppData\Local\Temp\cckq0yk2.s 			page 66


 1648              		.section	.text.CapSense_GetCompensationIDAC,"ax",%progbits
 1649              		.align	2
 1650              		.global	CapSense_GetCompensationIDAC
 1651              		.code	16
 1652              		.thumb_func
 1653              		.type	CapSense_GetCompensationIDAC, %function
 1654              	CapSense_GetCompensationIDAC:
 1655              	.LFB64:
1971:.\Generated_Source\PSoC4/CapSense.c **** 
1972:.\Generated_Source\PSoC4/CapSense.c **** #if (CapSense_TUNING_METHOD != CapSense__TUNING_NONE)
1973:.\Generated_Source\PSoC4/CapSense.c **** 	/*******************************************************************************
1974:.\Generated_Source\PSoC4/CapSense.c **** 	* Function Name: CapSense_SetModulationIDAC
1975:.\Generated_Source\PSoC4/CapSense.c **** 	********************************************************************************
1976:.\Generated_Source\PSoC4/CapSense.c **** 	*
1977:.\Generated_Source\PSoC4/CapSense.c **** 	* Summary:
1978:.\Generated_Source\PSoC4/CapSense.c **** 	*  This API sets a value of the modulation IDAC for the  sensor.
1979:.\Generated_Source\PSoC4/CapSense.c **** 	*
1980:.\Generated_Source\PSoC4/CapSense.c **** 	* Parameters:
1981:.\Generated_Source\PSoC4/CapSense.c **** 	*  sensor:  Sensor index.
1982:.\Generated_Source\PSoC4/CapSense.c **** 	*  compIdacValue: represents the modulation IDAC data register value.
1983:.\Generated_Source\PSoC4/CapSense.c **** 	*
1984:.\Generated_Source\PSoC4/CapSense.c **** 	* Return:
1985:.\Generated_Source\PSoC4/CapSense.c **** 	*  None.
1986:.\Generated_Source\PSoC4/CapSense.c **** 	*
1987:.\Generated_Source\PSoC4/CapSense.c **** 	* Global Variables:
1988:.\Generated_Source\PSoC4/CapSense.c **** 	*  CapSense_modulationIDAC[] - array with modulation IDAC values
1989:.\Generated_Source\PSoC4/CapSense.c **** 	* 
1990:.\Generated_Source\PSoC4/CapSense.c **** 	* Side Effects:
1991:.\Generated_Source\PSoC4/CapSense.c **** 	*  None
1992:.\Generated_Source\PSoC4/CapSense.c **** 	*
1993:.\Generated_Source\PSoC4/CapSense.c **** 	*******************************************************************************/
1994:.\Generated_Source\PSoC4/CapSense.c **** 	void CapSense_SetModulationIDAC(uint32 sensor, uint32 modIdacValue)
1995:.\Generated_Source\PSoC4/CapSense.c **** 	{
1996:.\Generated_Source\PSoC4/CapSense.c **** 		CapSense_modulationIDAC[sensor] = (uint8)modIdacValue;
1997:.\Generated_Source\PSoC4/CapSense.c **** 	}
1998:.\Generated_Source\PSoC4/CapSense.c **** #endif /* (CapSense_TUNING_METHOD != CapSense__TUNING_NONE) */
1999:.\Generated_Source\PSoC4/CapSense.c **** 
2000:.\Generated_Source\PSoC4/CapSense.c **** 
2001:.\Generated_Source\PSoC4/CapSense.c **** #if(CapSense_IDAC_CNT > 1u)
2002:.\Generated_Source\PSoC4/CapSense.c **** 	/*******************************************************************************
2003:.\Generated_Source\PSoC4/CapSense.c **** 	* Function Name: CapSense_GetCompensationIDAC
2004:.\Generated_Source\PSoC4/CapSense.c **** 	********************************************************************************
2005:.\Generated_Source\PSoC4/CapSense.c **** 	*
2006:.\Generated_Source\PSoC4/CapSense.c **** 	* Summary:
2007:.\Generated_Source\PSoC4/CapSense.c **** 	*  This API returns a value of the compensation IDAC for the  sensor.
2008:.\Generated_Source\PSoC4/CapSense.c **** 	*
2009:.\Generated_Source\PSoC4/CapSense.c **** 	* Parameters:
2010:.\Generated_Source\PSoC4/CapSense.c **** 	*  sensor: sensor index. The index value can be 
2011:.\Generated_Source\PSoC4/CapSense.c **** 	*  from 0 to (CapSense_TOTAL_SENSOR_COUNT-1).
2012:.\Generated_Source\PSoC4/CapSense.c **** 	*
2013:.\Generated_Source\PSoC4/CapSense.c **** 	* Return:
2014:.\Generated_Source\PSoC4/CapSense.c **** 	*  This API returns the compensation IDAC of the sensor. 
2015:.\Generated_Source\PSoC4/CapSense.c **** 	*
2016:.\Generated_Source\PSoC4/CapSense.c **** 	* Global Variables:
2017:.\Generated_Source\PSoC4/CapSense.c **** 	*  CapSense_compensationIDAC[] - stores the compensation IDAC values.
2018:.\Generated_Source\PSoC4/CapSense.c **** 	* 
2019:.\Generated_Source\PSoC4/CapSense.c **** 	* Side Effects:
ARM GAS  C:\Users\ALEXAN~1\AppData\Local\Temp\cckq0yk2.s 			page 67


2020:.\Generated_Source\PSoC4/CapSense.c **** 	*  None
2021:.\Generated_Source\PSoC4/CapSense.c **** 	*
2022:.\Generated_Source\PSoC4/CapSense.c **** 	*******************************************************************************/
2023:.\Generated_Source\PSoC4/CapSense.c **** 	uint32 CapSense_GetCompensationIDAC(uint32 sensor)
2024:.\Generated_Source\PSoC4/CapSense.c **** 	{
 1656              		.loc 1 2024 0
 1657              		.cfi_startproc
 1658              	.LVL208:
2025:.\Generated_Source\PSoC4/CapSense.c **** 		return((uint32)CapSense_compensationIDAC[sensor]);
 1659              		.loc 1 2025 0
 1660 0000 014B     		ldr	r3, .L114
 1661 0002 7033     		add	r3, r3, #112
 1662 0004 185C     		ldrb	r0, [r3, r0]
 1663              	.LVL209:
2026:.\Generated_Source\PSoC4/CapSense.c **** 	}
 1664              		.loc 1 2026 0
 1665              		@ sp needed
 1666 0006 7047     		bx	lr
 1667              	.L115:
 1668              		.align	2
 1669              	.L114:
 1670 0008 00000000 		.word	.LANCHOR1
 1671              		.cfi_endproc
 1672              	.LFE64:
 1673              		.size	CapSense_GetCompensationIDAC, .-CapSense_GetCompensationIDAC
 1674              		.section	.text.CapSense_GetIDACRange,"ax",%progbits
 1675              		.align	2
 1676              		.global	CapSense_GetIDACRange
 1677              		.code	16
 1678              		.thumb_func
 1679              		.type	CapSense_GetIDACRange, %function
 1680              	CapSense_GetIDACRange:
 1681              	.LFB65:
2027:.\Generated_Source\PSoC4/CapSense.c **** #endif /* (CapSense_IDAC_CNT > 1u) */
2028:.\Generated_Source\PSoC4/CapSense.c **** 
2029:.\Generated_Source\PSoC4/CapSense.c **** 
2030:.\Generated_Source\PSoC4/CapSense.c **** #if((CapSense_TUNING_METHOD != CapSense__TUNING_NONE) && (CapSense_IDAC_CNT > 1u))
2031:.\Generated_Source\PSoC4/CapSense.c **** 	/*******************************************************************************
2032:.\Generated_Source\PSoC4/CapSense.c **** 	* Function Name: CapSense_SetCompensationIDAC
2033:.\Generated_Source\PSoC4/CapSense.c **** 	********************************************************************************
2034:.\Generated_Source\PSoC4/CapSense.c **** 	*
2035:.\Generated_Source\PSoC4/CapSense.c **** 	* Summary:
2036:.\Generated_Source\PSoC4/CapSense.c **** 	*  This API sets a value of compensation IDAC for the  sensor.
2037:.\Generated_Source\PSoC4/CapSense.c **** 	*
2038:.\Generated_Source\PSoC4/CapSense.c **** 	* Parameters:
2039:.\Generated_Source\PSoC4/CapSense.c **** 	*  sensor:  Sensor index.
2040:.\Generated_Source\PSoC4/CapSense.c **** 	*  compIdacValue: represents the compensation IDAC data register value.
2041:.\Generated_Source\PSoC4/CapSense.c **** 	*
2042:.\Generated_Source\PSoC4/CapSense.c **** 	* Return:
2043:.\Generated_Source\PSoC4/CapSense.c **** 	*  None.
2044:.\Generated_Source\PSoC4/CapSense.c **** 	*
2045:.\Generated_Source\PSoC4/CapSense.c **** 	* Global Variables:
2046:.\Generated_Source\PSoC4/CapSense.c **** 	*  CapSense_compensationIDAC[] - an array with compensation IDAC values
2047:.\Generated_Source\PSoC4/CapSense.c **** 	* 
2048:.\Generated_Source\PSoC4/CapSense.c **** 	* Side Effects:
2049:.\Generated_Source\PSoC4/CapSense.c **** 	*  None
2050:.\Generated_Source\PSoC4/CapSense.c **** 	*
ARM GAS  C:\Users\ALEXAN~1\AppData\Local\Temp\cckq0yk2.s 			page 68


2051:.\Generated_Source\PSoC4/CapSense.c **** 	*******************************************************************************/
2052:.\Generated_Source\PSoC4/CapSense.c **** 	void CapSense_SetCompensationIDAC(uint32 sensor, uint32 compIdacValue)
2053:.\Generated_Source\PSoC4/CapSense.c **** 	{
2054:.\Generated_Source\PSoC4/CapSense.c **** 		CapSense_compensationIDAC[sensor] = (uint8)compIdacValue;
2055:.\Generated_Source\PSoC4/CapSense.c **** 	}
2056:.\Generated_Source\PSoC4/CapSense.c **** #endif /* ((CapSense_TUNING_METHOD != CapSense__TUNING_NONE) && (CapSense_IDAC_CNT > 1u)) */
2057:.\Generated_Source\PSoC4/CapSense.c **** 
2058:.\Generated_Source\PSoC4/CapSense.c **** /*******************************************************************************
2059:.\Generated_Source\PSoC4/CapSense.c **** * Function Name: CapSense_GetIDACRange
2060:.\Generated_Source\PSoC4/CapSense.c **** ********************************************************************************
2061:.\Generated_Source\PSoC4/CapSense.c **** *
2062:.\Generated_Source\PSoC4/CapSense.c **** * Summary:
2063:.\Generated_Source\PSoC4/CapSense.c **** *  This API returns a value that indicates the IDAC range used by the 
2064:.\Generated_Source\PSoC4/CapSense.c **** *  component to scan sensors. The IDAC range is common for all the sensors.
2065:.\Generated_Source\PSoC4/CapSense.c **** *
2066:.\Generated_Source\PSoC4/CapSense.c **** * Parameters:
2067:.\Generated_Source\PSoC4/CapSense.c **** *  None
2068:.\Generated_Source\PSoC4/CapSense.c **** *
2069:.\Generated_Source\PSoC4/CapSense.c **** * Return:
2070:.\Generated_Source\PSoC4/CapSense.c **** *  This API Returns a value that indicates the IDAC range:
2071:.\Generated_Source\PSoC4/CapSense.c **** *      0 - IDAC range set to 4x
2072:.\Generated_Source\PSoC4/CapSense.c **** *      1 - IDAC range set to 8x
2073:.\Generated_Source\PSoC4/CapSense.c **** *
2074:.\Generated_Source\PSoC4/CapSense.c **** * Global Variables:
2075:.\Generated_Source\PSoC4/CapSense.c **** *  None
2076:.\Generated_Source\PSoC4/CapSense.c **** * 
2077:.\Generated_Source\PSoC4/CapSense.c **** * Side Effects:
2078:.\Generated_Source\PSoC4/CapSense.c **** *  None
2079:.\Generated_Source\PSoC4/CapSense.c **** *
2080:.\Generated_Source\PSoC4/CapSense.c **** *******************************************************************************/
2081:.\Generated_Source\PSoC4/CapSense.c **** uint32 CapSense_GetIDACRange(void)
2082:.\Generated_Source\PSoC4/CapSense.c **** {
 1682              		.loc 1 2082 0
 1683              		.cfi_startproc
2083:.\Generated_Source\PSoC4/CapSense.c **** 	return((0u != (CapSense_CSD_IDAC_REG & CapSense_CSD_IDAC1_RANGE_8X)) ? 1uL : 0uL);
 1684              		.loc 1 2083 0
 1685 0000 034B     		ldr	r3, .L119
 1686 0002 1B68     		ldr	r3, [r3]
 1687 0004 5A05     		lsl	r2, r3, #21
 1688 0006 01D5     		bpl	.L118
 1689 0008 0120     		mov	r0, #1
 1690 000a 00E0     		b	.L117
 1691              	.L118:
 1692 000c 0020     		mov	r0, #0
 1693              	.L117:
2084:.\Generated_Source\PSoC4/CapSense.c **** }
 1694              		.loc 1 2084 0 discriminator 3
 1695              		@ sp needed
 1696 000e 7047     		bx	lr
 1697              	.L120:
 1698              		.align	2
 1699              	.L119:
 1700 0010 08002840 		.word	1076363272
 1701              		.cfi_endproc
 1702              	.LFE65:
 1703              		.size	CapSense_GetIDACRange, .-CapSense_GetIDACRange
 1704              		.section	.text.CapSense_SetUnscannedSensorState,"ax",%progbits
ARM GAS  C:\Users\ALEXAN~1\AppData\Local\Temp\cckq0yk2.s 			page 69


 1705              		.align	2
 1706              		.global	CapSense_SetUnscannedSensorState
 1707              		.code	16
 1708              		.thumb_func
 1709              		.type	CapSense_SetUnscannedSensorState, %function
 1710              	CapSense_SetUnscannedSensorState:
 1711              	.LFB66:
2085:.\Generated_Source\PSoC4/CapSense.c **** 
2086:.\Generated_Source\PSoC4/CapSense.c **** #if (CapSense_TUNING_METHOD != CapSense__TUNING_NONE)
2087:.\Generated_Source\PSoC4/CapSense.c **** 	/*******************************************************************************
2088:.\Generated_Source\PSoC4/CapSense.c **** 	* Function Name: CapSense_SetIDACRange
2089:.\Generated_Source\PSoC4/CapSense.c **** 	********************************************************************************
2090:.\Generated_Source\PSoC4/CapSense.c **** 	*
2091:.\Generated_Source\PSoC4/CapSense.c **** 	* Summary:
2092:.\Generated_Source\PSoC4/CapSense.c **** 	*  This API sets the IDAC range to the 4x (1.2uA/bit) or 8x (2.4uA/bit) mode.
2093:.\Generated_Source\PSoC4/CapSense.c ****     *  The IDAC range is common for all the sensors and common for the modulation and 
2094:.\Generated_Source\PSoC4/CapSense.c **** 	*  compensation IDACs.
2095:.\Generated_Source\PSoC4/CapSense.c **** 	*
2096:.\Generated_Source\PSoC4/CapSense.c **** 	* Parameters:
2097:.\Generated_Source\PSoC4/CapSense.c **** 	*  iDacRange:  represents value for IDAC range 
2098:.\Generated_Source\PSoC4/CapSense.c **** 	*  0 -  IDAC range set to 4x (1.2uA/bit)
2099:.\Generated_Source\PSoC4/CapSense.c **** 	*  1 or >1 - IDAC range set to 8x (2.4uA/bit)
2100:.\Generated_Source\PSoC4/CapSense.c **** 	*
2101:.\Generated_Source\PSoC4/CapSense.c **** 	* Return:
2102:.\Generated_Source\PSoC4/CapSense.c **** 	*  None.
2103:.\Generated_Source\PSoC4/CapSense.c **** 	*
2104:.\Generated_Source\PSoC4/CapSense.c **** 	* Global Variables:
2105:.\Generated_Source\PSoC4/CapSense.c **** 	*  None
2106:.\Generated_Source\PSoC4/CapSense.c **** 	* 
2107:.\Generated_Source\PSoC4/CapSense.c **** 	* Side Effects:
2108:.\Generated_Source\PSoC4/CapSense.c **** 	*  None
2109:.\Generated_Source\PSoC4/CapSense.c **** 	*
2110:.\Generated_Source\PSoC4/CapSense.c **** 	*******************************************************************************/
2111:.\Generated_Source\PSoC4/CapSense.c **** 	void CapSense_SetIDACRange(uint32 iDacRange)
2112:.\Generated_Source\PSoC4/CapSense.c **** 	{
2113:.\Generated_Source\PSoC4/CapSense.c **** 	    if(iDacRange != 0u)
2114:.\Generated_Source\PSoC4/CapSense.c **** 		{
2115:.\Generated_Source\PSoC4/CapSense.c **** 		    /*  IDAC range = 8x (2.4uA/bit) */ 
2116:.\Generated_Source\PSoC4/CapSense.c **** 		    CapSense_CSD_IDAC_REG |= (CapSense_CSD_IDAC1_RANGE_8X |\
2117:.\Generated_Source\PSoC4/CapSense.c **** 											  CapSense_CSD_IDAC2_RANGE_8X);
2118:.\Generated_Source\PSoC4/CapSense.c **** 		}
2119:.\Generated_Source\PSoC4/CapSense.c **** 		else
2120:.\Generated_Source\PSoC4/CapSense.c **** 		{
2121:.\Generated_Source\PSoC4/CapSense.c **** 		    /*  IDAC range = 4x (1.2uA/bit) */ 
2122:.\Generated_Source\PSoC4/CapSense.c **** 		    /*  IDAC range = 8x (2.4uA/bit) */ 
2123:.\Generated_Source\PSoC4/CapSense.c **** 		    CapSense_CSD_IDAC_REG &= ~(CapSense_CSD_IDAC1_RANGE_8X |\
2124:.\Generated_Source\PSoC4/CapSense.c **** 											   CapSense_CSD_IDAC2_RANGE_8X);
2125:.\Generated_Source\PSoC4/CapSense.c **** 		}
2126:.\Generated_Source\PSoC4/CapSense.c **** 	}
2127:.\Generated_Source\PSoC4/CapSense.c **** #endif /* (CapSense_TUNING_METHOD != CapSense__TUNING_NONE) */
2128:.\Generated_Source\PSoC4/CapSense.c **** 
2129:.\Generated_Source\PSoC4/CapSense.c **** 
2130:.\Generated_Source\PSoC4/CapSense.c **** #if((0u != CapSense_AUTOCALIBRATION_ENABLE) || (CapSense_TUNING_METHOD == CapSense__TUNING_AUTO))
2131:.\Generated_Source\PSoC4/CapSense.c **** 	/*******************************************************************************
2132:.\Generated_Source\PSoC4/CapSense.c **** 	* Function Name: CapSense_GetSensorRaw
2133:.\Generated_Source\PSoC4/CapSense.c **** 	********************************************************************************
2134:.\Generated_Source\PSoC4/CapSense.c **** 	*
ARM GAS  C:\Users\ALEXAN~1\AppData\Local\Temp\cckq0yk2.s 			page 70


2135:.\Generated_Source\PSoC4/CapSense.c **** 	* Summary:
2136:.\Generated_Source\PSoC4/CapSense.c **** 	*  The API updates and gets uprated raw data from the sensor.
2137:.\Generated_Source\PSoC4/CapSense.c **** 	*
2138:.\Generated_Source\PSoC4/CapSense.c **** 	* Parameters:
2139:.\Generated_Source\PSoC4/CapSense.c **** 	*  sensor - Sensor number.
2140:.\Generated_Source\PSoC4/CapSense.c **** 	*
2141:.\Generated_Source\PSoC4/CapSense.c **** 	* Return:
2142:.\Generated_Source\PSoC4/CapSense.c **** 	*  Returns the current raw data value for a defined sensor number.
2143:.\Generated_Source\PSoC4/CapSense.c **** 	*
2144:.\Generated_Source\PSoC4/CapSense.c **** 	* Global Variables:
2145:.\Generated_Source\PSoC4/CapSense.c **** 	*  None
2146:.\Generated_Source\PSoC4/CapSense.c **** 	*
2147:.\Generated_Source\PSoC4/CapSense.c **** 	* Side Effects:
2148:.\Generated_Source\PSoC4/CapSense.c **** 	*  None
2149:.\Generated_Source\PSoC4/CapSense.c **** 	*
2150:.\Generated_Source\PSoC4/CapSense.c **** 	*******************************************************************************/
2151:.\Generated_Source\PSoC4/CapSense.c **** 	uint16  CapSense_GetSensorRaw(uint32 sensor)
2152:.\Generated_Source\PSoC4/CapSense.c **** 	{
2153:.\Generated_Source\PSoC4/CapSense.c **** 		uint32 curSample;
2154:.\Generated_Source\PSoC4/CapSense.c **** 		uint32 avgVal = 0u;
2155:.\Generated_Source\PSoC4/CapSense.c **** 		
2156:.\Generated_Source\PSoC4/CapSense.c **** 		for(curSample = 0u; curSample < CapSense_AVG_SAMPLES_NUM; curSample++)
2157:.\Generated_Source\PSoC4/CapSense.c **** 		{
2158:.\Generated_Source\PSoC4/CapSense.c **** 	    
2159:.\Generated_Source\PSoC4/CapSense.c **** 			CapSense_ScanSensor((uint32)sensor);
2160:.\Generated_Source\PSoC4/CapSense.c **** 		    while(CapSense_IsBusy() == 1u)
2161:.\Generated_Source\PSoC4/CapSense.c **** 			{
2162:.\Generated_Source\PSoC4/CapSense.c **** 				/* Wait while sensor is busy */
2163:.\Generated_Source\PSoC4/CapSense.c **** 			}
2164:.\Generated_Source\PSoC4/CapSense.c **** 			avgVal += CapSense_ReadSensorRaw((uint32)sensor);
2165:.\Generated_Source\PSoC4/CapSense.c **** 		}
2166:.\Generated_Source\PSoC4/CapSense.c **** 	    
2167:.\Generated_Source\PSoC4/CapSense.c **** 	    return((uint16)(avgVal / CapSense_AVG_SAMPLES_NUM));
2168:.\Generated_Source\PSoC4/CapSense.c **** 	}
2169:.\Generated_Source\PSoC4/CapSense.c **** #endif /* ((0u != CapSense_AUTOCALIBRATION_ENABLE) && (CapSense_TUNING_METHOD == CapSense__TUNING_A
2170:.\Generated_Source\PSoC4/CapSense.c **** 
2171:.\Generated_Source\PSoC4/CapSense.c **** 
2172:.\Generated_Source\PSoC4/CapSense.c **** #if((0u != CapSense_AUTOCALIBRATION_ENABLE) && (CapSense_TUNING_METHOD != CapSense__TUNING_AUTO))
2173:.\Generated_Source\PSoC4/CapSense.c **** 	/*******************************************************************************
2174:.\Generated_Source\PSoC4/CapSense.c **** 	* Function Name: CapSense_CalibrateSensor
2175:.\Generated_Source\PSoC4/CapSense.c **** 	********************************************************************************
2176:.\Generated_Source\PSoC4/CapSense.c **** 	*
2177:.\Generated_Source\PSoC4/CapSense.c **** 	* Summary:
2178:.\Generated_Source\PSoC4/CapSense.c **** 	*  Computes the one sensor IDAC value, which provides the raw signal on
2179:.\Generated_Source\PSoC4/CapSense.c **** 	*  a specified level, with a specified prescaler, speed, and resolution.
2180:.\Generated_Source\PSoC4/CapSense.c **** 	*
2181:.\Generated_Source\PSoC4/CapSense.c **** 	* Parameters:
2182:.\Generated_Source\PSoC4/CapSense.c **** 	*  sensor - Sensor Number.
2183:.\Generated_Source\PSoC4/CapSense.c **** 	*
2184:.\Generated_Source\PSoC4/CapSense.c **** 	*  rawLevel -  Raw data level which should be reached during the calibration
2185:.\Generated_Source\PSoC4/CapSense.c **** 	*              procedure.
2186:.\Generated_Source\PSoC4/CapSense.c **** 	*
2187:.\Generated_Source\PSoC4/CapSense.c **** 	*  idacLevelsTbl - Pointer to the modulatorIdac data register configuration table.            
2188:.\Generated_Source\PSoC4/CapSense.c **** 	*
2189:.\Generated_Source\PSoC4/CapSense.c **** 	* Return:       
2190:.\Generated_Source\PSoC4/CapSense.c **** 	*  None
2191:.\Generated_Source\PSoC4/CapSense.c **** 	*
ARM GAS  C:\Users\ALEXAN~1\AppData\Local\Temp\cckq0yk2.s 			page 71


2192:.\Generated_Source\PSoC4/CapSense.c **** 	*******************************************************************************/
2193:.\Generated_Source\PSoC4/CapSense.c **** 	void CapSense_CalibrateSensor(uint32 sensor, uint32 rawLevel, uint8 idacLevelsTbl[])
2194:.\Generated_Source\PSoC4/CapSense.c **** 	{
2195:.\Generated_Source\PSoC4/CapSense.c **** 		uint8 mask;
2196:.\Generated_Source\PSoC4/CapSense.c **** 		uint16 rawData;
2197:.\Generated_Source\PSoC4/CapSense.c **** 		
2198:.\Generated_Source\PSoC4/CapSense.c **** 		rawData = 0u;
2199:.\Generated_Source\PSoC4/CapSense.c **** 		
2200:.\Generated_Source\PSoC4/CapSense.c **** 		mask = 0x80u;
2201:.\Generated_Source\PSoC4/CapSense.c **** 		/* Init IDAC for null Channel */
2202:.\Generated_Source\PSoC4/CapSense.c **** 		idacLevelsTbl[sensor] = 0x00u;
2203:.\Generated_Source\PSoC4/CapSense.c **** 		
2204:.\Generated_Source\PSoC4/CapSense.c **** 		do
2205:.\Generated_Source\PSoC4/CapSense.c **** 		{
2206:.\Generated_Source\PSoC4/CapSense.c **** 		    /* Set bit for null Channel */
2207:.\Generated_Source\PSoC4/CapSense.c **** 			idacLevelsTbl[sensor] |= mask;
2208:.\Generated_Source\PSoC4/CapSense.c **** 
2209:.\Generated_Source\PSoC4/CapSense.c **** 	        /* Scan null Channel and get Rawdata */
2210:.\Generated_Source\PSoC4/CapSense.c **** 			rawData = CapSense_GetSensorRaw(sensor);
2211:.\Generated_Source\PSoC4/CapSense.c **** 			
2212:.\Generated_Source\PSoC4/CapSense.c **** 			/* Decrease IDAC until Rawdata reaches rawLevel */ 
2213:.\Generated_Source\PSoC4/CapSense.c **** 			if(rawData < rawLevel)
2214:.\Generated_Source\PSoC4/CapSense.c **** 			{
2215:.\Generated_Source\PSoC4/CapSense.c **** 			    /* Reset bit for null Channel  */ 
2216:.\Generated_Source\PSoC4/CapSense.c **** 				idacLevelsTbl[sensor] &= (uint8)~mask;
2217:.\Generated_Source\PSoC4/CapSense.c **** 			}
2218:.\Generated_Source\PSoC4/CapSense.c **** 			
2219:.\Generated_Source\PSoC4/CapSense.c **** 			mask >>= 1u;
2220:.\Generated_Source\PSoC4/CapSense.c **** 		}
2221:.\Generated_Source\PSoC4/CapSense.c **** 		while(mask > 0u);
2222:.\Generated_Source\PSoC4/CapSense.c **** 		
2223:.\Generated_Source\PSoC4/CapSense.c **** 	}
2224:.\Generated_Source\PSoC4/CapSense.c **** #endif /* ((0u != CapSense_AUTOCALIBRATION_ENABLE) && (CapSense_TUNING_METHOD != CapSense__TUNING_A
2225:.\Generated_Source\PSoC4/CapSense.c **** 
2226:.\Generated_Source\PSoC4/CapSense.c **** 
2227:.\Generated_Source\PSoC4/CapSense.c **** /*******************************************************************************
2228:.\Generated_Source\PSoC4/CapSense.c **** * Function Name: CapSense_SetUnscannedSensorState
2229:.\Generated_Source\PSoC4/CapSense.c **** ********************************************************************************
2230:.\Generated_Source\PSoC4/CapSense.c **** *
2231:.\Generated_Source\PSoC4/CapSense.c **** * Summary:
2232:.\Generated_Source\PSoC4/CapSense.c **** *  This API sets a state for un-scanned sensors. 
2233:.\Generated_Source\PSoC4/CapSense.c **** *  It is possible to set the state to Ground, High-Z, or the shield electrode. 
2234:.\Generated_Source\PSoC4/CapSense.c **** *  The un-scanned sensor can be connected to a shield electrode only if the shield is 
2235:.\Generated_Source\PSoC4/CapSense.c **** *  enabled. If the shield is disabled and this API is called with the parameter which
2236:.\Generated_Source\PSoC4/CapSense.c **** *  indicates the shield state, the un-scanned sensor will be connected to Ground.
2237:.\Generated_Source\PSoC4/CapSense.c **** *
2238:.\Generated_Source\PSoC4/CapSense.c **** * Parameters:
2239:.\Generated_Source\PSoC4/CapSense.c **** *  sensor - Sensor Number.
