ARM GAS  C:\Users\ALEXAN~1\AppData\Local\Temp\cc9HWPtE.s 			page 1


   1              		.cpu cortex-m0
   2              		.fpu softvfp
   3              		.eabi_attribute 20, 1
   4              		.eabi_attribute 21, 1
   5              		.eabi_attribute 23, 3
   6              		.eabi_attribute 24, 1
   7              		.eabi_attribute 25, 1
   8              		.eabi_attribute 26, 1
   9              		.eabi_attribute 30, 1
  10              		.eabi_attribute 34, 0
  11              		.eabi_attribute 18, 4
  12              		.code	16
  13              		.file	"CapSense_CSHL.c"
  14              		.text
  15              	.Ltext0:
  16              		.cfi_sections	.debug_frame
  17              		.section	.text.CapSense_BaseInit,"ax",%progbits
  18              		.align	2
  19              		.global	CapSense_BaseInit
  20              		.code	16
  21              		.thumb_func
  22              		.type	CapSense_BaseInit, %function
  23              	CapSense_BaseInit:
  24              	.LFB35:
  25              		.file 1 ".\\Generated_Source\\PSoC4\\CapSense_CSHL.c"
   1:.\Generated_Source\PSoC4/CapSense_CSHL.c **** /*******************************************************************************
   2:.\Generated_Source\PSoC4/CapSense_CSHL.c **** * File Name: CapSense_CSHL.c
   3:.\Generated_Source\PSoC4/CapSense_CSHL.c **** * Version 2.20
   4:.\Generated_Source\PSoC4/CapSense_CSHL.c **** *
   5:.\Generated_Source\PSoC4/CapSense_CSHL.c **** * Description:
   6:.\Generated_Source\PSoC4/CapSense_CSHL.c **** *  This file provides the source code to the High Level APIs for the CapSesne
   7:.\Generated_Source\PSoC4/CapSense_CSHL.c **** *  CSD component.
   8:.\Generated_Source\PSoC4/CapSense_CSHL.c **** *
   9:.\Generated_Source\PSoC4/CapSense_CSHL.c **** * Note:
  10:.\Generated_Source\PSoC4/CapSense_CSHL.c **** *
  11:.\Generated_Source\PSoC4/CapSense_CSHL.c **** ********************************************************************************
  12:.\Generated_Source\PSoC4/CapSense_CSHL.c **** * Copyright 2014, Cypress Semiconductor Corporation.  All rights reserved.
  13:.\Generated_Source\PSoC4/CapSense_CSHL.c **** * You may use this file only in accordance with the license, terms, conditions,
  14:.\Generated_Source\PSoC4/CapSense_CSHL.c **** * disclaimers, and limitations in the end user license agreement accompanying
  15:.\Generated_Source\PSoC4/CapSense_CSHL.c **** * the software package with which this file was provided.
  16:.\Generated_Source\PSoC4/CapSense_CSHL.c **** *******************************************************************************/
  17:.\Generated_Source\PSoC4/CapSense_CSHL.c **** 
  18:.\Generated_Source\PSoC4/CapSense_CSHL.c **** #include "CapSense_CSHL.h"
  19:.\Generated_Source\PSoC4/CapSense_CSHL.c **** #include "CapSense_PVT.h"
  20:.\Generated_Source\PSoC4/CapSense_CSHL.c **** 
  21:.\Generated_Source\PSoC4/CapSense_CSHL.c **** /* SmartSense functions */
  22:.\Generated_Source\PSoC4/CapSense_CSHL.c **** #if (CapSense_TUNING_METHOD == CapSense__TUNING_AUTO)
  23:.\Generated_Source\PSoC4/CapSense_CSHL.c ****     extern void CapSense_UpdateThresholds(uint32 sensor);
  24:.\Generated_Source\PSoC4/CapSense_CSHL.c **** #endif /* (CapSense_TUNING_METHOD == CapSense__TUNING_AUTO) */
  25:.\Generated_Source\PSoC4/CapSense_CSHL.c **** 
  26:.\Generated_Source\PSoC4/CapSense_CSHL.c **** /* Storage of filters data */
  27:.\Generated_Source\PSoC4/CapSense_CSHL.c **** #if ( (0u != (CapSense_RAW_FILTER_MASK & CapSense_MEDIAN_FILTER)) || \
  28:.\Generated_Source\PSoC4/CapSense_CSHL.c ****       (0u != (CapSense_RAW_FILTER_MASK & CapSense_AVERAGING_FILTER)) )
  29:.\Generated_Source\PSoC4/CapSense_CSHL.c **** 
  30:.\Generated_Source\PSoC4/CapSense_CSHL.c ****     uint16 CapSense_rawFilterData1[CapSense_TOTAL_SENSOR_COUNT];
  31:.\Generated_Source\PSoC4/CapSense_CSHL.c ****     uint16 CapSense_rawFilterData2[CapSense_TOTAL_SENSOR_COUNT];
  32:.\Generated_Source\PSoC4/CapSense_CSHL.c **** 
ARM GAS  C:\Users\ALEXAN~1\AppData\Local\Temp\cc9HWPtE.s 			page 2


  33:.\Generated_Source\PSoC4/CapSense_CSHL.c **** #elif ( (0u != (CapSense_RAW_FILTER_MASK & CapSense_IIR2_FILTER))   || \
  34:.\Generated_Source\PSoC4/CapSense_CSHL.c ****         (0u != (CapSense_RAW_FILTER_MASK & CapSense_IIR4_FILTER))   || \
  35:.\Generated_Source\PSoC4/CapSense_CSHL.c ****         (0u != (CapSense_RAW_FILTER_MASK & CapSense_JITTER_FILTER)) || \
  36:.\Generated_Source\PSoC4/CapSense_CSHL.c ****         (0u != (CapSense_RAW_FILTER_MASK & CapSense_IIR8_FILTER))   || \
  37:.\Generated_Source\PSoC4/CapSense_CSHL.c ****         (0u != (CapSense_RAW_FILTER_MASK & CapSense_IIR16_FILTER)) )
  38:.\Generated_Source\PSoC4/CapSense_CSHL.c ****         
  39:.\Generated_Source\PSoC4/CapSense_CSHL.c ****     uint16 CapSense_rawFilterData1[CapSense_TOTAL_SENSOR_COUNT];
  40:.\Generated_Source\PSoC4/CapSense_CSHL.c **** #endif  /* ( (CapSense_RAW_FILTER_MASK & CapSense_MEDIAN_FILTER) || \
  41:.\Generated_Source\PSoC4/CapSense_CSHL.c ****         *    (CapSense_RAW_FILTER_MASK & CapSense_AVERAGING_FILTER) )
  42:.\Generated_Source\PSoC4/CapSense_CSHL.c ****         */
  43:.\Generated_Source\PSoC4/CapSense_CSHL.c **** 
  44:.\Generated_Source\PSoC4/CapSense_CSHL.c **** extern uint16 CapSense_sensorRaw[CapSense_TOTAL_SENSOR_COUNT];
  45:.\Generated_Source\PSoC4/CapSense_CSHL.c **** extern uint8 CapSense_sensorEnableMask[CapSense_TOTAL_SENSOR_MASK];
  46:.\Generated_Source\PSoC4/CapSense_CSHL.c **** extern const uint8 CapSense_widgetNumber[CapSense_TOTAL_SENSOR_COUNT];
  47:.\Generated_Source\PSoC4/CapSense_CSHL.c **** 
  48:.\Generated_Source\PSoC4/CapSense_CSHL.c **** #if (CapSense_TUNING_METHOD != CapSense__TUNING_NONE)
  49:.\Generated_Source\PSoC4/CapSense_CSHL.c **** 	extern uint32 CapSense_widgetResolution[CapSense_RESOLUTIONS_TBL_SIZE];	
  50:.\Generated_Source\PSoC4/CapSense_CSHL.c **** #endif /* (CapSense_TUNING_METHOD != CapSense__TUNING_NONE) */
  51:.\Generated_Source\PSoC4/CapSense_CSHL.c **** 
  52:.\Generated_Source\PSoC4/CapSense_CSHL.c **** uint16 CapSense_sensorBaseline[CapSense_TOTAL_SENSOR_COUNT] = {0u};
  53:.\Generated_Source\PSoC4/CapSense_CSHL.c **** uint8 CapSense_sensorBaselineLow[CapSense_TOTAL_SENSOR_COUNT] = {0u};
  54:.\Generated_Source\PSoC4/CapSense_CSHL.c **** uint16 CapSense_sensorSignal[CapSense_TOTAL_SENSOR_COUNT] = {0u};
  55:.\Generated_Source\PSoC4/CapSense_CSHL.c **** uint8 CapSense_sensorOnMask[CapSense_TOTAL_SENSOR_MASK] = {0u};
  56:.\Generated_Source\PSoC4/CapSense_CSHL.c **** 
  57:.\Generated_Source\PSoC4/CapSense_CSHL.c **** uint8 CapSense_lowBaselineResetCnt[CapSense_TOTAL_SENSOR_COUNT];
  58:.\Generated_Source\PSoC4/CapSense_CSHL.c **** uint8 CapSense_lowBaselineReset[CapSense_TOTAL_SENSOR_COUNT] = {
  59:.\Generated_Source\PSoC4/CapSense_CSHL.c ****     5u, 5u, 5u, 5u, 5u, 
  60:.\Generated_Source\PSoC4/CapSense_CSHL.c **** };
  61:.\Generated_Source\PSoC4/CapSense_CSHL.c **** 
  62:.\Generated_Source\PSoC4/CapSense_CSHL.c **** 
  63:.\Generated_Source\PSoC4/CapSense_CSHL.c **** 
  64:.\Generated_Source\PSoC4/CapSense_CSHL.c **** #if (CapSense_TUNING_METHOD == CapSense__TUNING_AUTO)
  65:.\Generated_Source\PSoC4/CapSense_CSHL.c **** 	extern CapSense_CONFIG_TYPE_P4_v2_20 CapSense_config;
  66:.\Generated_Source\PSoC4/CapSense_CSHL.c **** #endif  /* (CapSense_TUNING_METHOD == CapSense__TUNING_AUTO) */
  67:.\Generated_Source\PSoC4/CapSense_CSHL.c **** 
  68:.\Generated_Source\PSoC4/CapSense_CSHL.c **** #if (CapSense_RAW_FILTER_MASK != 0u)
  69:.\Generated_Source\PSoC4/CapSense_CSHL.c **** uint8 CapSense_enableRawFilters = CapSense_RAW_FILTERS_ENABLED;
  70:.\Generated_Source\PSoC4/CapSense_CSHL.c **** #endif  /* (CapSense_RAW_FILTER_MASK != 0u) */
  71:.\Generated_Source\PSoC4/CapSense_CSHL.c **** 
  72:.\Generated_Source\PSoC4/CapSense_CSHL.c **** /* Generated by Customizer */
  73:.\Generated_Source\PSoC4/CapSense_CSHL.c **** const uint16 CapSense_fingerThreshold[] = {
  74:.\Generated_Source\PSoC4/CapSense_CSHL.c ****     100u, 
  75:.\Generated_Source\PSoC4/CapSense_CSHL.c **** };
  76:.\Generated_Source\PSoC4/CapSense_CSHL.c **** 
  77:.\Generated_Source\PSoC4/CapSense_CSHL.c **** const uint16 CapSense_noiseThreshold[] = {
  78:.\Generated_Source\PSoC4/CapSense_CSHL.c ****     30u, 
  79:.\Generated_Source\PSoC4/CapSense_CSHL.c **** };
  80:.\Generated_Source\PSoC4/CapSense_CSHL.c **** 
  81:.\Generated_Source\PSoC4/CapSense_CSHL.c **** const uint16 CapSense_hysteresis[] = {
  82:.\Generated_Source\PSoC4/CapSense_CSHL.c ****     0u, 
  83:.\Generated_Source\PSoC4/CapSense_CSHL.c **** };
  84:.\Generated_Source\PSoC4/CapSense_CSHL.c **** 
  85:.\Generated_Source\PSoC4/CapSense_CSHL.c **** const uint8 CapSense_debounce[] = {
  86:.\Generated_Source\PSoC4/CapSense_CSHL.c ****     1u, 
  87:.\Generated_Source\PSoC4/CapSense_CSHL.c **** };
  88:.\Generated_Source\PSoC4/CapSense_CSHL.c **** 
  89:.\Generated_Source\PSoC4/CapSense_CSHL.c **** const uint8 CapSense_rawDataIndex[] = {
ARM GAS  C:\Users\ALEXAN~1\AppData\Local\Temp\cc9HWPtE.s 			page 3


  90:.\Generated_Source\PSoC4/CapSense_CSHL.c ****     0u, /* LinearSlider0__LS */
  91:.\Generated_Source\PSoC4/CapSense_CSHL.c **** };
  92:.\Generated_Source\PSoC4/CapSense_CSHL.c **** 
  93:.\Generated_Source\PSoC4/CapSense_CSHL.c **** const uint8 CapSense_numberOfSensors[] = {
  94:.\Generated_Source\PSoC4/CapSense_CSHL.c ****     5u, /* LinearSlider0__LS */
  95:.\Generated_Source\PSoC4/CapSense_CSHL.c **** };
  96:.\Generated_Source\PSoC4/CapSense_CSHL.c **** 
  97:.\Generated_Source\PSoC4/CapSense_CSHL.c **** static const uint16 CapSense_centroidMult[] = {
  98:.\Generated_Source\PSoC4/CapSense_CSHL.c ****     6400u, 
  99:.\Generated_Source\PSoC4/CapSense_CSHL.c **** };
 100:.\Generated_Source\PSoC4/CapSense_CSHL.c **** 
 101:.\Generated_Source\PSoC4/CapSense_CSHL.c **** 
 102:.\Generated_Source\PSoC4/CapSense_CSHL.c **** 
 103:.\Generated_Source\PSoC4/CapSense_CSHL.c **** 
 104:.\Generated_Source\PSoC4/CapSense_CSHL.c **** /*******************************************************************************
 105:.\Generated_Source\PSoC4/CapSense_CSHL.c **** * Function Name: CapSense_BaseInit
 106:.\Generated_Source\PSoC4/CapSense_CSHL.c **** ********************************************************************************
 107:.\Generated_Source\PSoC4/CapSense_CSHL.c **** *
 108:.\Generated_Source\PSoC4/CapSense_CSHL.c **** * Summary:
 109:.\Generated_Source\PSoC4/CapSense_CSHL.c **** *  Loads the CapSense_sensorBaseline[sensor] array element with an 
 110:.\Generated_Source\PSoC4/CapSense_CSHL.c **** *  initial value which is equal to the raw count value. 
 111:.\Generated_Source\PSoC4/CapSense_CSHL.c **** *  Resets to zero CapSense_sensorBaselineLow[sensor] and 
 112:.\Generated_Source\PSoC4/CapSense_CSHL.c **** *  CapSense_sensorSignal[sensor] array element.
 113:.\Generated_Source\PSoC4/CapSense_CSHL.c **** *  Loads the CapSense_rawFilterData2[sensor] and 
 114:.\Generated_Source\PSoC4/CapSense_CSHL.c **** *  CapSense_rawFilterData2[sensor] array element with an 
 115:.\Generated_Source\PSoC4/CapSense_CSHL.c **** *  initial value which is equal to the raw count value if the raw data filter is enabled.
 116:.\Generated_Source\PSoC4/CapSense_CSHL.c **** *
 117:.\Generated_Source\PSoC4/CapSense_CSHL.c **** * Parameters:
 118:.\Generated_Source\PSoC4/CapSense_CSHL.c **** *  sensor:  Sensor number.
 119:.\Generated_Source\PSoC4/CapSense_CSHL.c **** *
 120:.\Generated_Source\PSoC4/CapSense_CSHL.c **** * Return:
 121:.\Generated_Source\PSoC4/CapSense_CSHL.c **** *  None
 122:.\Generated_Source\PSoC4/CapSense_CSHL.c **** *
 123:.\Generated_Source\PSoC4/CapSense_CSHL.c **** * Global Variables:
 124:.\Generated_Source\PSoC4/CapSense_CSHL.c **** *  CapSense_sensorBaseline[]    - used to store the baseline value.
 125:.\Generated_Source\PSoC4/CapSense_CSHL.c **** *  CapSense_sensorBaselineLow[] - used to store the fraction byte of 
 126:.\Generated_Source\PSoC4/CapSense_CSHL.c **** *  the baseline value.
 127:.\Generated_Source\PSoC4/CapSense_CSHL.c **** *  CapSense_sensorSignal[]      - used to store a difference between 
 128:.\Generated_Source\PSoC4/CapSense_CSHL.c **** *  the current value of raw data and the previous value of the baseline.
 129:.\Generated_Source\PSoC4/CapSense_CSHL.c **** *  CapSense_rawFilterData1[]    - used to store a previous sample of 
 130:.\Generated_Source\PSoC4/CapSense_CSHL.c **** *  any enabled raw data filter.
 131:.\Generated_Source\PSoC4/CapSense_CSHL.c **** *  CapSense_rawFilterData2[]    - used to store before a previous sample
 132:.\Generated_Source\PSoC4/CapSense_CSHL.c **** *  of the enabled raw data filter. Required only for median or average filters.
 133:.\Generated_Source\PSoC4/CapSense_CSHL.c **** *
 134:.\Generated_Source\PSoC4/CapSense_CSHL.c **** * Side Effects:
 135:.\Generated_Source\PSoC4/CapSense_CSHL.c **** *  None
 136:.\Generated_Source\PSoC4/CapSense_CSHL.c **** * 
 137:.\Generated_Source\PSoC4/CapSense_CSHL.c **** *******************************************************************************/
 138:.\Generated_Source\PSoC4/CapSense_CSHL.c **** void CapSense_BaseInit(uint32 sensor)
 139:.\Generated_Source\PSoC4/CapSense_CSHL.c **** {
  26              		.loc 1 139 0
  27              		.cfi_startproc
  28              	.LVL0:
 140:.\Generated_Source\PSoC4/CapSense_CSHL.c ****     #if ((CapSense_TOTAL_BUTTONS_COUNT) || (CapSense_TOTAL_MATRIX_BUTTONS_COUNT) || \
 141:.\Generated_Source\PSoC4/CapSense_CSHL.c ****          (CapSense_TOTAL_GENERICS_COUNT))
 142:.\Generated_Source\PSoC4/CapSense_CSHL.c ****         uint8 widget = CapSense_widgetNumber[sensor];
 143:.\Generated_Source\PSoC4/CapSense_CSHL.c ****     #endif /* ((CapSense_TOTAL_MATRIX_BUTTONS_COUNT) || (CapSense_TOTAL_MATRIX_BUTTONS_COUNT)) */
ARM GAS  C:\Users\ALEXAN~1\AppData\Local\Temp\cc9HWPtE.s 			page 4


 144:.\Generated_Source\PSoC4/CapSense_CSHL.c ****     
 145:.\Generated_Source\PSoC4/CapSense_CSHL.c ****     #if (CapSense_TOTAL_MATRIX_BUTTONS_COUNT)
 146:.\Generated_Source\PSoC4/CapSense_CSHL.c ****         uint8 debounceIndex;
 147:.\Generated_Source\PSoC4/CapSense_CSHL.c ****     #endif  /* (CapSense_TOTAL_MATRIX_BUTTONS_COUNT) */
 148:.\Generated_Source\PSoC4/CapSense_CSHL.c ****     
 149:.\Generated_Source\PSoC4/CapSense_CSHL.c ****     #if (CapSense_TOTAL_GENERICS_COUNT)
 150:.\Generated_Source\PSoC4/CapSense_CSHL.c ****         /* Exclude generic widget */
 151:.\Generated_Source\PSoC4/CapSense_CSHL.c ****         if(widget < CapSense_END_OF_WIDGETS_INDEX)
 152:.\Generated_Source\PSoC4/CapSense_CSHL.c ****         {
 153:.\Generated_Source\PSoC4/CapSense_CSHL.c ****     #endif  /* CapSense_TOTAL_GENERICS_COUNT */
 154:.\Generated_Source\PSoC4/CapSense_CSHL.c ****     
 155:.\Generated_Source\PSoC4/CapSense_CSHL.c ****     /* Initialize Baseline */
 156:.\Generated_Source\PSoC4/CapSense_CSHL.c ****     CapSense_sensorBaseline[sensor] = CapSense_sensorRaw[sensor];
  29              		.loc 1 156 0
  30 0000 4300     		lsl	r3, r0, #1
  31 0002 054A     		ldr	r2, .L2
  32 0004 995A     		ldrh	r1, [r3, r2]
  33 0006 054A     		ldr	r2, .L2+4
  34 0008 9952     		strh	r1, [r3, r2]
 157:.\Generated_Source\PSoC4/CapSense_CSHL.c ****     CapSense_sensorBaselineLow[sensor] = 0u;
  35              		.loc 1 157 0
  36 000a 1018     		add	r0, r2, r0
  37              	.LVL1:
  38 000c 0021     		mov	r1, #0
  39 000e 0173     		strb	r1, [r0, #12]
 158:.\Generated_Source\PSoC4/CapSense_CSHL.c ****     CapSense_sensorSignal[sensor] = 0u;
  40              		.loc 1 158 0
  41 0010 D318     		add	r3, r2, r3
  42 0012 9982     		strh	r1, [r3, #20]
 159:.\Generated_Source\PSoC4/CapSense_CSHL.c ****         
 160:.\Generated_Source\PSoC4/CapSense_CSHL.c **** 
 161:.\Generated_Source\PSoC4/CapSense_CSHL.c ****     
 162:.\Generated_Source\PSoC4/CapSense_CSHL.c ****     #if ((0u != (CapSense_RAW_FILTER_MASK & CapSense_MEDIAN_FILTER)) ||\
 163:.\Generated_Source\PSoC4/CapSense_CSHL.c ****          (0u != (CapSense_RAW_FILTER_MASK & CapSense_AVERAGING_FILTER)))
 164:.\Generated_Source\PSoC4/CapSense_CSHL.c **** 
 165:.\Generated_Source\PSoC4/CapSense_CSHL.c ****         CapSense_rawFilterData1[sensor] = CapSense_sensorRaw[sensor];
 166:.\Generated_Source\PSoC4/CapSense_CSHL.c ****         CapSense_rawFilterData2[sensor] = CapSense_sensorRaw[sensor];
 167:.\Generated_Source\PSoC4/CapSense_CSHL.c ****     
 168:.\Generated_Source\PSoC4/CapSense_CSHL.c ****     #elif ((CapSense_RAW_FILTER_MASK & CapSense_IIR2_FILTER) ||\
 169:.\Generated_Source\PSoC4/CapSense_CSHL.c ****            (CapSense_RAW_FILTER_MASK & CapSense_IIR4_FILTER) ||\
 170:.\Generated_Source\PSoC4/CapSense_CSHL.c ****            (CapSense_RAW_FILTER_MASK & CapSense_JITTER_FILTER) ||\
 171:.\Generated_Source\PSoC4/CapSense_CSHL.c ****            (CapSense_RAW_FILTER_MASK & CapSense_IIR8_FILTER) ||\
 172:.\Generated_Source\PSoC4/CapSense_CSHL.c ****            (CapSense_RAW_FILTER_MASK & CapSense_IIR16_FILTER))
 173:.\Generated_Source\PSoC4/CapSense_CSHL.c ****             
 174:.\Generated_Source\PSoC4/CapSense_CSHL.c ****         CapSense_rawFilterData1[sensor] = CapSense_sensorRaw[sensor];
 175:.\Generated_Source\PSoC4/CapSense_CSHL.c ****     
 176:.\Generated_Source\PSoC4/CapSense_CSHL.c ****     #else
 177:.\Generated_Source\PSoC4/CapSense_CSHL.c ****         /* No Raw filters */
 178:.\Generated_Source\PSoC4/CapSense_CSHL.c ****     #endif  /* ((CapSense_RAW_FILTER_MASK & CapSense_MEDIAN_FILTER) || \
 179:.\Generated_Source\PSoC4/CapSense_CSHL.c ****             *   (CapSense_RAW_FILTER_MASK & CapSense_AVERAGING_FILTER))
 180:.\Generated_Source\PSoC4/CapSense_CSHL.c ****             */
 181:.\Generated_Source\PSoC4/CapSense_CSHL.c ****     
 182:.\Generated_Source\PSoC4/CapSense_CSHL.c ****     #if (CapSense_TOTAL_GENERICS_COUNT)
 183:.\Generated_Source\PSoC4/CapSense_CSHL.c ****         /* Exclude generic widget */
 184:.\Generated_Source\PSoC4/CapSense_CSHL.c ****         }
 185:.\Generated_Source\PSoC4/CapSense_CSHL.c ****     #endif  /* CapSense_TOTAL_GENERICS_COUNT */
 186:.\Generated_Source\PSoC4/CapSense_CSHL.c **** }
ARM GAS  C:\Users\ALEXAN~1\AppData\Local\Temp\cc9HWPtE.s 			page 5


  43              		.loc 1 186 0
  44              		@ sp needed
  45 0014 7047     		bx	lr
  46              	.L3:
  47 0016 C046     		.align	2
  48              	.L2:
  49 0018 00000000 		.word	CapSense_sensorRaw
  50 001c 00000000 		.word	.LANCHOR0
  51              		.cfi_endproc
  52              	.LFE35:
  53              		.size	CapSense_BaseInit, .-CapSense_BaseInit
  54              		.section	.text.CapSense_InitializeSensorBaseline,"ax",%progbits
  55              		.align	2
  56              		.global	CapSense_InitializeSensorBaseline
  57              		.code	16
  58              		.thumb_func
  59              		.type	CapSense_InitializeSensorBaseline, %function
  60              	CapSense_InitializeSensorBaseline:
  61              	.LFB36:
 187:.\Generated_Source\PSoC4/CapSense_CSHL.c **** 
 188:.\Generated_Source\PSoC4/CapSense_CSHL.c **** 
 189:.\Generated_Source\PSoC4/CapSense_CSHL.c **** /*******************************************************************************
 190:.\Generated_Source\PSoC4/CapSense_CSHL.c **** * Function Name: CapSense_InitializeSensorBaseline
 191:.\Generated_Source\PSoC4/CapSense_CSHL.c **** ********************************************************************************
 192:.\Generated_Source\PSoC4/CapSense_CSHL.c **** *
 193:.\Generated_Source\PSoC4/CapSense_CSHL.c **** * Summary:
 194:.\Generated_Source\PSoC4/CapSense_CSHL.c **** *  Loads the CapSense_sensorBaseline[sensor] array element with an 
 195:.\Generated_Source\PSoC4/CapSense_CSHL.c **** *  initial value by scanning the selected sensor (one channel design) or a pair 
 196:.\Generated_Source\PSoC4/CapSense_CSHL.c **** *  of sensors (two channels designs). The raw count value is copied into the 
 197:.\Generated_Source\PSoC4/CapSense_CSHL.c **** *  baseline array for each sensor. The raw data filters are initialized if 
 198:.\Generated_Source\PSoC4/CapSense_CSHL.c **** *  enabled.
 199:.\Generated_Source\PSoC4/CapSense_CSHL.c **** *
 200:.\Generated_Source\PSoC4/CapSense_CSHL.c **** * Parameters:
 201:.\Generated_Source\PSoC4/CapSense_CSHL.c **** *  sensor:  Sensor number.
 202:.\Generated_Source\PSoC4/CapSense_CSHL.c **** *
 203:.\Generated_Source\PSoC4/CapSense_CSHL.c **** * Return:
 204:.\Generated_Source\PSoC4/CapSense_CSHL.c **** *  None
 205:.\Generated_Source\PSoC4/CapSense_CSHL.c **** *
 206:.\Generated_Source\PSoC4/CapSense_CSHL.c **** * Global Variables:
 207:.\Generated_Source\PSoC4/CapSense_CSHL.c **** *  None
 208:.\Generated_Source\PSoC4/CapSense_CSHL.c **** *
 209:.\Generated_Source\PSoC4/CapSense_CSHL.c **** * Side Effects:
 210:.\Generated_Source\PSoC4/CapSense_CSHL.c **** *  None
 211:.\Generated_Source\PSoC4/CapSense_CSHL.c **** * 
 212:.\Generated_Source\PSoC4/CapSense_CSHL.c **** *******************************************************************************/
 213:.\Generated_Source\PSoC4/CapSense_CSHL.c **** void CapSense_InitializeSensorBaseline(uint32 sensor)
 214:.\Generated_Source\PSoC4/CapSense_CSHL.c **** {
  62              		.loc 1 214 0
  63              		.cfi_startproc
  64              	.LVL2:
  65 0000 10B5     		push	{r4, lr}
  66              		.cfi_def_cfa_offset 8
  67              		.cfi_offset 4, -8
  68              		.cfi_offset 14, -4
  69 0002 041C     		mov	r4, r0
 215:.\Generated_Source\PSoC4/CapSense_CSHL.c ****     /* Scan sensor */
 216:.\Generated_Source\PSoC4/CapSense_CSHL.c ****     CapSense_ScanSensor(sensor);
ARM GAS  C:\Users\ALEXAN~1\AppData\Local\Temp\cc9HWPtE.s 			page 6


  70              		.loc 1 216 0
  71 0004 FFF7FEFF 		bl	CapSense_ScanSensor
  72              	.LVL3:
  73              	.L5:
 217:.\Generated_Source\PSoC4/CapSense_CSHL.c ****     while(CapSense_IsBusy() != 0u)
  74              		.loc 1 217 0 discriminator 1
  75 0008 FFF7FEFF 		bl	CapSense_IsBusy
  76              	.LVL4:
  77 000c 0028     		cmp	r0, #0
  78 000e FBD1     		bne	.L5
 218:.\Generated_Source\PSoC4/CapSense_CSHL.c ****     {
 219:.\Generated_Source\PSoC4/CapSense_CSHL.c ****         /* Wait while sensor is busy */
 220:.\Generated_Source\PSoC4/CapSense_CSHL.c ****     }
 221:.\Generated_Source\PSoC4/CapSense_CSHL.c ****     
 222:.\Generated_Source\PSoC4/CapSense_CSHL.c ****     /* Initialize Baseline, Signal and debounce counters */       
 223:.\Generated_Source\PSoC4/CapSense_CSHL.c ****     CapSense_BaseInit(sensor);
  79              		.loc 1 223 0
  80 0010 201C     		mov	r0, r4
  81 0012 FFF7FEFF 		bl	CapSense_BaseInit
  82              	.LVL5:
 224:.\Generated_Source\PSoC4/CapSense_CSHL.c **** }
  83              		.loc 1 224 0
  84              		@ sp needed
  85              	.LVL6:
  86 0016 10BD     		pop	{r4, pc}
  87              		.cfi_endproc
  88              	.LFE36:
  89              		.size	CapSense_InitializeSensorBaseline, .-CapSense_InitializeSensorBaseline
  90              		.section	.text.CapSense_InitializeAllBaselines,"ax",%progbits
  91              		.align	2
  92              		.global	CapSense_InitializeAllBaselines
  93              		.code	16
  94              		.thumb_func
  95              		.type	CapSense_InitializeAllBaselines, %function
  96              	CapSense_InitializeAllBaselines:
  97              	.LFB37:
 225:.\Generated_Source\PSoC4/CapSense_CSHL.c **** 
 226:.\Generated_Source\PSoC4/CapSense_CSHL.c **** 
 227:.\Generated_Source\PSoC4/CapSense_CSHL.c **** /*******************************************************************************
 228:.\Generated_Source\PSoC4/CapSense_CSHL.c **** * Function Name: CapSense_InitializeAllBaselines
 229:.\Generated_Source\PSoC4/CapSense_CSHL.c **** ********************************************************************************
 230:.\Generated_Source\PSoC4/CapSense_CSHL.c **** *
 231:.\Generated_Source\PSoC4/CapSense_CSHL.c **** * Summary:
 232:.\Generated_Source\PSoC4/CapSense_CSHL.c **** *  Uses the CapSense_InitializeSensorBaseline function to load the 
 233:.\Generated_Source\PSoC4/CapSense_CSHL.c **** *  CapSense_sensorBaseline[] array with an initial values by scanning 
 234:.\Generated_Source\PSoC4/CapSense_CSHL.c **** *  all the sensors. The raw count values are copied into the baseline array for 
 235:.\Generated_Source\PSoC4/CapSense_CSHL.c **** *  all the sensors. The raw data filters are initialized if enabled.
 236:.\Generated_Source\PSoC4/CapSense_CSHL.c **** *
 237:.\Generated_Source\PSoC4/CapSense_CSHL.c **** * Parameters:
 238:.\Generated_Source\PSoC4/CapSense_CSHL.c **** *  None
 239:.\Generated_Source\PSoC4/CapSense_CSHL.c **** *
 240:.\Generated_Source\PSoC4/CapSense_CSHL.c **** * Return:
 241:.\Generated_Source\PSoC4/CapSense_CSHL.c **** *  None
 242:.\Generated_Source\PSoC4/CapSense_CSHL.c **** *
 243:.\Generated_Source\PSoC4/CapSense_CSHL.c **** * Global Variables:
 244:.\Generated_Source\PSoC4/CapSense_CSHL.c **** *  None
 245:.\Generated_Source\PSoC4/CapSense_CSHL.c **** *
ARM GAS  C:\Users\ALEXAN~1\AppData\Local\Temp\cc9HWPtE.s 			page 7


 246:.\Generated_Source\PSoC4/CapSense_CSHL.c **** * Side Effects:
 247:.\Generated_Source\PSoC4/CapSense_CSHL.c **** *  None
 248:.\Generated_Source\PSoC4/CapSense_CSHL.c **** * 
 249:.\Generated_Source\PSoC4/CapSense_CSHL.c **** *******************************************************************************/
 250:.\Generated_Source\PSoC4/CapSense_CSHL.c **** void CapSense_InitializeAllBaselines(void)
 251:.\Generated_Source\PSoC4/CapSense_CSHL.c **** {
  98              		.loc 1 251 0
  99              		.cfi_startproc
 100 0000 10B5     		push	{r4, lr}
 101              		.cfi_def_cfa_offset 8
 102              		.cfi_offset 4, -8
 103              		.cfi_offset 14, -4
 104              	.LVL7:
 252:.\Generated_Source\PSoC4/CapSense_CSHL.c ****     uint32 i;
 253:.\Generated_Source\PSoC4/CapSense_CSHL.c ****     
 254:.\Generated_Source\PSoC4/CapSense_CSHL.c **** 	for(i = 0u; i < CapSense_TOTAL_SCANSLOT_COUNT; i++)
 105              		.loc 1 254 0
 106 0002 0024     		mov	r4, #0
 107 0004 03E0     		b	.L8
 108              	.LVL8:
 109              	.L9:
 255:.\Generated_Source\PSoC4/CapSense_CSHL.c **** 	{
 256:.\Generated_Source\PSoC4/CapSense_CSHL.c ****     	CapSense_InitializeSensorBaseline(i);
 110              		.loc 1 256 0 discriminator 2
 111 0006 201C     		mov	r0, r4
 112 0008 FFF7FEFF 		bl	CapSense_InitializeSensorBaseline
 113              	.LVL9:
 254:.\Generated_Source\PSoC4/CapSense_CSHL.c **** 	for(i = 0u; i < CapSense_TOTAL_SCANSLOT_COUNT; i++)
 114              		.loc 1 254 0 discriminator 2
 115 000c 0134     		add	r4, r4, #1
 116              	.LVL10:
 117              	.L8:
 254:.\Generated_Source\PSoC4/CapSense_CSHL.c **** 	for(i = 0u; i < CapSense_TOTAL_SCANSLOT_COUNT; i++)
 118              		.loc 1 254 0 is_stmt 0 discriminator 1
 119 000e 042C     		cmp	r4, #4
 120 0010 F9D9     		bls	.L9
 257:.\Generated_Source\PSoC4/CapSense_CSHL.c **** 	}
 258:.\Generated_Source\PSoC4/CapSense_CSHL.c **** }
 121              		.loc 1 258 0 is_stmt 1
 122              		@ sp needed
 123              	.LVL11:
 124 0012 10BD     		pop	{r4, pc}
 125              		.cfi_endproc
 126              	.LFE37:
 127              		.size	CapSense_InitializeAllBaselines, .-CapSense_InitializeAllBaselines
 128              		.section	.text.CapSense_InitializeEnabledBaselines,"ax",%progbits
 129              		.align	2
 130              		.global	CapSense_InitializeEnabledBaselines
 131              		.code	16
 132              		.thumb_func
 133              		.type	CapSense_InitializeEnabledBaselines, %function
 134              	CapSense_InitializeEnabledBaselines:
 135              	.LFB38:
 259:.\Generated_Source\PSoC4/CapSense_CSHL.c **** 
 260:.\Generated_Source\PSoC4/CapSense_CSHL.c **** 
 261:.\Generated_Source\PSoC4/CapSense_CSHL.c **** /*******************************************************************************
 262:.\Generated_Source\PSoC4/CapSense_CSHL.c **** * Function Name: CapSense_InitializeEnabledBaselines
ARM GAS  C:\Users\ALEXAN~1\AppData\Local\Temp\cc9HWPtE.s 			page 8


 263:.\Generated_Source\PSoC4/CapSense_CSHL.c **** ********************************************************************************
 264:.\Generated_Source\PSoC4/CapSense_CSHL.c **** *
 265:.\Generated_Source\PSoC4/CapSense_CSHL.c **** * Summary:
 266:.\Generated_Source\PSoC4/CapSense_CSHL.c **** *  Scans all the enabled widgets and the raw count values are copied into the 
 267:.\Generated_Source\PSoC4/CapSense_CSHL.c **** *  baseline array for all the sensors enabled in the scanning process. The baselines 
 268:.\Generated_Source\PSoC4/CapSense_CSHL.c **** *  are initialized with zero values for sensors disabled from the scanning process. 
 269:.\Generated_Source\PSoC4/CapSense_CSHL.c **** *  The raw data filters are initialized if enabled.
 270:.\Generated_Source\PSoC4/CapSense_CSHL.c **** *
 271:.\Generated_Source\PSoC4/CapSense_CSHL.c **** * Parameters:
 272:.\Generated_Source\PSoC4/CapSense_CSHL.c **** *  None
 273:.\Generated_Source\PSoC4/CapSense_CSHL.c **** *
 274:.\Generated_Source\PSoC4/CapSense_CSHL.c **** * Return:
 275:.\Generated_Source\PSoC4/CapSense_CSHL.c **** *  None
 276:.\Generated_Source\PSoC4/CapSense_CSHL.c **** *
 277:.\Generated_Source\PSoC4/CapSense_CSHL.c **** * Global Variables:
 278:.\Generated_Source\PSoC4/CapSense_CSHL.c **** *  CapSense_sensorRaw[] - used to store the sensors raw data.
 279:.\Generated_Source\PSoC4/CapSense_CSHL.c **** *  CapSense_sensorEnableMask[ ] - used to store bit masks of the enabled sensors.
 280:.\Generated_Source\PSoC4/CapSense_CSHL.c **** *
 281:.\Generated_Source\PSoC4/CapSense_CSHL.c **** * Side Effects:
 282:.\Generated_Source\PSoC4/CapSense_CSHL.c **** *  None
 283:.\Generated_Source\PSoC4/CapSense_CSHL.c **** * 
 284:.\Generated_Source\PSoC4/CapSense_CSHL.c **** *******************************************************************************/
 285:.\Generated_Source\PSoC4/CapSense_CSHL.c **** void CapSense_InitializeEnabledBaselines(void)
 286:.\Generated_Source\PSoC4/CapSense_CSHL.c **** {
 136              		.loc 1 286 0
 137              		.cfi_startproc
 138 0000 38B5     		push	{r3, r4, r5, lr}
 139              		.cfi_def_cfa_offset 16
 140              		.cfi_offset 3, -16
 141              		.cfi_offset 4, -12
 142              		.cfi_offset 5, -8
 143              		.cfi_offset 14, -4
 287:.\Generated_Source\PSoC4/CapSense_CSHL.c ****     uint32 i;
 288:.\Generated_Source\PSoC4/CapSense_CSHL.c ****     uint32 isSensorEnabled;
 289:.\Generated_Source\PSoC4/CapSense_CSHL.c ****     
 290:.\Generated_Source\PSoC4/CapSense_CSHL.c ****     CapSense_ScanEnabledWidgets();
 144              		.loc 1 290 0
 145 0002 FFF7FEFF 		bl	CapSense_ScanEnabledWidgets
 146              	.LVL12:
 147              	.L11:
 291:.\Generated_Source\PSoC4/CapSense_CSHL.c ****     while(CapSense_IsBusy() != 0u)
 148              		.loc 1 291 0 discriminator 1
 149 0006 FFF7FEFF 		bl	CapSense_IsBusy
 150              	.LVL13:
 151 000a 0028     		cmp	r0, #0
 152 000c FBD1     		bne	.L11
 153 000e 0024     		mov	r4, #0
 292:.\Generated_Source\PSoC4/CapSense_CSHL.c ****     {
 293:.\Generated_Source\PSoC4/CapSense_CSHL.c ****         /* Wait while sensor is busy */
 294:.\Generated_Source\PSoC4/CapSense_CSHL.c ****     }
 295:.\Generated_Source\PSoC4/CapSense_CSHL.c ****     
 296:.\Generated_Source\PSoC4/CapSense_CSHL.c ****     for(i = 0u; i < CapSense_TOTAL_SENSOR_COUNT; i++)
 297:.\Generated_Source\PSoC4/CapSense_CSHL.c ****     {
 298:.\Generated_Source\PSoC4/CapSense_CSHL.c ****         isSensorEnabled = CapSense_GetBitValue(CapSense_sensorEnableMask, i);
 154              		.loc 1 298 0
 155 0010 074D     		ldr	r5, .L16
 156 0012 09E0     		b	.L12
ARM GAS  C:\Users\ALEXAN~1\AppData\Local\Temp\cc9HWPtE.s 			page 9


 157              	.LVL14:
 158              	.L14:
 159 0014 281C     		mov	r0, r5
 160 0016 211C     		mov	r1, r4
 161 0018 FFF7FEFF 		bl	CapSense_GetBitValue
 162              	.LVL15:
 299:.\Generated_Source\PSoC4/CapSense_CSHL.c ****         
 300:.\Generated_Source\PSoC4/CapSense_CSHL.c ****         /* Clear raw data if sensor is disabled from scanning process */
 301:.\Generated_Source\PSoC4/CapSense_CSHL.c ****         if(isSensorEnabled != 0u)
 163              		.loc 1 301 0
 164 001c 0028     		cmp	r0, #0
 165 001e 02D0     		beq	.L13
 302:.\Generated_Source\PSoC4/CapSense_CSHL.c ****         {
 303:.\Generated_Source\PSoC4/CapSense_CSHL.c ****             /* Initialize baselines */
 304:.\Generated_Source\PSoC4/CapSense_CSHL.c ****             CapSense_BaseInit(i);
 166              		.loc 1 304 0
 167 0020 201C     		mov	r0, r4
 168              	.LVL16:
 169 0022 FFF7FEFF 		bl	CapSense_BaseInit
 170              	.LVL17:
 171              	.L13:
 296:.\Generated_Source\PSoC4/CapSense_CSHL.c ****     for(i = 0u; i < CapSense_TOTAL_SENSOR_COUNT; i++)
 172              		.loc 1 296 0
 173 0026 0134     		add	r4, r4, #1
 174              	.LVL18:
 175              	.L12:
 296:.\Generated_Source\PSoC4/CapSense_CSHL.c ****     for(i = 0u; i < CapSense_TOTAL_SENSOR_COUNT; i++)
 176              		.loc 1 296 0 is_stmt 0 discriminator 1
 177 0028 042C     		cmp	r4, #4
 178 002a F3D9     		bls	.L14
 305:.\Generated_Source\PSoC4/CapSense_CSHL.c ****         }
 306:.\Generated_Source\PSoC4/CapSense_CSHL.c ****     }
 307:.\Generated_Source\PSoC4/CapSense_CSHL.c **** }  
 179              		.loc 1 307 0 is_stmt 1
 180              		@ sp needed
 181              	.LVL19:
 182 002c 38BD     		pop	{r3, r4, r5, pc}
 183              	.L17:
 184 002e C046     		.align	2
 185              	.L16:
 186 0030 00000000 		.word	CapSense_sensorEnableMask
 187              		.cfi_endproc
 188              	.LFE38:
 189              		.size	CapSense_InitializeEnabledBaselines, .-CapSense_InitializeEnabledBaselines
 190              		.section	.text.CapSense_UpdateBaselineNoThreshold,"ax",%progbits
 191              		.align	2
 192              		.global	CapSense_UpdateBaselineNoThreshold
 193              		.code	16
 194              		.thumb_func
 195              		.type	CapSense_UpdateBaselineNoThreshold, %function
 196              	CapSense_UpdateBaselineNoThreshold:
 197              	.LFB39:
 308:.\Generated_Source\PSoC4/CapSense_CSHL.c **** 
 309:.\Generated_Source\PSoC4/CapSense_CSHL.c **** 
 310:.\Generated_Source\PSoC4/CapSense_CSHL.c **** /*******************************************************************************
 311:.\Generated_Source\PSoC4/CapSense_CSHL.c **** * Function Name: CapSense_UpdateBaselineNoThreshold
 312:.\Generated_Source\PSoC4/CapSense_CSHL.c **** ********************************************************************************
ARM GAS  C:\Users\ALEXAN~1\AppData\Local\Temp\cc9HWPtE.s 			page 10


 313:.\Generated_Source\PSoC4/CapSense_CSHL.c **** *
 314:.\Generated_Source\PSoC4/CapSense_CSHL.c **** * Summary:
 315:.\Generated_Source\PSoC4/CapSense_CSHL.c **** *  Updates the CapSense_sensorBaseline[sensor] array element using the 
 316:.\Generated_Source\PSoC4/CapSense_CSHL.c **** *  LP filter with k = 256. The signal calculates the difference of count by 
 317:.\Generated_Source\PSoC4/CapSense_CSHL.c **** *  subtracting the previous baseline from the current raw count value and stores
 318:.\Generated_Source\PSoC4/CapSense_CSHL.c **** *  it in CapSense_sensorSignal[sensor]. 
 319:.\Generated_Source\PSoC4/CapSense_CSHL.c **** *  If the auto reset option is enabled, the baseline updated regards the noise threshold. 
 320:.\Generated_Source\PSoC4/CapSense_CSHL.c **** *  If the auto reset option is disabled, the baseline stops updating; baseline is loaded 
 321:.\Generated_Source\PSoC4/CapSense_CSHL.c **** *  with a raw count value if a signal is greater than zero and if signal is less 
 322:.\Generated_Source\PSoC4/CapSense_CSHL.c **** *  than noise threshold.
 323:.\Generated_Source\PSoC4/CapSense_CSHL.c **** *  Raw data filters are applied to the values if enabled before baseline 
 324:.\Generated_Source\PSoC4/CapSense_CSHL.c **** *  calculation.
 325:.\Generated_Source\PSoC4/CapSense_CSHL.c **** *
 326:.\Generated_Source\PSoC4/CapSense_CSHL.c **** *  This API does not update the thresholds in the Smartsense Mode.
 327:.\Generated_Source\PSoC4/CapSense_CSHL.c **** *
 328:.\Generated_Source\PSoC4/CapSense_CSHL.c **** * Parameters:
 329:.\Generated_Source\PSoC4/CapSense_CSHL.c **** *  sensor:  Sensor number.
 330:.\Generated_Source\PSoC4/CapSense_CSHL.c **** *
 331:.\Generated_Source\PSoC4/CapSense_CSHL.c **** * Return:
 332:.\Generated_Source\PSoC4/CapSense_CSHL.c **** *  None
 333:.\Generated_Source\PSoC4/CapSense_CSHL.c **** *
 334:.\Generated_Source\PSoC4/CapSense_CSHL.c **** * Global Variables:
 335:.\Generated_Source\PSoC4/CapSense_CSHL.c **** *  CapSense_widgetNumber[]  - stores widget numbers.
 336:.\Generated_Source\PSoC4/CapSense_CSHL.c **** *  CapSense_sensorBaseline[]    - used to store baseline value.
 337:.\Generated_Source\PSoC4/CapSense_CSHL.c **** *  CapSense_sensorBaselineLow[] - used to store fraction byte of 
 338:.\Generated_Source\PSoC4/CapSense_CSHL.c **** *  baseline value.
 339:.\Generated_Source\PSoC4/CapSense_CSHL.c **** *  CapSense_sensorSignal[]      - used to store difference between 
 340:.\Generated_Source\PSoC4/CapSense_CSHL.c **** *  current value of raw data and previous value of baseline.
 341:.\Generated_Source\PSoC4/CapSense_CSHL.c **** *  CapSense_rawFilterData1[]    - used to store previous sample of 
 342:.\Generated_Source\PSoC4/CapSense_CSHL.c **** *  any enabled raw data filter.
 343:.\Generated_Source\PSoC4/CapSense_CSHL.c **** *  CapSense_rawFilterData2[]    - used to store before previous sample
 344:.\Generated_Source\PSoC4/CapSense_CSHL.c **** *  of enabled raw data filter. Only required for median or average filters.
 345:.\Generated_Source\PSoC4/CapSense_CSHL.c **** * 
 346:.\Generated_Source\PSoC4/CapSense_CSHL.c **** * Side Effects:
 347:.\Generated_Source\PSoC4/CapSense_CSHL.c **** *  None
 348:.\Generated_Source\PSoC4/CapSense_CSHL.c **** * 
 349:.\Generated_Source\PSoC4/CapSense_CSHL.c **** *******************************************************************************/
 350:.\Generated_Source\PSoC4/CapSense_CSHL.c **** void CapSense_UpdateBaselineNoThreshold(uint32 sensor)
 351:.\Generated_Source\PSoC4/CapSense_CSHL.c **** {
 198              		.loc 1 351 0
 199              		.cfi_startproc
 200              	.LVL20:
 201 0000 F8B5     		push	{r3, r4, r5, r6, r7, lr}
 202              		.cfi_def_cfa_offset 24
 203              		.cfi_offset 3, -24
 204              		.cfi_offset 4, -20
 205              		.cfi_offset 5, -16
 206              		.cfi_offset 6, -12
 207              		.cfi_offset 7, -8
 208              		.cfi_offset 14, -4
 209 0002 4F46     		mov	r7, r9
 210 0004 4646     		mov	r6, r8
 211 0006 C0B4     		push	{r6, r7}
 212              		.cfi_def_cfa_offset 32
 213              		.cfi_offset 8, -32
 214              		.cfi_offset 9, -28
 215 0008 041C     		mov	r4, r0
ARM GAS  C:\Users\ALEXAN~1\AppData\Local\Temp\cc9HWPtE.s 			page 11


 216              	.LVL21:
 352:.\Generated_Source\PSoC4/CapSense_CSHL.c ****     uint32 calc;
 353:.\Generated_Source\PSoC4/CapSense_CSHL.c **** 	uint32 sign;
 354:.\Generated_Source\PSoC4/CapSense_CSHL.c ****     uint16 tempRaw;
 355:.\Generated_Source\PSoC4/CapSense_CSHL.c ****     uint16 filteredRawData;
 356:.\Generated_Source\PSoC4/CapSense_CSHL.c ****     uint8 widget = CapSense_widgetNumber[sensor];
 357:.\Generated_Source\PSoC4/CapSense_CSHL.c ****     uint16 noiseThreshold = CapSense_noiseThreshold[widget];
 358:.\Generated_Source\PSoC4/CapSense_CSHL.c ****     
 359:.\Generated_Source\PSoC4/CapSense_CSHL.c ****     #if (CapSense_TOTAL_GENERICS_COUNT)
 360:.\Generated_Source\PSoC4/CapSense_CSHL.c ****         /* Exclude generic widget */
 361:.\Generated_Source\PSoC4/CapSense_CSHL.c ****         if(widget < CapSense_END_OF_WIDGETS_INDEX)
 362:.\Generated_Source\PSoC4/CapSense_CSHL.c ****         {
 363:.\Generated_Source\PSoC4/CapSense_CSHL.c ****     #endif  /* CapSense_TOTAL_GENERICS_COUNT */
 364:.\Generated_Source\PSoC4/CapSense_CSHL.c ****     
 365:.\Generated_Source\PSoC4/CapSense_CSHL.c ****     filteredRawData = CapSense_sensorRaw[sensor];
 217              		.loc 1 365 0
 218 000a 4300     		lsl	r3, r0, #1
 219 000c 274A     		ldr	r2, .L27
 220 000e 9A5A     		ldrh	r2, [r3, r2]
 221              	.LVL22:
 366:.\Generated_Source\PSoC4/CapSense_CSHL.c **** 
 367:.\Generated_Source\PSoC4/CapSense_CSHL.c **** 	#if (CapSense_RAW_FILTER_MASK != 0u)
 368:.\Generated_Source\PSoC4/CapSense_CSHL.c **** 	if(CapSense_enableRawFilters != 0u)
 369:.\Generated_Source\PSoC4/CapSense_CSHL.c **** 	{
 370:.\Generated_Source\PSoC4/CapSense_CSHL.c **** 		#if (CapSense_RAW_FILTER_MASK & CapSense_MEDIAN_FILTER)
 371:.\Generated_Source\PSoC4/CapSense_CSHL.c **** 			tempRaw = filteredRawData;
 372:.\Generated_Source\PSoC4/CapSense_CSHL.c **** 			filteredRawData = CapSense_MedianFilter(filteredRawData, CapSense_rawFilterData1[sensor], 
 373:.\Generated_Source\PSoC4/CapSense_CSHL.c **** 															CapSense_rawFilterData2[sensor]);
 374:.\Generated_Source\PSoC4/CapSense_CSHL.c **** 			CapSense_rawFilterData2[sensor] = CapSense_rawFilterData1[sensor];
 375:.\Generated_Source\PSoC4/CapSense_CSHL.c **** 			CapSense_rawFilterData1[sensor] = tempRaw;
 376:.\Generated_Source\PSoC4/CapSense_CSHL.c **** 			
 377:.\Generated_Source\PSoC4/CapSense_CSHL.c **** 		#elif (CapSense_RAW_FILTER_MASK & CapSense_AVERAGING_FILTER)
 378:.\Generated_Source\PSoC4/CapSense_CSHL.c **** 			tempRaw = filteredRawData;
 379:.\Generated_Source\PSoC4/CapSense_CSHL.c **** 			filteredRawData = CapSense_AveragingFilter(filteredRawData, CapSense_rawFilterData1[sensor],
 380:.\Generated_Source\PSoC4/CapSense_CSHL.c **** 															   CapSense_rawFilterData2[sensor]);
 381:.\Generated_Source\PSoC4/CapSense_CSHL.c **** 			CapSense_rawFilterData2[sensor] = CapSense_rawFilterData1[sensor];
 382:.\Generated_Source\PSoC4/CapSense_CSHL.c **** 			CapSense_rawFilterData1[sensor] = tempRaw;
 383:.\Generated_Source\PSoC4/CapSense_CSHL.c **** 			
 384:.\Generated_Source\PSoC4/CapSense_CSHL.c **** 		#elif (CapSense_RAW_FILTER_MASK & CapSense_IIR2_FILTER)
 385:.\Generated_Source\PSoC4/CapSense_CSHL.c **** 			filteredRawData = CapSense_IIR2Filter(filteredRawData, CapSense_rawFilterData1[sensor]);
 386:.\Generated_Source\PSoC4/CapSense_CSHL.c **** 			CapSense_rawFilterData1[sensor] = filteredRawData;
 387:.\Generated_Source\PSoC4/CapSense_CSHL.c **** 			
 388:.\Generated_Source\PSoC4/CapSense_CSHL.c **** 		#elif (CapSense_RAW_FILTER_MASK & CapSense_IIR4_FILTER)
 389:.\Generated_Source\PSoC4/CapSense_CSHL.c **** 			filteredRawData = CapSense_IIR4Filter(filteredRawData, CapSense_rawFilterData1[sensor]);
 390:.\Generated_Source\PSoC4/CapSense_CSHL.c **** 			CapSense_rawFilterData1[sensor] = filteredRawData;
 391:.\Generated_Source\PSoC4/CapSense_CSHL.c **** 				
 392:.\Generated_Source\PSoC4/CapSense_CSHL.c **** 		#elif (CapSense_RAW_FILTER_MASK & CapSense_JITTER_FILTER)
 393:.\Generated_Source\PSoC4/CapSense_CSHL.c **** 			filteredRawData = CapSense_JitterFilter(filteredRawData, CapSense_rawFilterData1[sensor]);
 394:.\Generated_Source\PSoC4/CapSense_CSHL.c **** 			CapSense_rawFilterData1[sensor] = filteredRawData;
 395:.\Generated_Source\PSoC4/CapSense_CSHL.c **** 			
 396:.\Generated_Source\PSoC4/CapSense_CSHL.c **** 		#elif (CapSense_RAW_FILTER_MASK & CapSense_IIR8_FILTER)
 397:.\Generated_Source\PSoC4/CapSense_CSHL.c **** 			filteredRawData = CapSense_IIR8Filter(filteredRawData, CapSense_rawFilterData1[sensor]);
 398:.\Generated_Source\PSoC4/CapSense_CSHL.c **** 			CapSense_rawFilterData1[sensor] = filteredRawData;
 399:.\Generated_Source\PSoC4/CapSense_CSHL.c **** 			
 400:.\Generated_Source\PSoC4/CapSense_CSHL.c **** 		#elif (CapSense_RAW_FILTER_MASK & CapSense_IIR16_FILTER)
 401:.\Generated_Source\PSoC4/CapSense_CSHL.c **** 			filteredRawData = CapSense_IIR16Filter(filteredRawData, CapSense_rawFilterData1[sensor]);
 402:.\Generated_Source\PSoC4/CapSense_CSHL.c **** 			CapSense_rawFilterData1[sensor] = filteredRawData;
ARM GAS  C:\Users\ALEXAN~1\AppData\Local\Temp\cc9HWPtE.s 			page 12


 403:.\Generated_Source\PSoC4/CapSense_CSHL.c **** 			
 404:.\Generated_Source\PSoC4/CapSense_CSHL.c **** 		#else
 405:.\Generated_Source\PSoC4/CapSense_CSHL.c **** 			/* No Raw filters */
 406:.\Generated_Source\PSoC4/CapSense_CSHL.c **** 		#endif  /* (CapSense_RAW_FILTER_MASK & CapSense_MEDIAN_FILTER) */
 407:.\Generated_Source\PSoC4/CapSense_CSHL.c **** 	}
 408:.\Generated_Source\PSoC4/CapSense_CSHL.c **** 	#endif  /* (CapSense_RAW_FILTER_MASK != 0u) */
 409:.\Generated_Source\PSoC4/CapSense_CSHL.c **** 	
 410:.\Generated_Source\PSoC4/CapSense_CSHL.c **** 	#if (CapSense_TUNING_METHOD == CapSense__TUNING_AUTO)
 411:.\Generated_Source\PSoC4/CapSense_CSHL.c **** 	    MeasureNoiseEnvelope_P4_v2_20(&CapSense_config, (uint8)sensor, CapSense_sensorRaw);
 412:.\Generated_Source\PSoC4/CapSense_CSHL.c **** 	#endif /* (CapSense_TUNING_METHOD == CapSense__TUNING_AUTO) */
 413:.\Generated_Source\PSoC4/CapSense_CSHL.c **** 
 414:.\Generated_Source\PSoC4/CapSense_CSHL.c ****     /* Baseline calculation */
 415:.\Generated_Source\PSoC4/CapSense_CSHL.c ****     /* Calculate difference RawData[cur] - Baseline[prev] */
 416:.\Generated_Source\PSoC4/CapSense_CSHL.c ****     if(filteredRawData >= CapSense_sensorBaseline[sensor])
 222              		.loc 1 416 0
 223 0010 2749     		ldr	r1, .L27+4
 224 0012 5B5A     		ldrh	r3, [r3, r1]
 225              	.LVL23:
 226 0014 9342     		cmp	r3, r2
 227 0016 06D8     		bhi	.L19
 417:.\Generated_Source\PSoC4/CapSense_CSHL.c ****     {
 418:.\Generated_Source\PSoC4/CapSense_CSHL.c **** 		CapSense_lowBaselineResetCnt[sensor] = 0u;	
 228              		.loc 1 418 0
 229 0018 0020     		mov	r0, #0
 230              	.LVL24:
 231 001a 2649     		ldr	r1, .L27+8
 232 001c 0855     		strb	r0, [r1, r4]
 419:.\Generated_Source\PSoC4/CapSense_CSHL.c ****         tempRaw = filteredRawData - CapSense_sensorBaseline[sensor];
 233              		.loc 1 419 0
 234 001e D51A     		sub	r5, r2, r3
 235 0020 ADB2     		uxth	r5, r5
 236              	.LVL25:
 420:.\Generated_Source\PSoC4/CapSense_CSHL.c ****         sign = 1u;    /* Positive difference - Calculate the Signal */
 237              		.loc 1 420 0
 238 0022 0126     		mov	r6, #1
 239 0024 02E0     		b	.L20
 240              	.LVL26:
 241              	.L19:
 421:.\Generated_Source\PSoC4/CapSense_CSHL.c ****     }
 422:.\Generated_Source\PSoC4/CapSense_CSHL.c ****     else
 423:.\Generated_Source\PSoC4/CapSense_CSHL.c ****     {
 424:.\Generated_Source\PSoC4/CapSense_CSHL.c ****         tempRaw = CapSense_sensorBaseline[sensor] - filteredRawData;
 242              		.loc 1 424 0
 243 0026 9D1A     		sub	r5, r3, r2
 244 0028 ADB2     		uxth	r5, r5
 245              	.LVL27:
 425:.\Generated_Source\PSoC4/CapSense_CSHL.c ****         sign = 0u;    /* Negative difference - Do NOT calculate the Signal */
 246              		.loc 1 425 0
 247 002a 0026     		mov	r6, #0
 248              	.LVL28:
 249              	.L20:
 426:.\Generated_Source\PSoC4/CapSense_CSHL.c ****     }
 427:.\Generated_Source\PSoC4/CapSense_CSHL.c **** 
 428:.\Generated_Source\PSoC4/CapSense_CSHL.c **** 	#if (CapSense_TUNING_METHOD != CapSense__TUNING_NONE)
 429:.\Generated_Source\PSoC4/CapSense_CSHL.c **** 	if((sign == 0u) && (tempRaw > (uint16) CapSense_negativeNoiseThreshold[widget]))
 430:.\Generated_Source\PSoC4/CapSense_CSHL.c **** 	#else
 431:.\Generated_Source\PSoC4/CapSense_CSHL.c **** 	if((sign == 0u) && (tempRaw > (uint16) CapSense_NEGATIVE_NOISE_THRESHOLD))
ARM GAS  C:\Users\ALEXAN~1\AppData\Local\Temp\cc9HWPtE.s 			page 13


 250              		.loc 1 431 0
 251 002c 002E     		cmp	r6, #0
 252 002e 12D1     		bne	.L21
 253              		.loc 1 431 0 is_stmt 0 discriminator 1
 254 0030 142D     		cmp	r5, #20
 255 0032 10D9     		bls	.L21
 432:.\Generated_Source\PSoC4/CapSense_CSHL.c **** 	#endif /* (CapSense_TUNING_METHOD != CapSense__TUNING_NONE) */ 
 433:.\Generated_Source\PSoC4/CapSense_CSHL.c ****     {
 434:.\Generated_Source\PSoC4/CapSense_CSHL.c ****         if(CapSense_lowBaselineResetCnt[sensor] >= CapSense_lowBaselineReset[sensor])
 256              		.loc 1 434 0 is_stmt 1
 257 0034 1F4B     		ldr	r3, .L27+8
 258 0036 1B5D     		ldrb	r3, [r3, r4]
 259 0038 1F4A     		ldr	r2, .L27+12
 260 003a 125D     		ldrb	r2, [r2, r4]
 261 003c 9342     		cmp	r3, r2
 262 003e 06D3     		bcc	.L22
 435:.\Generated_Source\PSoC4/CapSense_CSHL.c ****         {
 436:.\Generated_Source\PSoC4/CapSense_CSHL.c ****             CapSense_BaseInit(sensor);
 263              		.loc 1 436 0
 264 0040 201C     		mov	r0, r4
 265 0042 FFF7FEFF 		bl	CapSense_BaseInit
 266              	.LVL29:
 437:.\Generated_Source\PSoC4/CapSense_CSHL.c ****             CapSense_lowBaselineResetCnt[sensor] = 0u;
 267              		.loc 1 437 0
 268 0046 0022     		mov	r2, #0
 269 0048 1A4B     		ldr	r3, .L27+8
 270 004a 1A55     		strb	r2, [r3, r4]
 271 004c 1CE0     		b	.L23
 272              	.LVL30:
 273              	.L22:
 438:.\Generated_Source\PSoC4/CapSense_CSHL.c ****         }
 439:.\Generated_Source\PSoC4/CapSense_CSHL.c ****         else
 440:.\Generated_Source\PSoC4/CapSense_CSHL.c ****         {
 441:.\Generated_Source\PSoC4/CapSense_CSHL.c ****             CapSense_lowBaselineResetCnt[sensor]++;
 274              		.loc 1 441 0
 275 004e 0133     		add	r3, r3, #1
 276 0050 184A     		ldr	r2, .L27+8
 277 0052 1355     		strb	r3, [r2, r4]
 278 0054 18E0     		b	.L23
 279              	.L21:
 442:.\Generated_Source\PSoC4/CapSense_CSHL.c ****         }
 443:.\Generated_Source\PSoC4/CapSense_CSHL.c ****     }
 444:.\Generated_Source\PSoC4/CapSense_CSHL.c ****     else
 445:.\Generated_Source\PSoC4/CapSense_CSHL.c ****     {
 446:.\Generated_Source\PSoC4/CapSense_CSHL.c ****         #if (CapSense_AUTO_RESET == CapSense_AUTO_RESET_DISABLE)
 447:.\Generated_Source\PSoC4/CapSense_CSHL.c **** 		#if (CapSense_TUNING_METHOD != CapSense__TUNING_NONE)			
 448:.\Generated_Source\PSoC4/CapSense_CSHL.c **** 			/* Update Baseline if lower than noiseThreshold */
 449:.\Generated_Source\PSoC4/CapSense_CSHL.c **** 			if ( (tempRaw <= noiseThreshold) || 
 450:.\Generated_Source\PSoC4/CapSense_CSHL.c **** 			 ((tempRaw < (uint16) CapSense_negativeNoiseThreshold[widget])
 451:.\Generated_Source\PSoC4/CapSense_CSHL.c **** 			   && (sign == 0u)))
 452:.\Generated_Source\PSoC4/CapSense_CSHL.c **** 			{
 453:.\Generated_Source\PSoC4/CapSense_CSHL.c **** 		#else
 454:.\Generated_Source\PSoC4/CapSense_CSHL.c **** 			/* Update Baseline if lower than noiseThreshold */
 455:.\Generated_Source\PSoC4/CapSense_CSHL.c **** 			if ( (tempRaw <= noiseThreshold) || 
 280              		.loc 1 455 0
 281 0056 1E2D     		cmp	r5, #30
 282 0058 03D9     		bls	.L24
ARM GAS  C:\Users\ALEXAN~1\AppData\Local\Temp\cc9HWPtE.s 			page 14


 283              		.loc 1 455 0 is_stmt 0 discriminator 1
 284 005a 132D     		cmp	r5, #19
 285 005c 14D8     		bhi	.L23
 456:.\Generated_Source\PSoC4/CapSense_CSHL.c **** 				 ((tempRaw < (uint16) CapSense_NEGATIVE_NOISE_THRESHOLD)
 457:.\Generated_Source\PSoC4/CapSense_CSHL.c **** 				   && (sign == 0u)))
 286              		.loc 1 457 0 is_stmt 1
 287 005e 002E     		cmp	r6, #0
 288 0060 12D1     		bne	.L23
 289              	.L24:
 458:.\Generated_Source\PSoC4/CapSense_CSHL.c **** 			{
 459:.\Generated_Source\PSoC4/CapSense_CSHL.c **** 		#endif /* (CapSense_TUNING_METHOD != CapSense__TUNING_NONE) */ 
 460:.\Generated_Source\PSoC4/CapSense_CSHL.c ****         #endif /* (CapSense_AUTO_RESET == CapSense_AUTO_RESET_DISABLE) */
 461:.\Generated_Source\PSoC4/CapSense_CSHL.c ****                 /* Make full Baseline 23 bits */
 462:.\Generated_Source\PSoC4/CapSense_CSHL.c ****                 calc = (uint32) CapSense_sensorBaseline[sensor] << 8u;
 290              		.loc 1 462 0
 291 0062 1902     		lsl	r1, r3, #8
 292 0064 8846     		mov	r8, r1
 293              	.LVL31:
 463:.\Generated_Source\PSoC4/CapSense_CSHL.c ****                 calc |= (uint32) CapSense_sensorBaselineLow[sensor];
 294              		.loc 1 463 0
 295 0066 1248     		ldr	r0, .L27+4
 296 0068 0719     		add	r7, r0, r4
 297 006a B946     		mov	r9, r7
 298 006c 397B     		ldrb	r1, [r7, #12]
 299              	.LVL32:
 300 006e 4746     		mov	r7, r8
 301 0070 0F43     		orr	r7, r1
 302 0072 BC46     		mov	ip, r7
 303              	.LVL33:
 464:.\Generated_Source\PSoC4/CapSense_CSHL.c **** 
 465:.\Generated_Source\PSoC4/CapSense_CSHL.c ****                 /* Add Raw Data to Baseline */
 466:.\Generated_Source\PSoC4/CapSense_CSHL.c ****                 calc += filteredRawData;
 304              		.loc 1 466 0
 305 0074 6244     		add	r2, r2, ip
 306              	.LVL34:
 467:.\Generated_Source\PSoC4/CapSense_CSHL.c **** 
 468:.\Generated_Source\PSoC4/CapSense_CSHL.c ****                 /* Sub the high Baseline */
 469:.\Generated_Source\PSoC4/CapSense_CSHL.c ****                 calc -= CapSense_sensorBaseline[sensor];
 307              		.loc 1 469 0
 308 0076 D31A     		sub	r3, r2, r3
 309              	.LVL35:
 470:.\Generated_Source\PSoC4/CapSense_CSHL.c **** 
 471:.\Generated_Source\PSoC4/CapSense_CSHL.c ****                 /* Put Baseline and BaselineLow */
 472:.\Generated_Source\PSoC4/CapSense_CSHL.c ****                 CapSense_sensorBaseline[sensor] = ((uint16) (calc >> 8u));
 310              		.loc 1 472 0
 311 0078 1F0A     		lsr	r7, r3, #8
 312 007a 6200     		lsl	r2, r4, #1
 313 007c 8752     		strh	r7, [r0, r2]
 473:.\Generated_Source\PSoC4/CapSense_CSHL.c ****                 CapSense_sensorBaselineLow[sensor] = ((uint8) calc);
 314              		.loc 1 473 0
 315 007e 4946     		mov	r1, r9
 316 0080 0B73     		strb	r3, [r1, #12]
 474:.\Generated_Source\PSoC4/CapSense_CSHL.c **** 
 475:.\Generated_Source\PSoC4/CapSense_CSHL.c ****                 CapSense_lowBaselineResetCnt[sensor] = 0u;
 317              		.loc 1 475 0
 318 0082 0022     		mov	r2, #0
 319 0084 0B4B     		ldr	r3, .L27+8
ARM GAS  C:\Users\ALEXAN~1\AppData\Local\Temp\cc9HWPtE.s 			page 15


 320              	.LVL36:
 321 0086 1A55     		strb	r2, [r3, r4]
 322              	.LVL37:
 323              	.L23:
 476:.\Generated_Source\PSoC4/CapSense_CSHL.c ****         #if (CapSense_AUTO_RESET == CapSense_AUTO_RESET_DISABLE)
 477:.\Generated_Source\PSoC4/CapSense_CSHL.c ****             }
 478:.\Generated_Source\PSoC4/CapSense_CSHL.c ****         #endif /* (CapSense_AUTO_RESET == CapSense_AUTO_RESET_DISABLE) */
 479:.\Generated_Source\PSoC4/CapSense_CSHL.c ****     }
 480:.\Generated_Source\PSoC4/CapSense_CSHL.c **** 
 481:.\Generated_Source\PSoC4/CapSense_CSHL.c ****     /* Calculate Signal if positive difference > noiseThreshold */
 482:.\Generated_Source\PSoC4/CapSense_CSHL.c ****     if((tempRaw > (uint16) noiseThreshold) && (sign != 0u))
 324              		.loc 1 482 0
 325 0088 1E2D     		cmp	r5, #30
 326 008a 06D9     		bls	.L25
 327              		.loc 1 482 0 is_stmt 0 discriminator 1
 328 008c 002E     		cmp	r6, #0
 329 008e 04D0     		beq	.L25
 483:.\Generated_Source\PSoC4/CapSense_CSHL.c ****     {
 484:.\Generated_Source\PSoC4/CapSense_CSHL.c ****         #if (CapSense_SIGNAL_SIZE == CapSense_SIGNAL_SIZE_UINT8)
 485:.\Generated_Source\PSoC4/CapSense_CSHL.c ****             /* Over flow defence for uint8 */
 486:.\Generated_Source\PSoC4/CapSense_CSHL.c ****             if (tempRaw > 0xFFu)
 487:.\Generated_Source\PSoC4/CapSense_CSHL.c ****             {
 488:.\Generated_Source\PSoC4/CapSense_CSHL.c ****                 CapSense_sensorSignal[sensor] = 0xFFu;
 489:.\Generated_Source\PSoC4/CapSense_CSHL.c ****             }    
 490:.\Generated_Source\PSoC4/CapSense_CSHL.c ****             else 
 491:.\Generated_Source\PSoC4/CapSense_CSHL.c ****             {
 492:.\Generated_Source\PSoC4/CapSense_CSHL.c ****                 CapSense_sensorSignal[sensor] = ((uint8) tempRaw);
 493:.\Generated_Source\PSoC4/CapSense_CSHL.c ****             }
 494:.\Generated_Source\PSoC4/CapSense_CSHL.c ****         #else
 495:.\Generated_Source\PSoC4/CapSense_CSHL.c ****             CapSense_sensorSignal[sensor] = ((uint16) tempRaw);
 330              		.loc 1 495 0 is_stmt 1
 331 0090 6400     		lsl	r4, r4, #1
 332              	.LVL38:
 333 0092 074B     		ldr	r3, .L27+4
 334 0094 1C19     		add	r4, r3, r4
 335 0096 A582     		strh	r5, [r4, #20]
 336 0098 04E0     		b	.L18
 337              	.LVL39:
 338              	.L25:
 496:.\Generated_Source\PSoC4/CapSense_CSHL.c ****         #endif  /* (CapSense_SIGNAL_SIZE == CapSense_SIGNAL_SIZE_UINT8) */
 497:.\Generated_Source\PSoC4/CapSense_CSHL.c ****     }
 498:.\Generated_Source\PSoC4/CapSense_CSHL.c ****     else
 499:.\Generated_Source\PSoC4/CapSense_CSHL.c ****     {
 500:.\Generated_Source\PSoC4/CapSense_CSHL.c ****         /* Signal is zero */
 501:.\Generated_Source\PSoC4/CapSense_CSHL.c ****         CapSense_sensorSignal[sensor] = 0u;
 339              		.loc 1 501 0
 340 009a 6400     		lsl	r4, r4, #1
 341              	.LVL40:
 342 009c 044B     		ldr	r3, .L27+4
 343 009e 1C19     		add	r4, r3, r4
 344 00a0 0023     		mov	r3, #0
 345 00a2 A382     		strh	r3, [r4, #20]
 346              	.L18:
 502:.\Generated_Source\PSoC4/CapSense_CSHL.c ****     }
 503:.\Generated_Source\PSoC4/CapSense_CSHL.c **** 
 504:.\Generated_Source\PSoC4/CapSense_CSHL.c ****     #if (CapSense_TOTAL_GENERICS_COUNT)
 505:.\Generated_Source\PSoC4/CapSense_CSHL.c ****         /* Exclude generic widget */
ARM GAS  C:\Users\ALEXAN~1\AppData\Local\Temp\cc9HWPtE.s 			page 16


 506:.\Generated_Source\PSoC4/CapSense_CSHL.c ****         }
 507:.\Generated_Source\PSoC4/CapSense_CSHL.c ****     #endif  /* CapSense_TOTAL_GENERICS_COUNT */
 508:.\Generated_Source\PSoC4/CapSense_CSHL.c **** }
 347              		.loc 1 508 0
 348              		@ sp needed
 349              	.LVL41:
 350              	.LVL42:
 351 00a4 0CBC     		pop	{r2, r3}
 352 00a6 9046     		mov	r8, r2
 353 00a8 9946     		mov	r9, r3
 354 00aa F8BD     		pop	{r3, r4, r5, r6, r7, pc}
 355              	.L28:
 356              		.align	2
 357              	.L27:
 358 00ac 00000000 		.word	CapSense_sensorRaw
 359 00b0 00000000 		.word	.LANCHOR0
 360 00b4 00000000 		.word	CapSense_lowBaselineResetCnt
 361 00b8 00000000 		.word	.LANCHOR1
 362              		.cfi_endproc
 363              	.LFE39:
 364              		.size	CapSense_UpdateBaselineNoThreshold, .-CapSense_UpdateBaselineNoThreshold
 365              		.section	.text.CapSense_UpdateSensorBaseline,"ax",%progbits
 366              		.align	2
 367              		.global	CapSense_UpdateSensorBaseline
 368              		.code	16
 369              		.thumb_func
 370              		.type	CapSense_UpdateSensorBaseline, %function
 371              	CapSense_UpdateSensorBaseline:
 372              	.LFB40:
 509:.\Generated_Source\PSoC4/CapSense_CSHL.c **** 
 510:.\Generated_Source\PSoC4/CapSense_CSHL.c **** 
 511:.\Generated_Source\PSoC4/CapSense_CSHL.c **** /*******************************************************************************
 512:.\Generated_Source\PSoC4/CapSense_CSHL.c **** * Function Name: CapSense_UpdateSensorBaseline
 513:.\Generated_Source\PSoC4/CapSense_CSHL.c **** ********************************************************************************
 514:.\Generated_Source\PSoC4/CapSense_CSHL.c **** *
 515:.\Generated_Source\PSoC4/CapSense_CSHL.c **** * Summary:
 516:.\Generated_Source\PSoC4/CapSense_CSHL.c **** *  Updates the CapSense_sensorBaseline[sensor] array element using the 
 517:.\Generated_Source\PSoC4/CapSense_CSHL.c **** *  LP filter with k = 256. The signal calculates the difference of count by 
 518:.\Generated_Source\PSoC4/CapSense_CSHL.c **** *  subtracting the previous baseline from the current raw count value and stores
 519:.\Generated_Source\PSoC4/CapSense_CSHL.c **** *  it in CapSense_sensorSignal[sensor]. 
 520:.\Generated_Source\PSoC4/CapSense_CSHL.c **** *  If the auto reset option is enabled, the baseline updated regards the noise threshold. 
 521:.\Generated_Source\PSoC4/CapSense_CSHL.c **** *  If the auto reset option is disabled, the baseline stops updating. 
 522:.\Generated_Source\PSoC4/CapSense_CSHL.c **** *  Baseline is loaded with raw count value if a signal is greater than zero and  
 523:.\Generated_Source\PSoC4/CapSense_CSHL.c **** *  if signal is less than noise threshold.
 524:.\Generated_Source\PSoC4/CapSense_CSHL.c **** *  Raw data filters are applied to the values if enabled before baseline 
 525:.\Generated_Source\PSoC4/CapSense_CSHL.c **** *  calculation.
 526:.\Generated_Source\PSoC4/CapSense_CSHL.c **** *  This API updates the thresholds in the Smartsense Mode.
 527:.\Generated_Source\PSoC4/CapSense_CSHL.c **** *
 528:.\Generated_Source\PSoC4/CapSense_CSHL.c **** * Parameters:
 529:.\Generated_Source\PSoC4/CapSense_CSHL.c **** *  sensor:  Sensor number.
 530:.\Generated_Source\PSoC4/CapSense_CSHL.c **** *
 531:.\Generated_Source\PSoC4/CapSense_CSHL.c **** * Return:
 532:.\Generated_Source\PSoC4/CapSense_CSHL.c **** *  None
 533:.\Generated_Source\PSoC4/CapSense_CSHL.c **** *
 534:.\Generated_Source\PSoC4/CapSense_CSHL.c **** * Global Variables:
 535:.\Generated_Source\PSoC4/CapSense_CSHL.c **** *  CapSense_widgetNumber[]  - stores widget numbers.
 536:.\Generated_Source\PSoC4/CapSense_CSHL.c **** * 
ARM GAS  C:\Users\ALEXAN~1\AppData\Local\Temp\cc9HWPtE.s 			page 17


 537:.\Generated_Source\PSoC4/CapSense_CSHL.c **** * Side Effects:
 538:.\Generated_Source\PSoC4/CapSense_CSHL.c **** *  None
 539:.\Generated_Source\PSoC4/CapSense_CSHL.c **** * 
 540:.\Generated_Source\PSoC4/CapSense_CSHL.c **** *******************************************************************************/
 541:.\Generated_Source\PSoC4/CapSense_CSHL.c ****  void CapSense_UpdateSensorBaseline(uint32 sensor)
 542:.\Generated_Source\PSoC4/CapSense_CSHL.c **** {
 373              		.loc 1 542 0
 374              		.cfi_startproc
 375              	.LVL43:
 376 0000 08B5     		push	{r3, lr}
 377              		.cfi_def_cfa_offset 8
 378              		.cfi_offset 3, -8
 379              		.cfi_offset 14, -4
 543:.\Generated_Source\PSoC4/CapSense_CSHL.c ****     #if (CapSense_TOTAL_GENERICS_COUNT)
 544:.\Generated_Source\PSoC4/CapSense_CSHL.c **** 		uint32 widget;
 545:.\Generated_Source\PSoC4/CapSense_CSHL.c **** 		
 546:.\Generated_Source\PSoC4/CapSense_CSHL.c **** 		widget = CapSense_widgetNumber[sensor];
 547:.\Generated_Source\PSoC4/CapSense_CSHL.c **** 	
 548:.\Generated_Source\PSoC4/CapSense_CSHL.c ****         /* Exclude generic widget */
 549:.\Generated_Source\PSoC4/CapSense_CSHL.c ****         if(widget < CapSense_END_OF_WIDGETS_INDEX)
 550:.\Generated_Source\PSoC4/CapSense_CSHL.c ****         {
 551:.\Generated_Source\PSoC4/CapSense_CSHL.c ****     #endif  /* CapSense_TOTAL_GENERICS_COUNT */
 552:.\Generated_Source\PSoC4/CapSense_CSHL.c **** 
 553:.\Generated_Source\PSoC4/CapSense_CSHL.c ****     #if (CapSense_TUNING_METHOD == CapSense__TUNING_AUTO)
 554:.\Generated_Source\PSoC4/CapSense_CSHL.c ****     	CapSense_UpdateThresholds(sensor);
 555:.\Generated_Source\PSoC4/CapSense_CSHL.c ****     #endif /* (CapSense_TUNING_METHOD == CapSense__TUNING_AUTO) */
 556:.\Generated_Source\PSoC4/CapSense_CSHL.c **** 
 557:.\Generated_Source\PSoC4/CapSense_CSHL.c ****     CapSense_UpdateBaselineNoThreshold(sensor);
 380              		.loc 1 557 0
 381 0002 FFF7FEFF 		bl	CapSense_UpdateBaselineNoThreshold
 382              	.LVL44:
 558:.\Generated_Source\PSoC4/CapSense_CSHL.c ****     
 559:.\Generated_Source\PSoC4/CapSense_CSHL.c ****     #if (CapSense_TOTAL_GENERICS_COUNT)
 560:.\Generated_Source\PSoC4/CapSense_CSHL.c ****         /* Exclude generic widget */
 561:.\Generated_Source\PSoC4/CapSense_CSHL.c ****         }
 562:.\Generated_Source\PSoC4/CapSense_CSHL.c ****     #endif  /* CapSense_TOTAL_GENERICS_COUNT */
 563:.\Generated_Source\PSoC4/CapSense_CSHL.c **** }
 383              		.loc 1 563 0
 384              		@ sp needed
 385 0006 08BD     		pop	{r3, pc}
 386              		.cfi_endproc
 387              	.LFE40:
 388              		.size	CapSense_UpdateSensorBaseline, .-CapSense_UpdateSensorBaseline
 389              		.section	.text.CapSense_UpdateEnabledBaselines,"ax",%progbits
 390              		.align	2
 391              		.global	CapSense_UpdateEnabledBaselines
 392              		.code	16
 393              		.thumb_func
 394              		.type	CapSense_UpdateEnabledBaselines, %function
 395              	CapSense_UpdateEnabledBaselines:
 396              	.LFB41:
 564:.\Generated_Source\PSoC4/CapSense_CSHL.c **** 
 565:.\Generated_Source\PSoC4/CapSense_CSHL.c **** 
 566:.\Generated_Source\PSoC4/CapSense_CSHL.c **** /*******************************************************************************
 567:.\Generated_Source\PSoC4/CapSense_CSHL.c **** * Function Name: CapSense_UpdateEnabledBaselines
 568:.\Generated_Source\PSoC4/CapSense_CSHL.c **** ********************************************************************************
 569:.\Generated_Source\PSoC4/CapSense_CSHL.c **** *
ARM GAS  C:\Users\ALEXAN~1\AppData\Local\Temp\cc9HWPtE.s 			page 18


 570:.\Generated_Source\PSoC4/CapSense_CSHL.c **** * Summary:
 571:.\Generated_Source\PSoC4/CapSense_CSHL.c **** *  Checks CapSense_sensorEnableMask[] array and calls the 
 572:.\Generated_Source\PSoC4/CapSense_CSHL.c **** *  CapSense_UpdateSensorBaseline function to update the baselines 
 573:.\Generated_Source\PSoC4/CapSense_CSHL.c **** *  for the enabled sensors.
 574:.\Generated_Source\PSoC4/CapSense_CSHL.c **** *
 575:.\Generated_Source\PSoC4/CapSense_CSHL.c **** * Parameters:
 576:.\Generated_Source\PSoC4/CapSense_CSHL.c **** *  None
 577:.\Generated_Source\PSoC4/CapSense_CSHL.c **** *
 578:.\Generated_Source\PSoC4/CapSense_CSHL.c **** * Return:
 579:.\Generated_Source\PSoC4/CapSense_CSHL.c **** *  None
 580:.\Generated_Source\PSoC4/CapSense_CSHL.c **** *
 581:.\Generated_Source\PSoC4/CapSense_CSHL.c **** * Global Variables:
 582:.\Generated_Source\PSoC4/CapSense_CSHL.c **** *  CapSense_sensorEnableMask[] - used to store the sensor scanning 
 583:.\Generated_Source\PSoC4/CapSense_CSHL.c **** *  state.
 584:.\Generated_Source\PSoC4/CapSense_CSHL.c **** *  CapSense_sensorEnableMask[0] contains the masked bits for sensors 
 585:.\Generated_Source\PSoC4/CapSense_CSHL.c **** *   0 through 7 (sensor 0 is bit 0, sensor 1 is bit 1).
 586:.\Generated_Source\PSoC4/CapSense_CSHL.c **** *  CapSense_sensorEnableMask[1] contains the masked bits for 
 587:.\Generated_Source\PSoC4/CapSense_CSHL.c **** *  sensors 8 through 15 (if needed), and so on.
 588:.\Generated_Source\PSoC4/CapSense_CSHL.c **** *  0 - sensor doesn't scan by CapSense_ScanEnabledWidgets().
 589:.\Generated_Source\PSoC4/CapSense_CSHL.c **** *  1 - sensor scans by CapSense_ScanEnabledWidgets().
 590:.\Generated_Source\PSoC4/CapSense_CSHL.c **** * 
 591:.\Generated_Source\PSoC4/CapSense_CSHL.c **** * Side Effects:
 592:.\Generated_Source\PSoC4/CapSense_CSHL.c **** *  None
 593:.\Generated_Source\PSoC4/CapSense_CSHL.c **** * 
 594:.\Generated_Source\PSoC4/CapSense_CSHL.c **** *******************************************************************************/
 595:.\Generated_Source\PSoC4/CapSense_CSHL.c ****  void CapSense_UpdateEnabledBaselines(void)
 596:.\Generated_Source\PSoC4/CapSense_CSHL.c **** {
 397              		.loc 1 596 0
 398              		.cfi_startproc
 399 0000 38B5     		push	{r3, r4, r5, lr}
 400              		.cfi_def_cfa_offset 16
 401              		.cfi_offset 3, -16
 402              		.cfi_offset 4, -12
 403              		.cfi_offset 5, -8
 404              		.cfi_offset 14, -4
 405              	.LVL45:
 597:.\Generated_Source\PSoC4/CapSense_CSHL.c ****     uint32 i;
 598:.\Generated_Source\PSoC4/CapSense_CSHL.c ****     uint32 isSensorEnabled;
 599:.\Generated_Source\PSoC4/CapSense_CSHL.c ****     
 600:.\Generated_Source\PSoC4/CapSense_CSHL.c ****     for(i = 0u; i < CapSense_TOTAL_SENSOR_COUNT; i++)
 406              		.loc 1 600 0
 407 0002 0024     		mov	r4, #0
 601:.\Generated_Source\PSoC4/CapSense_CSHL.c ****     {
 602:.\Generated_Source\PSoC4/CapSense_CSHL.c ****         isSensorEnabled = CapSense_GetBitValue(CapSense_sensorEnableMask, i);
 408              		.loc 1 602 0
 409 0004 074D     		ldr	r5, .L34
 600:.\Generated_Source\PSoC4/CapSense_CSHL.c ****     for(i = 0u; i < CapSense_TOTAL_SENSOR_COUNT; i++)
 410              		.loc 1 600 0
 411 0006 09E0     		b	.L31
 412              	.LVL46:
 413              	.L33:
 414              		.loc 1 602 0
 415 0008 281C     		mov	r0, r5
 416 000a 211C     		mov	r1, r4
 417 000c FFF7FEFF 		bl	CapSense_GetBitValue
 418              	.LVL47:
 603:.\Generated_Source\PSoC4/CapSense_CSHL.c ****         
ARM GAS  C:\Users\ALEXAN~1\AppData\Local\Temp\cc9HWPtE.s 			page 19


 604:.\Generated_Source\PSoC4/CapSense_CSHL.c ****         if(0u != isSensorEnabled)
 419              		.loc 1 604 0
 420 0010 0028     		cmp	r0, #0
 421 0012 02D0     		beq	.L32
 605:.\Generated_Source\PSoC4/CapSense_CSHL.c ****         {
 606:.\Generated_Source\PSoC4/CapSense_CSHL.c ****             CapSense_UpdateSensorBaseline(i);
 422              		.loc 1 606 0
 423 0014 201C     		mov	r0, r4
 424              	.LVL48:
 425 0016 FFF7FEFF 		bl	CapSense_UpdateSensorBaseline
 426              	.LVL49:
 427              	.L32:
 600:.\Generated_Source\PSoC4/CapSense_CSHL.c ****     for(i = 0u; i < CapSense_TOTAL_SENSOR_COUNT; i++)
 428              		.loc 1 600 0
 429 001a 0134     		add	r4, r4, #1
 430              	.LVL50:
 431              	.L31:
 600:.\Generated_Source\PSoC4/CapSense_CSHL.c ****     for(i = 0u; i < CapSense_TOTAL_SENSOR_COUNT; i++)
 432              		.loc 1 600 0 is_stmt 0 discriminator 1
 433 001c 042C     		cmp	r4, #4
 434 001e F3D9     		bls	.L33
 607:.\Generated_Source\PSoC4/CapSense_CSHL.c ****         }
 608:.\Generated_Source\PSoC4/CapSense_CSHL.c ****     }
 609:.\Generated_Source\PSoC4/CapSense_CSHL.c **** }
 435              		.loc 1 609 0 is_stmt 1
 436              		@ sp needed
 437              	.LVL51:
 438 0020 38BD     		pop	{r3, r4, r5, pc}
 439              	.L35:
 440 0022 C046     		.align	2
 441              	.L34:
 442 0024 00000000 		.word	CapSense_sensorEnableMask
 443              		.cfi_endproc
 444              	.LFE41:
 445              		.size	CapSense_UpdateEnabledBaselines, .-CapSense_UpdateEnabledBaselines
 446              		.section	.text.CapSense_UpdateWidgetBaseline,"ax",%progbits
 447              		.align	2
 448              		.global	CapSense_UpdateWidgetBaseline
 449              		.code	16
 450              		.thumb_func
 451              		.type	CapSense_UpdateWidgetBaseline, %function
 452              	CapSense_UpdateWidgetBaseline:
 453              	.LFB42:
 610:.\Generated_Source\PSoC4/CapSense_CSHL.c **** 
 611:.\Generated_Source\PSoC4/CapSense_CSHL.c **** /*******************************************************************************
 612:.\Generated_Source\PSoC4/CapSense_CSHL.c **** * Function Name: CapSense_UpdateWidgetBaseline
 613:.\Generated_Source\PSoC4/CapSense_CSHL.c **** ********************************************************************************
 614:.\Generated_Source\PSoC4/CapSense_CSHL.c **** *
 615:.\Generated_Source\PSoC4/CapSense_CSHL.c **** * Summary:
 616:.\Generated_Source\PSoC4/CapSense_CSHL.c **** *  Checks CapSense_sensorEnableMask[] array and calls the 
 617:.\Generated_Source\PSoC4/CapSense_CSHL.c **** *  CapSense_UpdateSensorBaseline function to update the baselines 
 618:.\Generated_Source\PSoC4/CapSense_CSHL.c **** *  for the enabled sensors that belong to widget.
 619:.\Generated_Source\PSoC4/CapSense_CSHL.c **** *
 620:.\Generated_Source\PSoC4/CapSense_CSHL.c **** * Parameters:
 621:.\Generated_Source\PSoC4/CapSense_CSHL.c **** *  widget:  Widget number.
 622:.\Generated_Source\PSoC4/CapSense_CSHL.c **** *
 623:.\Generated_Source\PSoC4/CapSense_CSHL.c **** * Return:
ARM GAS  C:\Users\ALEXAN~1\AppData\Local\Temp\cc9HWPtE.s 			page 20


 624:.\Generated_Source\PSoC4/CapSense_CSHL.c **** *  None
 625:.\Generated_Source\PSoC4/CapSense_CSHL.c **** *
 626:.\Generated_Source\PSoC4/CapSense_CSHL.c **** * Global Variables:
 627:.\Generated_Source\PSoC4/CapSense_CSHL.c **** *  CapSense_sensorEnableMask[] - used to store the sensor scanning 
 628:.\Generated_Source\PSoC4/CapSense_CSHL.c **** *  state.
 629:.\Generated_Source\PSoC4/CapSense_CSHL.c **** *  CapSense_sensorEnableMask[0] contains the masked bits for sensors 
 630:.\Generated_Source\PSoC4/CapSense_CSHL.c **** *   0 through 7 (sensor 0 is bit 0, sensor 1 is bit 1).
 631:.\Generated_Source\PSoC4/CapSense_CSHL.c **** *  CapSense_sensorEnableMask[1] contains the masked bits for 
 632:.\Generated_Source\PSoC4/CapSense_CSHL.c **** *  sensors 8 through 15 (if needed), and so on.
 633:.\Generated_Source\PSoC4/CapSense_CSHL.c **** *  0 - sensor doesn't scan by CapSense_ScanEnabledWidgets().
 634:.\Generated_Source\PSoC4/CapSense_CSHL.c **** *  1 - sensor scans by CapSense_ScanEnabledWidgets().
 635:.\Generated_Source\PSoC4/CapSense_CSHL.c **** * 
 636:.\Generated_Source\PSoC4/CapSense_CSHL.c **** * Side Effects:
 637:.\Generated_Source\PSoC4/CapSense_CSHL.c **** *  None
 638:.\Generated_Source\PSoC4/CapSense_CSHL.c **** * 
 639:.\Generated_Source\PSoC4/CapSense_CSHL.c **** *******************************************************************************/
 640:.\Generated_Source\PSoC4/CapSense_CSHL.c **** void CapSense_UpdateWidgetBaseline(uint32 widget)
 641:.\Generated_Source\PSoC4/CapSense_CSHL.c **** {
 454              		.loc 1 641 0
 455              		.cfi_startproc
 456              	.LVL52:
 457 0000 38B5     		push	{r3, r4, r5, lr}
 458              		.cfi_def_cfa_offset 16
 459              		.cfi_offset 3, -16
 460              		.cfi_offset 4, -12
 461              		.cfi_offset 5, -8
 462              		.cfi_offset 14, -4
 463              	.LVL53:
 642:.\Generated_Source\PSoC4/CapSense_CSHL.c ****     uint32 sensorsPerWidget;
 643:.\Generated_Source\PSoC4/CapSense_CSHL.c ****     uint32 firstSensor;
 644:.\Generated_Source\PSoC4/CapSense_CSHL.c ****     uint32 lastSensor;
 645:.\Generated_Source\PSoC4/CapSense_CSHL.c ****     uint32 i;
 646:.\Generated_Source\PSoC4/CapSense_CSHL.c ****     uint32 isSensorEnabled;
 647:.\Generated_Source\PSoC4/CapSense_CSHL.c ****     
 648:.\Generated_Source\PSoC4/CapSense_CSHL.c **** 	/* Get number of sensors in widget */
 649:.\Generated_Source\PSoC4/CapSense_CSHL.c **** 	sensorsPerWidget = CapSense_numberOfSensors[widget];
 650:.\Generated_Source\PSoC4/CapSense_CSHL.c **** 
 651:.\Generated_Source\PSoC4/CapSense_CSHL.c **** 	/* Get first sensor in widget */
 652:.\Generated_Source\PSoC4/CapSense_CSHL.c **** 	firstSensor = CapSense_rawDataIndex[widget];
 653:.\Generated_Source\PSoC4/CapSense_CSHL.c **** 	
 654:.\Generated_Source\PSoC4/CapSense_CSHL.c **** 	/* Get last sensor in widget */
 655:.\Generated_Source\PSoC4/CapSense_CSHL.c **** 	lastSensor = (CapSense_rawDataIndex[widget] + sensorsPerWidget);
 656:.\Generated_Source\PSoC4/CapSense_CSHL.c **** 	
 657:.\Generated_Source\PSoC4/CapSense_CSHL.c ****     for(i = firstSensor; i < lastSensor; i++)
 464              		.loc 1 657 0
 465 0002 0024     		mov	r4, #0
 658:.\Generated_Source\PSoC4/CapSense_CSHL.c ****     {
 659:.\Generated_Source\PSoC4/CapSense_CSHL.c ****         isSensorEnabled = CapSense_GetBitValue(CapSense_sensorEnableMask, i);
 466              		.loc 1 659 0
 467 0004 074D     		ldr	r5, .L40
 657:.\Generated_Source\PSoC4/CapSense_CSHL.c ****     for(i = firstSensor; i < lastSensor; i++)
 468              		.loc 1 657 0
 469 0006 09E0     		b	.L37
 470              	.LVL54:
 471              	.L39:
 472              		.loc 1 659 0
 473 0008 281C     		mov	r0, r5
ARM GAS  C:\Users\ALEXAN~1\AppData\Local\Temp\cc9HWPtE.s 			page 21


 474 000a 211C     		mov	r1, r4
 475 000c FFF7FEFF 		bl	CapSense_GetBitValue
 476              	.LVL55:
 660:.\Generated_Source\PSoC4/CapSense_CSHL.c ****         
 661:.\Generated_Source\PSoC4/CapSense_CSHL.c ****         if(0u != isSensorEnabled)
 477              		.loc 1 661 0
 478 0010 0028     		cmp	r0, #0
 479 0012 02D0     		beq	.L38
 662:.\Generated_Source\PSoC4/CapSense_CSHL.c ****         {
 663:.\Generated_Source\PSoC4/CapSense_CSHL.c ****             CapSense_UpdateSensorBaseline(i);
 480              		.loc 1 663 0
 481 0014 201C     		mov	r0, r4
 482              	.LVL56:
 483 0016 FFF7FEFF 		bl	CapSense_UpdateSensorBaseline
 484              	.LVL57:
 485              	.L38:
 657:.\Generated_Source\PSoC4/CapSense_CSHL.c ****     for(i = firstSensor; i < lastSensor; i++)
 486              		.loc 1 657 0
 487 001a 0134     		add	r4, r4, #1
 488              	.LVL58:
 489              	.L37:
 657:.\Generated_Source\PSoC4/CapSense_CSHL.c ****     for(i = firstSensor; i < lastSensor; i++)
 490              		.loc 1 657 0 is_stmt 0 discriminator 1
 491 001c 042C     		cmp	r4, #4
 492 001e F3D9     		bls	.L39
 664:.\Generated_Source\PSoC4/CapSense_CSHL.c ****         }
 665:.\Generated_Source\PSoC4/CapSense_CSHL.c ****     }
 666:.\Generated_Source\PSoC4/CapSense_CSHL.c **** }
 493              		.loc 1 666 0 is_stmt 1
 494              		@ sp needed
 495              	.LVL59:
 496 0020 38BD     		pop	{r3, r4, r5, pc}
 497              	.L41:
 498 0022 C046     		.align	2
 499              	.L40:
 500 0024 00000000 		.word	CapSense_sensorEnableMask
 501              		.cfi_endproc
 502              	.LFE42:
 503              		.size	CapSense_UpdateWidgetBaseline, .-CapSense_UpdateWidgetBaseline
 504              		.section	.text.CapSense_GetBaselineData,"ax",%progbits
 505              		.align	2
 506              		.global	CapSense_GetBaselineData
 507              		.code	16
 508              		.thumb_func
 509              		.type	CapSense_GetBaselineData, %function
 510              	CapSense_GetBaselineData:
 511              	.LFB43:
 667:.\Generated_Source\PSoC4/CapSense_CSHL.c **** 
 668:.\Generated_Source\PSoC4/CapSense_CSHL.c **** 
 669:.\Generated_Source\PSoC4/CapSense_CSHL.c **** /*******************************************************************************
 670:.\Generated_Source\PSoC4/CapSense_CSHL.c **** * Function Name: CapSense_GetBaselineData
 671:.\Generated_Source\PSoC4/CapSense_CSHL.c **** ********************************************************************************
 672:.\Generated_Source\PSoC4/CapSense_CSHL.c **** *
 673:.\Generated_Source\PSoC4/CapSense_CSHL.c **** * Summary:
 674:.\Generated_Source\PSoC4/CapSense_CSHL.c **** *  This function reads the sensor baseline from the component.
 675:.\Generated_Source\PSoC4/CapSense_CSHL.c **** *
 676:.\Generated_Source\PSoC4/CapSense_CSHL.c **** * Parameters:
ARM GAS  C:\Users\ALEXAN~1\AppData\Local\Temp\cc9HWPtE.s 			page 22


 677:.\Generated_Source\PSoC4/CapSense_CSHL.c **** *  sensor:  Sensor number.
 678:.\Generated_Source\PSoC4/CapSense_CSHL.c **** *
 679:.\Generated_Source\PSoC4/CapSense_CSHL.c **** * Return:
 680:.\Generated_Source\PSoC4/CapSense_CSHL.c **** *  This API returns the baseline value of the sensor indicated by an argument.
 681:.\Generated_Source\PSoC4/CapSense_CSHL.c **** *
 682:.\Generated_Source\PSoC4/CapSense_CSHL.c **** * Global Variables:
 683:.\Generated_Source\PSoC4/CapSense_CSHL.c **** *  CapSense_sensorBaseline[] - the array with an initial values by scanning
 684:.\Generated_Source\PSoC4/CapSense_CSHL.c **** * 
 685:.\Generated_Source\PSoC4/CapSense_CSHL.c **** * Side Effects:
 686:.\Generated_Source\PSoC4/CapSense_CSHL.c **** *  None
 687:.\Generated_Source\PSoC4/CapSense_CSHL.c **** *
 688:.\Generated_Source\PSoC4/CapSense_CSHL.c **** *******************************************************************************/
 689:.\Generated_Source\PSoC4/CapSense_CSHL.c **** uint16 CapSense_GetBaselineData(uint32 sensor)
 690:.\Generated_Source\PSoC4/CapSense_CSHL.c **** {
 512              		.loc 1 690 0
 513              		.cfi_startproc
 514              	.LVL60:
 691:.\Generated_Source\PSoC4/CapSense_CSHL.c **** 	return (CapSense_sensorBaseline[sensor]);
 515              		.loc 1 691 0
 516 0000 4000     		lsl	r0, r0, #1
 517              	.LVL61:
 518 0002 014B     		ldr	r3, .L43
 519 0004 185A     		ldrh	r0, [r3, r0]
 692:.\Generated_Source\PSoC4/CapSense_CSHL.c **** }
 520              		.loc 1 692 0
 521              		@ sp needed
 522 0006 7047     		bx	lr
 523              	.L44:
 524              		.align	2
 525              	.L43:
 526 0008 00000000 		.word	.LANCHOR0
 527              		.cfi_endproc
 528              	.LFE43:
 529              		.size	CapSense_GetBaselineData, .-CapSense_GetBaselineData
 530              		.section	.text.CapSense_SetBaselineData,"ax",%progbits
 531              		.align	2
 532              		.global	CapSense_SetBaselineData
 533              		.code	16
 534              		.thumb_func
 535              		.type	CapSense_SetBaselineData, %function
 536              	CapSense_SetBaselineData:
 537              	.LFB44:
 693:.\Generated_Source\PSoC4/CapSense_CSHL.c **** 
 694:.\Generated_Source\PSoC4/CapSense_CSHL.c **** 
 695:.\Generated_Source\PSoC4/CapSense_CSHL.c **** /*******************************************************************************
 696:.\Generated_Source\PSoC4/CapSense_CSHL.c **** * Function Name: CapSense_SetBaselineData
 697:.\Generated_Source\PSoC4/CapSense_CSHL.c **** ********************************************************************************
 698:.\Generated_Source\PSoC4/CapSense_CSHL.c **** *
 699:.\Generated_Source\PSoC4/CapSense_CSHL.c **** * Summary:
 700:.\Generated_Source\PSoC4/CapSense_CSHL.c **** *  This API writes the data value passed as an argument to the sensor baseline array.
 701:.\Generated_Source\PSoC4/CapSense_CSHL.c **** *
 702:.\Generated_Source\PSoC4/CapSense_CSHL.c **** * Parameters:
 703:.\Generated_Source\PSoC4/CapSense_CSHL.c **** *  sensor:  Sensor number.
 704:.\Generated_Source\PSoC4/CapSense_CSHL.c **** *  data:    Sensor baseline.
 705:.\Generated_Source\PSoC4/CapSense_CSHL.c **** *
 706:.\Generated_Source\PSoC4/CapSense_CSHL.c **** * Return:
 707:.\Generated_Source\PSoC4/CapSense_CSHL.c **** *  None.
ARM GAS  C:\Users\ALEXAN~1\AppData\Local\Temp\cc9HWPtE.s 			page 23


 708:.\Generated_Source\PSoC4/CapSense_CSHL.c **** *
 709:.\Generated_Source\PSoC4/CapSense_CSHL.c **** * Global Variables:
 710:.\Generated_Source\PSoC4/CapSense_CSHL.c **** *  CapSense_sensorBaseline[] - the array with initial values by scanning
 711:.\Generated_Source\PSoC4/CapSense_CSHL.c **** * 
 712:.\Generated_Source\PSoC4/CapSense_CSHL.c **** * Side Effects:
 713:.\Generated_Source\PSoC4/CapSense_CSHL.c **** *  None
 714:.\Generated_Source\PSoC4/CapSense_CSHL.c **** *
 715:.\Generated_Source\PSoC4/CapSense_CSHL.c **** *******************************************************************************/
 716:.\Generated_Source\PSoC4/CapSense_CSHL.c **** void CapSense_SetBaselineData(uint32 sensor, uint16 data)
 717:.\Generated_Source\PSoC4/CapSense_CSHL.c **** {
 538              		.loc 1 717 0
 539              		.cfi_startproc
 540              	.LVL62:
 718:.\Generated_Source\PSoC4/CapSense_CSHL.c **** 	CapSense_sensorBaseline[sensor] = data;
 541              		.loc 1 718 0
 542 0000 4000     		lsl	r0, r0, #1
 543              	.LVL63:
 544 0002 014B     		ldr	r3, .L46
 545 0004 C152     		strh	r1, [r0, r3]
 719:.\Generated_Source\PSoC4/CapSense_CSHL.c **** }
 546              		.loc 1 719 0
 547              		@ sp needed
 548 0006 7047     		bx	lr
 549              	.L47:
 550              		.align	2
 551              	.L46:
 552 0008 00000000 		.word	.LANCHOR0
 553              		.cfi_endproc
 554              	.LFE44:
 555              		.size	CapSense_SetBaselineData, .-CapSense_SetBaselineData
 556              		.section	.text.CapSense_GetDiffCountData,"ax",%progbits
 557              		.align	2
 558              		.global	CapSense_GetDiffCountData
 559              		.code	16
 560              		.thumb_func
 561              		.type	CapSense_GetDiffCountData, %function
 562              	CapSense_GetDiffCountData:
 563              	.LFB45:
 720:.\Generated_Source\PSoC4/CapSense_CSHL.c **** 
 721:.\Generated_Source\PSoC4/CapSense_CSHL.c **** 
 722:.\Generated_Source\PSoC4/CapSense_CSHL.c **** /*******************************************************************************
 723:.\Generated_Source\PSoC4/CapSense_CSHL.c **** * Function Name: CapSense_GetDiffCountData
 724:.\Generated_Source\PSoC4/CapSense_CSHL.c **** ********************************************************************************
 725:.\Generated_Source\PSoC4/CapSense_CSHL.c **** *
 726:.\Generated_Source\PSoC4/CapSense_CSHL.c **** * Summary:
 727:.\Generated_Source\PSoC4/CapSense_CSHL.c **** *  This function returns the Sensor Signal from the component.
 728:.\Generated_Source\PSoC4/CapSense_CSHL.c **** *
 729:.\Generated_Source\PSoC4/CapSense_CSHL.c **** * Parameters:
 730:.\Generated_Source\PSoC4/CapSense_CSHL.c **** *  sensor:  Sensor number.
 731:.\Generated_Source\PSoC4/CapSense_CSHL.c **** *
 732:.\Generated_Source\PSoC4/CapSense_CSHL.c **** * Return:
 733:.\Generated_Source\PSoC4/CapSense_CSHL.c **** *  This API returns the difference count value of the sensor indicated by the 
 734:.\Generated_Source\PSoC4/CapSense_CSHL.c **** *  argument. 
 735:.\Generated_Source\PSoC4/CapSense_CSHL.c **** *
 736:.\Generated_Source\PSoC4/CapSense_CSHL.c **** * Global Variables:
 737:.\Generated_Source\PSoC4/CapSense_CSHL.c **** *  CapSense_sensorSignal[] - the array with difference counts for sensors
 738:.\Generated_Source\PSoC4/CapSense_CSHL.c **** * 
ARM GAS  C:\Users\ALEXAN~1\AppData\Local\Temp\cc9HWPtE.s 			page 24


 739:.\Generated_Source\PSoC4/CapSense_CSHL.c **** * Side Effects:
 740:.\Generated_Source\PSoC4/CapSense_CSHL.c **** *  None
 741:.\Generated_Source\PSoC4/CapSense_CSHL.c **** *
 742:.\Generated_Source\PSoC4/CapSense_CSHL.c **** *******************************************************************************/
 743:.\Generated_Source\PSoC4/CapSense_CSHL.c **** uint16 CapSense_GetDiffCountData(uint32 sensor)
 744:.\Generated_Source\PSoC4/CapSense_CSHL.c **** {
 564              		.loc 1 744 0
 565              		.cfi_startproc
 566              	.LVL64:
 745:.\Generated_Source\PSoC4/CapSense_CSHL.c **** 	return (CapSense_sensorSignal[sensor]);
 567              		.loc 1 745 0
 568 0000 4000     		lsl	r0, r0, #1
 569              	.LVL65:
 570 0002 024B     		ldr	r3, .L49
 571 0004 1818     		add	r0, r3, r0
 572 0006 808A     		ldrh	r0, [r0, #20]
 746:.\Generated_Source\PSoC4/CapSense_CSHL.c **** }
 573              		.loc 1 746 0
 574              		@ sp needed
 575 0008 7047     		bx	lr
 576              	.L50:
 577 000a C046     		.align	2
 578              	.L49:
 579 000c 00000000 		.word	.LANCHOR0
 580              		.cfi_endproc
 581              	.LFE45:
 582              		.size	CapSense_GetDiffCountData, .-CapSense_GetDiffCountData
 583              		.section	.text.CapSense_SetDiffCountData,"ax",%progbits
 584              		.align	2
 585              		.global	CapSense_SetDiffCountData
 586              		.code	16
 587              		.thumb_func
 588              		.type	CapSense_SetDiffCountData, %function
 589              	CapSense_SetDiffCountData:
 590              	.LFB46:
 747:.\Generated_Source\PSoC4/CapSense_CSHL.c **** 
 748:.\Generated_Source\PSoC4/CapSense_CSHL.c **** 
 749:.\Generated_Source\PSoC4/CapSense_CSHL.c **** /*******************************************************************************
 750:.\Generated_Source\PSoC4/CapSense_CSHL.c **** * Function Name: CapSense_SetDiffCountData
 751:.\Generated_Source\PSoC4/CapSense_CSHL.c **** ********************************************************************************
 752:.\Generated_Source\PSoC4/CapSense_CSHL.c **** *
 753:.\Generated_Source\PSoC4/CapSense_CSHL.c **** * Summary:
 754:.\Generated_Source\PSoC4/CapSense_CSHL.c **** *  This API writes the data value passed as an argument to the sensor signal array.
 755:.\Generated_Source\PSoC4/CapSense_CSHL.c **** *
 756:.\Generated_Source\PSoC4/CapSense_CSHL.c **** * Parameters:
 757:.\Generated_Source\PSoC4/CapSense_CSHL.c **** *  sensor:  Sensor number.
 758:.\Generated_Source\PSoC4/CapSense_CSHL.c **** *  value:   Sensor signal.
 759:.\Generated_Source\PSoC4/CapSense_CSHL.c **** *
 760:.\Generated_Source\PSoC4/CapSense_CSHL.c **** * Return:
 761:.\Generated_Source\PSoC4/CapSense_CSHL.c **** *  None. 
 762:.\Generated_Source\PSoC4/CapSense_CSHL.c **** *
 763:.\Generated_Source\PSoC4/CapSense_CSHL.c **** * Global Variables:
 764:.\Generated_Source\PSoC4/CapSense_CSHL.c **** *  CapSense_sensorSignal[] - the array with difference counts for sensors
 765:.\Generated_Source\PSoC4/CapSense_CSHL.c **** * 
 766:.\Generated_Source\PSoC4/CapSense_CSHL.c **** * Side Effects:
 767:.\Generated_Source\PSoC4/CapSense_CSHL.c **** *  None
 768:.\Generated_Source\PSoC4/CapSense_CSHL.c **** *
ARM GAS  C:\Users\ALEXAN~1\AppData\Local\Temp\cc9HWPtE.s 			page 25


 769:.\Generated_Source\PSoC4/CapSense_CSHL.c **** *******************************************************************************/
 770:.\Generated_Source\PSoC4/CapSense_CSHL.c **** void CapSense_SetDiffCountData(uint32 sensor, uint16 value)
 771:.\Generated_Source\PSoC4/CapSense_CSHL.c **** {
 591              		.loc 1 771 0
 592              		.cfi_startproc
 593              	.LVL66:
 772:.\Generated_Source\PSoC4/CapSense_CSHL.c ****     CapSense_sensorSignal[sensor] = value;
 594              		.loc 1 772 0
 595 0000 4000     		lsl	r0, r0, #1
 596              	.LVL67:
 597 0002 024B     		ldr	r3, .L52
 598 0004 1818     		add	r0, r3, r0
 599 0006 8182     		strh	r1, [r0, #20]
 773:.\Generated_Source\PSoC4/CapSense_CSHL.c **** }
 600              		.loc 1 773 0
 601              		@ sp needed
 602 0008 7047     		bx	lr
 603              	.L53:
 604 000a C046     		.align	2
 605              	.L52:
 606 000c 00000000 		.word	.LANCHOR0
 607              		.cfi_endproc
 608              	.LFE46:
 609              		.size	CapSense_SetDiffCountData, .-CapSense_SetDiffCountData
 610              		.section	.text.CapSense_GetFingerThreshold,"ax",%progbits
 611              		.align	2
 612              		.global	CapSense_GetFingerThreshold
 613              		.code	16
 614              		.thumb_func
 615              		.type	CapSense_GetFingerThreshold, %function
 616              	CapSense_GetFingerThreshold:
 617              	.LFB47:
 774:.\Generated_Source\PSoC4/CapSense_CSHL.c **** 
 775:.\Generated_Source\PSoC4/CapSense_CSHL.c **** 
 776:.\Generated_Source\PSoC4/CapSense_CSHL.c **** /*******************************************************************************
 777:.\Generated_Source\PSoC4/CapSense_CSHL.c **** * Function Name: CapSense_GetFingerThreshold
 778:.\Generated_Source\PSoC4/CapSense_CSHL.c **** ********************************************************************************
 779:.\Generated_Source\PSoC4/CapSense_CSHL.c **** *
 780:.\Generated_Source\PSoC4/CapSense_CSHL.c **** * Summary:
 781:.\Generated_Source\PSoC4/CapSense_CSHL.c **** *  This function reads the finger threshold from the component.
 782:.\Generated_Source\PSoC4/CapSense_CSHL.c **** *
 783:.\Generated_Source\PSoC4/CapSense_CSHL.c **** * Parameters:
 784:.\Generated_Source\PSoC4/CapSense_CSHL.c **** *  widget:  widget number.
 785:.\Generated_Source\PSoC4/CapSense_CSHL.c **** *
 786:.\Generated_Source\PSoC4/CapSense_CSHL.c **** * Return:
 787:.\Generated_Source\PSoC4/CapSense_CSHL.c **** *  This API returns the finger threshold of the widget indicated by the argument. 
 788:.\Generated_Source\PSoC4/CapSense_CSHL.c **** *
 789:.\Generated_Source\PSoC4/CapSense_CSHL.c **** * Global Variables:
 790:.\Generated_Source\PSoC4/CapSense_CSHL.c **** *  CapSense_fingerThreshold[] - This array contains the level of signal 
 791:.\Generated_Source\PSoC4/CapSense_CSHL.c **** *  for each widget that is determined if a finger is present on the widget.
 792:.\Generated_Source\PSoC4/CapSense_CSHL.c **** *
 793:.\Generated_Source\PSoC4/CapSense_CSHL.c **** * Side Effects:
 794:.\Generated_Source\PSoC4/CapSense_CSHL.c **** *  None
 795:.\Generated_Source\PSoC4/CapSense_CSHL.c **** *
 796:.\Generated_Source\PSoC4/CapSense_CSHL.c **** *******************************************************************************/
 797:.\Generated_Source\PSoC4/CapSense_CSHL.c **** uint16 CapSense_GetFingerThreshold(uint32 widget)
 798:.\Generated_Source\PSoC4/CapSense_CSHL.c **** {
ARM GAS  C:\Users\ALEXAN~1\AppData\Local\Temp\cc9HWPtE.s 			page 26


 618              		.loc 1 798 0
 619              		.cfi_startproc
 620              	.LVL68:
 799:.\Generated_Source\PSoC4/CapSense_CSHL.c **** 	return(CapSense_fingerThreshold[widget]);
 800:.\Generated_Source\PSoC4/CapSense_CSHL.c **** }
 621              		.loc 1 800 0
 622 0000 6420     		mov	r0, #100
 623              	.LVL69:
 624              		@ sp needed
 625 0002 7047     		bx	lr
 626              		.cfi_endproc
 627              	.LFE47:
 628              		.size	CapSense_GetFingerThreshold, .-CapSense_GetFingerThreshold
 629              		.section	.text.CapSense_GetNoiseThreshold,"ax",%progbits
 630              		.align	2
 631              		.global	CapSense_GetNoiseThreshold
 632              		.code	16
 633              		.thumb_func
 634              		.type	CapSense_GetNoiseThreshold, %function
 635              	CapSense_GetNoiseThreshold:
 636              	.LFB48:
 801:.\Generated_Source\PSoC4/CapSense_CSHL.c **** 
 802:.\Generated_Source\PSoC4/CapSense_CSHL.c **** 
 803:.\Generated_Source\PSoC4/CapSense_CSHL.c **** /*******************************************************************************
 804:.\Generated_Source\PSoC4/CapSense_CSHL.c **** * Function Name: CapSense_GetNoiseThreshold
 805:.\Generated_Source\PSoC4/CapSense_CSHL.c **** ********************************************************************************
 806:.\Generated_Source\PSoC4/CapSense_CSHL.c **** *
 807:.\Generated_Source\PSoC4/CapSense_CSHL.c **** * Summary:
 808:.\Generated_Source\PSoC4/CapSense_CSHL.c **** *  This function reads the noise threshold from the component.
 809:.\Generated_Source\PSoC4/CapSense_CSHL.c **** *
 810:.\Generated_Source\PSoC4/CapSense_CSHL.c **** * Parameters:
 811:.\Generated_Source\PSoC4/CapSense_CSHL.c **** *  widget:  widget number.
 812:.\Generated_Source\PSoC4/CapSense_CSHL.c **** *
 813:.\Generated_Source\PSoC4/CapSense_CSHL.c **** * Return:
 814:.\Generated_Source\PSoC4/CapSense_CSHL.c **** *  This API returns the noise threshold of the widget indicated by the argument. 
 815:.\Generated_Source\PSoC4/CapSense_CSHL.c **** *
 816:.\Generated_Source\PSoC4/CapSense_CSHL.c **** * Global Variables:
 817:.\Generated_Source\PSoC4/CapSense_CSHL.c **** *  CapSense_noiseThreshold[] - This array contains the level of signal 
 818:.\Generated_Source\PSoC4/CapSense_CSHL.c **** *  for each widget that determines the level of noise in the capacitive scan.
 819:.\Generated_Source\PSoC4/CapSense_CSHL.c **** * 
 820:.\Generated_Source\PSoC4/CapSense_CSHL.c **** * Side Effects:
 821:.\Generated_Source\PSoC4/CapSense_CSHL.c **** *  None
 822:.\Generated_Source\PSoC4/CapSense_CSHL.c **** *
 823:.\Generated_Source\PSoC4/CapSense_CSHL.c **** *******************************************************************************/
 824:.\Generated_Source\PSoC4/CapSense_CSHL.c **** uint16 CapSense_GetNoiseThreshold(uint32 widget)
 825:.\Generated_Source\PSoC4/CapSense_CSHL.c **** {
 637              		.loc 1 825 0
 638              		.cfi_startproc
 639              	.LVL70:
 826:.\Generated_Source\PSoC4/CapSense_CSHL.c **** 	return (CapSense_noiseThreshold[widget]);
 827:.\Generated_Source\PSoC4/CapSense_CSHL.c **** }
 640              		.loc 1 827 0
 641 0000 1E20     		mov	r0, #30
 642              	.LVL71:
 643              		@ sp needed
 644 0002 7047     		bx	lr
 645              		.cfi_endproc
ARM GAS  C:\Users\ALEXAN~1\AppData\Local\Temp\cc9HWPtE.s 			page 27


 646              	.LFE48:
 647              		.size	CapSense_GetNoiseThreshold, .-CapSense_GetNoiseThreshold
 648              		.section	.text.CapSense_GetFingerHysteresis,"ax",%progbits
 649              		.align	2
 650              		.global	CapSense_GetFingerHysteresis
 651              		.code	16
 652              		.thumb_func
 653              		.type	CapSense_GetFingerHysteresis, %function
 654              	CapSense_GetFingerHysteresis:
 655              	.LFB49:
 828:.\Generated_Source\PSoC4/CapSense_CSHL.c **** 
 829:.\Generated_Source\PSoC4/CapSense_CSHL.c **** 
 830:.\Generated_Source\PSoC4/CapSense_CSHL.c **** /*******************************************************************************
 831:.\Generated_Source\PSoC4/CapSense_CSHL.c **** * Function Name: CapSense_GetFingerHysteresis
 832:.\Generated_Source\PSoC4/CapSense_CSHL.c **** ********************************************************************************
 833:.\Generated_Source\PSoC4/CapSense_CSHL.c **** *
 834:.\Generated_Source\PSoC4/CapSense_CSHL.c **** * Summary:
 835:.\Generated_Source\PSoC4/CapSense_CSHL.c **** *  This function reads the Hysteresis value from the component.
 836:.\Generated_Source\PSoC4/CapSense_CSHL.c **** *
 837:.\Generated_Source\PSoC4/CapSense_CSHL.c **** * Parameters:
 838:.\Generated_Source\PSoC4/CapSense_CSHL.c **** *  widget:  widget number.
 839:.\Generated_Source\PSoC4/CapSense_CSHL.c **** *
 840:.\Generated_Source\PSoC4/CapSense_CSHL.c **** * Return:
 841:.\Generated_Source\PSoC4/CapSense_CSHL.c **** *  This API returns the Hysteresis of the widget indicated by the argument. 
 842:.\Generated_Source\PSoC4/CapSense_CSHL.c **** *
 843:.\Generated_Source\PSoC4/CapSense_CSHL.c **** * Global Variables:
 844:.\Generated_Source\PSoC4/CapSense_CSHL.c **** *  CapSense_hysteresis[] - This array contains the hysteresis value 
 845:.\Generated_Source\PSoC4/CapSense_CSHL.c **** *   for each widget.
 846:.\Generated_Source\PSoC4/CapSense_CSHL.c **** *  CapSense_widgetNumberSld - structure with dynamic sliders' parameters.
 847:.\Generated_Source\PSoC4/CapSense_CSHL.c **** *
 848:.\Generated_Source\PSoC4/CapSense_CSHL.c **** * Side Effects:
 849:.\Generated_Source\PSoC4/CapSense_CSHL.c **** *  None
 850:.\Generated_Source\PSoC4/CapSense_CSHL.c **** *
 851:.\Generated_Source\PSoC4/CapSense_CSHL.c **** *******************************************************************************/
 852:.\Generated_Source\PSoC4/CapSense_CSHL.c **** uint16 CapSense_GetFingerHysteresis(uint32 widget)
 853:.\Generated_Source\PSoC4/CapSense_CSHL.c **** {
 656              		.loc 1 853 0
 657              		.cfi_startproc
 658              	.LVL72:
 854:.\Generated_Source\PSoC4/CapSense_CSHL.c **** 	return(CapSense_hysteresis[widget]);
 855:.\Generated_Source\PSoC4/CapSense_CSHL.c **** }
 659              		.loc 1 855 0
 660 0000 0020     		mov	r0, #0
 661              	.LVL73:
 662              		@ sp needed
 663 0002 7047     		bx	lr
 664              		.cfi_endproc
 665              	.LFE49:
 666              		.size	CapSense_GetFingerHysteresis, .-CapSense_GetFingerHysteresis
 667              		.section	.text.CapSense_GetNegativeNoiseThreshold,"ax",%progbits
 668              		.align	2
 669              		.global	CapSense_GetNegativeNoiseThreshold
 670              		.code	16
 671              		.thumb_func
 672              		.type	CapSense_GetNegativeNoiseThreshold, %function
 673              	CapSense_GetNegativeNoiseThreshold:
 674              	.LFB50:
ARM GAS  C:\Users\ALEXAN~1\AppData\Local\Temp\cc9HWPtE.s 			page 28


 856:.\Generated_Source\PSoC4/CapSense_CSHL.c **** 
 857:.\Generated_Source\PSoC4/CapSense_CSHL.c **** 
 858:.\Generated_Source\PSoC4/CapSense_CSHL.c **** /*******************************************************************************
 859:.\Generated_Source\PSoC4/CapSense_CSHL.c **** * Function Name: CapSense_GetNegativeNoiseThreshold
 860:.\Generated_Source\PSoC4/CapSense_CSHL.c **** ********************************************************************************
 861:.\Generated_Source\PSoC4/CapSense_CSHL.c **** *
 862:.\Generated_Source\PSoC4/CapSense_CSHL.c **** * Summary:
 863:.\Generated_Source\PSoC4/CapSense_CSHL.c **** *  This function reads the negative noise threshold from the component.
 864:.\Generated_Source\PSoC4/CapSense_CSHL.c **** *
 865:.\Generated_Source\PSoC4/CapSense_CSHL.c **** * Parameters: 
 866:.\Generated_Source\PSoC4/CapSense_CSHL.c **** *  None.
 867:.\Generated_Source\PSoC4/CapSense_CSHL.c **** *
 868:.\Generated_Source\PSoC4/CapSense_CSHL.c **** * Return Value: 
 869:.\Generated_Source\PSoC4/CapSense_CSHL.c **** *  This API returns the negative noise threshold
 870:.\Generated_Source\PSoC4/CapSense_CSHL.c **** *
 871:.\Generated_Source\PSoC4/CapSense_CSHL.c **** * Global Variables:
 872:.\Generated_Source\PSoC4/CapSense_CSHL.c **** *  CapSense_negativeNoiseThreshold - This variable specifies the negative 
 873:.\Generated_Source\PSoC4/CapSense_CSHL.c **** *   difference between the raw count and baseline levels for Baseline resetting
 874:.\Generated_Source\PSoC4/CapSense_CSHL.c **** *   to the raw count level.
 875:.\Generated_Source\PSoC4/CapSense_CSHL.c **** * 
 876:.\Generated_Source\PSoC4/CapSense_CSHL.c **** * Side Effects:
 877:.\Generated_Source\PSoC4/CapSense_CSHL.c **** *  None
 878:.\Generated_Source\PSoC4/CapSense_CSHL.c **** *
 879:.\Generated_Source\PSoC4/CapSense_CSHL.c **** *******************************************************************************/
 880:.\Generated_Source\PSoC4/CapSense_CSHL.c **** uint16 CapSense_GetNegativeNoiseThreshold(uint32 widget)
 881:.\Generated_Source\PSoC4/CapSense_CSHL.c **** {
 675              		.loc 1 881 0
 676              		.cfi_startproc
 677              	.LVL74:
 882:.\Generated_Source\PSoC4/CapSense_CSHL.c **** #if (CapSense_TUNING_METHOD != CapSense__TUNING_NONE)
 883:.\Generated_Source\PSoC4/CapSense_CSHL.c **** 	return(CapSense_negativeNoiseThreshold[widget]);
 884:.\Generated_Source\PSoC4/CapSense_CSHL.c **** #else
 885:.\Generated_Source\PSoC4/CapSense_CSHL.c **** 	return(CapSense_NEGATIVE_NOISE_THRESHOLD);
 886:.\Generated_Source\PSoC4/CapSense_CSHL.c **** #endif /* (CapSense_TUNING_METHOD != CapSense__TUNING_NONE) */ 
 887:.\Generated_Source\PSoC4/CapSense_CSHL.c **** }
 678              		.loc 1 887 0
 679 0000 1420     		mov	r0, #20
 680              	.LVL75:
 681              		@ sp needed
 682 0002 7047     		bx	lr
 683              		.cfi_endproc
 684              	.LFE50:
 685              		.size	CapSense_GetNegativeNoiseThreshold, .-CapSense_GetNegativeNoiseThreshold
 686              		.section	.text.CapSense_CheckIsSensorActive,"ax",%progbits
 687              		.align	2
 688              		.global	CapSense_CheckIsSensorActive
 689              		.code	16
 690              		.thumb_func
 691              		.type	CapSense_CheckIsSensorActive, %function
 692              	CapSense_CheckIsSensorActive:
 693              	.LFB51:
 888:.\Generated_Source\PSoC4/CapSense_CSHL.c **** 
 889:.\Generated_Source\PSoC4/CapSense_CSHL.c **** 
 890:.\Generated_Source\PSoC4/CapSense_CSHL.c **** #if(CapSense_TUNING_METHOD != CapSense__TUNING_NONE)
 891:.\Generated_Source\PSoC4/CapSense_CSHL.c **** 	/*******************************************************************************
 892:.\Generated_Source\PSoC4/CapSense_CSHL.c **** 	* Function Name: CapSense_SetFingerThreshold
 893:.\Generated_Source\PSoC4/CapSense_CSHL.c **** 	********************************************************************************
ARM GAS  C:\Users\ALEXAN~1\AppData\Local\Temp\cc9HWPtE.s 			page 29


 894:.\Generated_Source\PSoC4/CapSense_CSHL.c **** 	*
 895:.\Generated_Source\PSoC4/CapSense_CSHL.c **** 	* Summary:
 896:.\Generated_Source\PSoC4/CapSense_CSHL.c **** 	*  This API sets the finger threshold value for a widget. 
 897:.\Generated_Source\PSoC4/CapSense_CSHL.c **** 	*
 898:.\Generated_Source\PSoC4/CapSense_CSHL.c **** 	* Parameters: 
 899:.\Generated_Source\PSoC4/CapSense_CSHL.c **** 	*  sensorNumber:  widget index. 
 900:.\Generated_Source\PSoC4/CapSense_CSHL.c **** 	*  value:  Finger threshold value for the widget.
 901:.\Generated_Source\PSoC4/CapSense_CSHL.c **** 	*
 902:.\Generated_Source\PSoC4/CapSense_CSHL.c **** 	* Return Value: 
 903:.\Generated_Source\PSoC4/CapSense_CSHL.c **** 	*  None
 904:.\Generated_Source\PSoC4/CapSense_CSHL.c **** 	*
 905:.\Generated_Source\PSoC4/CapSense_CSHL.c **** 	* Global Variables:
 906:.\Generated_Source\PSoC4/CapSense_CSHL.c **** 	*  CapSense_fingerThreshold[] - This array contains the level of signal 
 907:.\Generated_Source\PSoC4/CapSense_CSHL.c **** 	*   for each widget that determines if a finger is present on the widget.
 908:.\Generated_Source\PSoC4/CapSense_CSHL.c **** 	* 
 909:.\Generated_Source\PSoC4/CapSense_CSHL.c **** 	* Side Effects:
 910:.\Generated_Source\PSoC4/CapSense_CSHL.c **** 	*  None
 911:.\Generated_Source\PSoC4/CapSense_CSHL.c **** 	*
 912:.\Generated_Source\PSoC4/CapSense_CSHL.c **** 	*******************************************************************************/
 913:.\Generated_Source\PSoC4/CapSense_CSHL.c **** 	void CapSense_SetFingerThreshold(uint32 widget, uint16 value)
 914:.\Generated_Source\PSoC4/CapSense_CSHL.c **** 	{	
 915:.\Generated_Source\PSoC4/CapSense_CSHL.c **** 		CapSense_fingerThreshold[widget] = value;
 916:.\Generated_Source\PSoC4/CapSense_CSHL.c **** 	}
 917:.\Generated_Source\PSoC4/CapSense_CSHL.c **** 
 918:.\Generated_Source\PSoC4/CapSense_CSHL.c **** 
 919:.\Generated_Source\PSoC4/CapSense_CSHL.c **** 	/*******************************************************************************
 920:.\Generated_Source\PSoC4/CapSense_CSHL.c **** 	* Function Name: CapSense_SetNoiseThreshold
 921:.\Generated_Source\PSoC4/CapSense_CSHL.c **** 	********************************************************************************
 922:.\Generated_Source\PSoC4/CapSense_CSHL.c **** 	*
 923:.\Generated_Source\PSoC4/CapSense_CSHL.c **** 	* Summary:
 924:.\Generated_Source\PSoC4/CapSense_CSHL.c **** 	*  This API sets the Noise Threshold value for each widget.
 925:.\Generated_Source\PSoC4/CapSense_CSHL.c **** 	*
 926:.\Generated_Source\PSoC4/CapSense_CSHL.c **** 	* Parameters:
 927:.\Generated_Source\PSoC4/CapSense_CSHL.c **** 	*  widget:  Sensor index number.
 928:.\Generated_Source\PSoC4/CapSense_CSHL.c **** 	*  value:   Noise Threshold value for widget.
 929:.\Generated_Source\PSoC4/CapSense_CSHL.c **** 	*
 930:.\Generated_Source\PSoC4/CapSense_CSHL.c **** 	* Return Value: 
 931:.\Generated_Source\PSoC4/CapSense_CSHL.c **** 	*  None
 932:.\Generated_Source\PSoC4/CapSense_CSHL.c **** 	*
 933:.\Generated_Source\PSoC4/CapSense_CSHL.c **** 	* Global Variables:
 934:.\Generated_Source\PSoC4/CapSense_CSHL.c **** 	*  CapSense_noiseThreshold[] - This array contains the level of signal 
 935:.\Generated_Source\PSoC4/CapSense_CSHL.c **** 	*   for each widget that determines the level of noise in the capacitive scan.
 936:.\Generated_Source\PSoC4/CapSense_CSHL.c **** 	* 
 937:.\Generated_Source\PSoC4/CapSense_CSHL.c **** 	* Side Effects:
 938:.\Generated_Source\PSoC4/CapSense_CSHL.c **** 	*  None
 939:.\Generated_Source\PSoC4/CapSense_CSHL.c **** 	*
 940:.\Generated_Source\PSoC4/CapSense_CSHL.c **** 	*******************************************************************************/
 941:.\Generated_Source\PSoC4/CapSense_CSHL.c **** 	void CapSense_SetNoiseThreshold(uint32 widget, uint16 value)
 942:.\Generated_Source\PSoC4/CapSense_CSHL.c **** 	{
 943:.\Generated_Source\PSoC4/CapSense_CSHL.c **** 		CapSense_noiseThreshold[widget] = value;
 944:.\Generated_Source\PSoC4/CapSense_CSHL.c **** 	}
 945:.\Generated_Source\PSoC4/CapSense_CSHL.c **** 
 946:.\Generated_Source\PSoC4/CapSense_CSHL.c **** 
 947:.\Generated_Source\PSoC4/CapSense_CSHL.c **** 	/*******************************************************************************
 948:.\Generated_Source\PSoC4/CapSense_CSHL.c **** 	* Function Name: CapSense_SetFingerHysteresis
 949:.\Generated_Source\PSoC4/CapSense_CSHL.c **** 	********************************************************************************
 950:.\Generated_Source\PSoC4/CapSense_CSHL.c **** 	*
ARM GAS  C:\Users\ALEXAN~1\AppData\Local\Temp\cc9HWPtE.s 			page 30


 951:.\Generated_Source\PSoC4/CapSense_CSHL.c **** 	* Summary:
 952:.\Generated_Source\PSoC4/CapSense_CSHL.c **** 	*  This API sets the Hysteresis value of a widget
 953:.\Generated_Source\PSoC4/CapSense_CSHL.c **** 	*
 954:.\Generated_Source\PSoC4/CapSense_CSHL.c **** 	* Parameters: 
 955:.\Generated_Source\PSoC4/CapSense_CSHL.c **** 	*  value:  Hysteresis value for widgets.
 956:.\Generated_Source\PSoC4/CapSense_CSHL.c **** 	*  widget:  widget number
 957:.\Generated_Source\PSoC4/CapSense_CSHL.c **** 	*
 958:.\Generated_Source\PSoC4/CapSense_CSHL.c **** 	* Return Value: 
 959:.\Generated_Source\PSoC4/CapSense_CSHL.c **** 	*  None
 960:.\Generated_Source\PSoC4/CapSense_CSHL.c **** 	*
 961:.\Generated_Source\PSoC4/CapSense_CSHL.c **** 	* Global Variables:
 962:.\Generated_Source\PSoC4/CapSense_CSHL.c **** 	*  CapSense_hysteresis[] - This array contains the hysteresis value for each widget.
 963:.\Generated_Source\PSoC4/CapSense_CSHL.c **** 	*  CapSense_widgetNumberSld - structure with dynamic sliders' parameters.
 964:.\Generated_Source\PSoC4/CapSense_CSHL.c **** 	*
 965:.\Generated_Source\PSoC4/CapSense_CSHL.c **** 	* Side Effects:
 966:.\Generated_Source\PSoC4/CapSense_CSHL.c **** 	*  None
 967:.\Generated_Source\PSoC4/CapSense_CSHL.c **** 	*
 968:.\Generated_Source\PSoC4/CapSense_CSHL.c **** 	*******************************************************************************/
 969:.\Generated_Source\PSoC4/CapSense_CSHL.c **** 	void CapSense_SetFingerHysteresis(uint32 widget, uint16 value)
 970:.\Generated_Source\PSoC4/CapSense_CSHL.c **** 	{
 971:.\Generated_Source\PSoC4/CapSense_CSHL.c **** 		CapSense_hysteresis[widget] = value;
 972:.\Generated_Source\PSoC4/CapSense_CSHL.c **** 	}
 973:.\Generated_Source\PSoC4/CapSense_CSHL.c **** 
 974:.\Generated_Source\PSoC4/CapSense_CSHL.c **** 
 975:.\Generated_Source\PSoC4/CapSense_CSHL.c **** 	/*******************************************************************************
 976:.\Generated_Source\PSoC4/CapSense_CSHL.c **** 	* Function Name: CapSense_SetNegativeNoiseThreshold
 977:.\Generated_Source\PSoC4/CapSense_CSHL.c **** 	********************************************************************************
 978:.\Generated_Source\PSoC4/CapSense_CSHL.c **** 	*
 979:.\Generated_Source\PSoC4/CapSense_CSHL.c **** 	* Summary:
 980:.\Generated_Source\PSoC4/CapSense_CSHL.c **** 	*  This API sets the Negative Noise Threshold value of a widget
 981:.\Generated_Source\PSoC4/CapSense_CSHL.c **** 	*
 982:.\Generated_Source\PSoC4/CapSense_CSHL.c **** 	* Parameters: 
 983:.\Generated_Source\PSoC4/CapSense_CSHL.c **** 	*  value:  Negative Noise Threshold value for widgets.
 984:.\Generated_Source\PSoC4/CapSense_CSHL.c **** 	*  widget: widget number
 985:.\Generated_Source\PSoC4/CapSense_CSHL.c **** 	*
 986:.\Generated_Source\PSoC4/CapSense_CSHL.c **** 	* Return Value: 
 987:.\Generated_Source\PSoC4/CapSense_CSHL.c **** 	*  None
 988:.\Generated_Source\PSoC4/CapSense_CSHL.c **** 	*
 989:.\Generated_Source\PSoC4/CapSense_CSHL.c **** 	* Global Variables:
 990:.\Generated_Source\PSoC4/CapSense_CSHL.c **** 	*  CapSense_negativeNoiseThreshold  - This parameter specifies the negative 
 991:.\Generated_Source\PSoC4/CapSense_CSHL.c **** 	*   difference between the raw count and baseline levels for Baseline resetting to 
 992:.\Generated_Source\PSoC4/CapSense_CSHL.c **** 	*   the raw count level.
 993:.\Generated_Source\PSoC4/CapSense_CSHL.c **** 	* 
 994:.\Generated_Source\PSoC4/CapSense_CSHL.c **** 	* Side Effects:
 995:.\Generated_Source\PSoC4/CapSense_CSHL.c **** 	*  None
 996:.\Generated_Source\PSoC4/CapSense_CSHL.c **** 	*
 997:.\Generated_Source\PSoC4/CapSense_CSHL.c **** 	*******************************************************************************/
 998:.\Generated_Source\PSoC4/CapSense_CSHL.c **** 	void CapSense_SetNegativeNoiseThreshold(uint32 widget, uint16 value)
 999:.\Generated_Source\PSoC4/CapSense_CSHL.c **** 	{
1000:.\Generated_Source\PSoC4/CapSense_CSHL.c **** 		CapSense_negativeNoiseThreshold[widget] = value;
1001:.\Generated_Source\PSoC4/CapSense_CSHL.c **** 	}
1002:.\Generated_Source\PSoC4/CapSense_CSHL.c **** 
1003:.\Generated_Source\PSoC4/CapSense_CSHL.c **** 
1004:.\Generated_Source\PSoC4/CapSense_CSHL.c **** 	/*******************************************************************************
1005:.\Generated_Source\PSoC4/CapSense_CSHL.c **** 	* Function Name: CapSense_SetDebounce
1006:.\Generated_Source\PSoC4/CapSense_CSHL.c **** 	********************************************************************************
1007:.\Generated_Source\PSoC4/CapSense_CSHL.c **** 	*
ARM GAS  C:\Users\ALEXAN~1\AppData\Local\Temp\cc9HWPtE.s 			page 31


1008:.\Generated_Source\PSoC4/CapSense_CSHL.c **** 	* Summary:
1009:.\Generated_Source\PSoC4/CapSense_CSHL.c **** 	*  This API sets the debounce value for a widget.
1010:.\Generated_Source\PSoC4/CapSense_CSHL.c **** 	*
1011:.\Generated_Source\PSoC4/CapSense_CSHL.c **** 	* Parameters: 
1012:.\Generated_Source\PSoC4/CapSense_CSHL.c **** 	*  value:  Debounce value for widget.
1013:.\Generated_Source\PSoC4/CapSense_CSHL.c **** 	*  widget: widget index.
1014:.\Generated_Source\PSoC4/CapSense_CSHL.c **** 	*
1015:.\Generated_Source\PSoC4/CapSense_CSHL.c **** 	* Return Value: 
1016:.\Generated_Source\PSoC4/CapSense_CSHL.c **** 	*  None
1017:.\Generated_Source\PSoC4/CapSense_CSHL.c **** 	*
1018:.\Generated_Source\PSoC4/CapSense_CSHL.c **** 	* Global Variables:
1019:.\Generated_Source\PSoC4/CapSense_CSHL.c **** 	*  CapSense_debounce[] - This array contains the debounce value for each widget.
1020:.\Generated_Source\PSoC4/CapSense_CSHL.c **** 	*  CapSense_widgetNumberSld - structure with dynamic sliders' parameters.
1021:.\Generated_Source\PSoC4/CapSense_CSHL.c **** 	*
1022:.\Generated_Source\PSoC4/CapSense_CSHL.c **** 	* Side Effects:
1023:.\Generated_Source\PSoC4/CapSense_CSHL.c **** 	*  None
1024:.\Generated_Source\PSoC4/CapSense_CSHL.c **** 	*
1025:.\Generated_Source\PSoC4/CapSense_CSHL.c **** 	*******************************************************************************/
1026:.\Generated_Source\PSoC4/CapSense_CSHL.c **** 	void CapSense_SetDebounce(uint32 widget, uint8 value)
1027:.\Generated_Source\PSoC4/CapSense_CSHL.c **** 	{
1028:.\Generated_Source\PSoC4/CapSense_CSHL.c **** 		CapSense_debounce[widget] = value;
1029:.\Generated_Source\PSoC4/CapSense_CSHL.c **** 	}
1030:.\Generated_Source\PSoC4/CapSense_CSHL.c **** 
1031:.\Generated_Source\PSoC4/CapSense_CSHL.c **** 
1032:.\Generated_Source\PSoC4/CapSense_CSHL.c **** 	/*******************************************************************************
1033:.\Generated_Source\PSoC4/CapSense_CSHL.c **** 	* Function Name: CapSense_SetLowBaselineReset
1034:.\Generated_Source\PSoC4/CapSense_CSHL.c **** 	********************************************************************************
1035:.\Generated_Source\PSoC4/CapSense_CSHL.c **** 	*
1036:.\Generated_Source\PSoC4/CapSense_CSHL.c **** 	* Summary:
1037:.\Generated_Source\PSoC4/CapSense_CSHL.c **** 	*  This API sets the low baseline reset threshold value for the sensor.
1038:.\Generated_Source\PSoC4/CapSense_CSHL.c **** 	*
1039:.\Generated_Source\PSoC4/CapSense_CSHL.c **** 	* Parameters: 
1040:.\Generated_Source\PSoC4/CapSense_CSHL.c **** 	*  value: low baseline reset threshold value.
1041:.\Generated_Source\PSoC4/CapSense_CSHL.c **** 	*  sensor: Sensor index.
1042:.\Generated_Source\PSoC4/CapSense_CSHL.c **** 	*
1043:.\Generated_Source\PSoC4/CapSense_CSHL.c **** 	* Return Value: 
1044:.\Generated_Source\PSoC4/CapSense_CSHL.c **** 	*  None
1045:.\Generated_Source\PSoC4/CapSense_CSHL.c **** 	*
1046:.\Generated_Source\PSoC4/CapSense_CSHL.c **** 	* Global Variables:
1047:.\Generated_Source\PSoC4/CapSense_CSHL.c **** 	*  CapSense_lowBaselineReset[] - This array contains the Baseline update 
1048:.\Generated_Source\PSoC4/CapSense_CSHL.c **** 	*  threshold value for each sensor.
1049:.\Generated_Source\PSoC4/CapSense_CSHL.c **** 	* 
1050:.\Generated_Source\PSoC4/CapSense_CSHL.c **** 	* Side Effects:
1051:.\Generated_Source\PSoC4/CapSense_CSHL.c **** 	*  None
1052:.\Generated_Source\PSoC4/CapSense_CSHL.c **** 	*
1053:.\Generated_Source\PSoC4/CapSense_CSHL.c **** 	*******************************************************************************/
1054:.\Generated_Source\PSoC4/CapSense_CSHL.c **** 	void CapSense_SetLowBaselineReset(uint32 sensor, uint8 value)
1055:.\Generated_Source\PSoC4/CapSense_CSHL.c **** 	{
1056:.\Generated_Source\PSoC4/CapSense_CSHL.c **** 		CapSense_lowBaselineReset[sensor] = value;
1057:.\Generated_Source\PSoC4/CapSense_CSHL.c **** 	}
1058:.\Generated_Source\PSoC4/CapSense_CSHL.c **** #endif /* (CapSense_TUNING_METHOD != CapSense__TUNING_NONE) */
1059:.\Generated_Source\PSoC4/CapSense_CSHL.c **** 
1060:.\Generated_Source\PSoC4/CapSense_CSHL.c **** 
1061:.\Generated_Source\PSoC4/CapSense_CSHL.c **** /*******************************************************************************
1062:.\Generated_Source\PSoC4/CapSense_CSHL.c **** * Function Name: CapSense_CheckIsSensorActive
1063:.\Generated_Source\PSoC4/CapSense_CSHL.c **** ********************************************************************************
1064:.\Generated_Source\PSoC4/CapSense_CSHL.c **** *
ARM GAS  C:\Users\ALEXAN~1\AppData\Local\Temp\cc9HWPtE.s 			page 32


1065:.\Generated_Source\PSoC4/CapSense_CSHL.c **** * Summary:
1066:.\Generated_Source\PSoC4/CapSense_CSHL.c **** *  Compares the CapSense_sensorSignal[sensor] array element to the finger
1067:.\Generated_Source\PSoC4/CapSense_CSHL.c **** *  threshold of the widget it belongs to. The hysteresis and debounce are taken into 
1068:.\Generated_Source\PSoC4/CapSense_CSHL.c **** *  account. The hysteresis is added or subtracted from the finger threshold 
1069:.\Generated_Source\PSoC4/CapSense_CSHL.c **** *  based on whether the sensor is currently active. 
1070:.\Generated_Source\PSoC4/CapSense_CSHL.c **** *  If the sensor is active, the threshold is lowered by the hysteresis amount.
1071:.\Generated_Source\PSoC4/CapSense_CSHL.c **** *  If the sensor is inactive, the threshold is raised by the hysteresis amount.
1072:.\Generated_Source\PSoC4/CapSense_CSHL.c **** *  The debounce counter is added to the sensor active transition.
1073:.\Generated_Source\PSoC4/CapSense_CSHL.c **** *  This function updates the CapSense_sensorOnMask[] array element.
1074:.\Generated_Source\PSoC4/CapSense_CSHL.c **** *
1075:.\Generated_Source\PSoC4/CapSense_CSHL.c **** * Parameters:
1076:.\Generated_Source\PSoC4/CapSense_CSHL.c **** *  sensor:  Sensor number.
1077:.\Generated_Source\PSoC4/CapSense_CSHL.c **** *
1078:.\Generated_Source\PSoC4/CapSense_CSHL.c **** * Return:
1079:.\Generated_Source\PSoC4/CapSense_CSHL.c **** *  Returns sensor state 1 if active, 0 if not active.
1080:.\Generated_Source\PSoC4/CapSense_CSHL.c **** *
1081:.\Generated_Source\PSoC4/CapSense_CSHL.c **** * Global Variables:
1082:.\Generated_Source\PSoC4/CapSense_CSHL.c **** *  CapSense_sensorSignal[] - used to store the difference between 
1083:.\Generated_Source\PSoC4/CapSense_CSHL.c **** *  the current value of raw data and a previous value of the baseline.
1084:.\Generated_Source\PSoC4/CapSense_CSHL.c **** *  CapSense_debounceCounter[]   - used to store the current debounce 
1085:.\Generated_Source\PSoC4/CapSense_CSHL.c **** *  counter of the sensor. the widget which have this parameter are buttons, matrix 
1086:.\Generated_Source\PSoC4/CapSense_CSHL.c **** *  buttons, proximity, and guard. All other widgets don't have the  debounce parameter
1087:.\Generated_Source\PSoC4/CapSense_CSHL.c **** *  and use the last element of this array with value 0 (it means no debounce).
1088:.\Generated_Source\PSoC4/CapSense_CSHL.c **** *  CapSense_sensorOnMask[] - used to store the sensors on/off state.
1089:.\Generated_Source\PSoC4/CapSense_CSHL.c **** *  CapSense_sensorOnMask[0] contains the masked bits for sensors 
1090:.\Generated_Source\PSoC4/CapSense_CSHL.c **** *   0 through 7 (sensor 0 is bit 0, sensor 1 is bit 1).
1091:.\Generated_Source\PSoC4/CapSense_CSHL.c **** *  CapSense_sensorEnableMask[1] contains the masked bits for 
1092:.\Generated_Source\PSoC4/CapSense_CSHL.c **** *  sensors 8 through 15 (if needed), and so on.
1093:.\Generated_Source\PSoC4/CapSense_CSHL.c **** *  0 - sensor is inactive.
1094:.\Generated_Source\PSoC4/CapSense_CSHL.c **** *  1 - sensor is active.
1095:.\Generated_Source\PSoC4/CapSense_CSHL.c **** * 
1096:.\Generated_Source\PSoC4/CapSense_CSHL.c **** * Side Effects:
1097:.\Generated_Source\PSoC4/CapSense_CSHL.c **** *  None
1098:.\Generated_Source\PSoC4/CapSense_CSHL.c **** *
1099:.\Generated_Source\PSoC4/CapSense_CSHL.c **** *******************************************************************************/
1100:.\Generated_Source\PSoC4/CapSense_CSHL.c **** uint32 CapSense_CheckIsSensorActive(uint32 sensor)
1101:.\Generated_Source\PSoC4/CapSense_CSHL.c **** {	
 694              		.loc 1 1101 0
 695              		.cfi_startproc
 696              	.LVL76:
 697 0000 38B5     		push	{r3, r4, r5, lr}
 698              		.cfi_def_cfa_offset 16
 699              		.cfi_offset 3, -16
 700              		.cfi_offset 4, -12
 701              		.cfi_offset 5, -8
 702              		.cfi_offset 14, -4
 703 0002 041C     		mov	r4, r0
 704              	.LVL77:
1102:.\Generated_Source\PSoC4/CapSense_CSHL.c **** 	uint8 widget;
1103:.\Generated_Source\PSoC4/CapSense_CSHL.c **** 	uint8 debounce;
1104:.\Generated_Source\PSoC4/CapSense_CSHL.c **** 	uint8 debounceIndex;
1105:.\Generated_Source\PSoC4/CapSense_CSHL.c **** 
1106:.\Generated_Source\PSoC4/CapSense_CSHL.c **** 	uint16 fingerThreshold;
1107:.\Generated_Source\PSoC4/CapSense_CSHL.c **** 	uint16 hysteresis;
1108:.\Generated_Source\PSoC4/CapSense_CSHL.c **** 	static uint8 CapSense_debounceCounter[] = {
1109:.\Generated_Source\PSoC4/CapSense_CSHL.c ****     0u, 
1110:.\Generated_Source\PSoC4/CapSense_CSHL.c **** };
ARM GAS  C:\Users\ALEXAN~1\AppData\Local\Temp\cc9HWPtE.s 			page 33


1111:.\Generated_Source\PSoC4/CapSense_CSHL.c **** 
1112:.\Generated_Source\PSoC4/CapSense_CSHL.c **** 
1113:.\Generated_Source\PSoC4/CapSense_CSHL.c **** 	
1114:.\Generated_Source\PSoC4/CapSense_CSHL.c ****     /* Prepare to find debounce counter index */
1115:.\Generated_Source\PSoC4/CapSense_CSHL.c ****     widget = CapSense_widgetNumber[sensor];
1116:.\Generated_Source\PSoC4/CapSense_CSHL.c **** 	
1117:.\Generated_Source\PSoC4/CapSense_CSHL.c ****     fingerThreshold = CapSense_fingerThreshold[widget];
1118:.\Generated_Source\PSoC4/CapSense_CSHL.c **** 	hysteresis = CapSense_hysteresis[widget];
1119:.\Generated_Source\PSoC4/CapSense_CSHL.c **** 	debounce = CapSense_debounce[widget];	
1120:.\Generated_Source\PSoC4/CapSense_CSHL.c **** 	
1121:.\Generated_Source\PSoC4/CapSense_CSHL.c **** 	    debounceIndex = CapSense_UNUSED_DEBOUNCE_COUNTER_INDEX;
1122:.\Generated_Source\PSoC4/CapSense_CSHL.c ****     CapSense_debounceCounter[debounceIndex] = 1u;
 705              		.loc 1 1122 0
 706 0004 1F48     		ldr	r0, .L64
 707              	.LVL78:
 708 0006 0122     		mov	r2, #1
 709 0008 2023     		mov	r3, #32
 710 000a C254     		strb	r2, [r0, r3]
1123:.\Generated_Source\PSoC4/CapSense_CSHL.c **** 
1124:.\Generated_Source\PSoC4/CapSense_CSHL.c **** 	
1125:.\Generated_Source\PSoC4/CapSense_CSHL.c ****     /* Was on */
1126:.\Generated_Source\PSoC4/CapSense_CSHL.c ****     if (0u != CapSense_GetBitValue(CapSense_sensorOnMask, sensor))
 711              		.loc 1 1126 0
 712 000c 2430     		add	r0, r0, #36
 713 000e 211C     		mov	r1, r4
 714 0010 FFF7FEFF 		bl	CapSense_GetBitValue
 715              	.LVL79:
 716 0014 0028     		cmp	r0, #0
 717 0016 10D0     		beq	.L59
1127:.\Generated_Source\PSoC4/CapSense_CSHL.c ****     {
1128:.\Generated_Source\PSoC4/CapSense_CSHL.c ****         /* Hysteresis minus */
1129:.\Generated_Source\PSoC4/CapSense_CSHL.c ****         if (CapSense_sensorSignal[sensor] < (fingerThreshold - hysteresis))
 718              		.loc 1 1129 0
 719 0018 6300     		lsl	r3, r4, #1
 720 001a 1A4A     		ldr	r2, .L64
 721 001c D318     		add	r3, r2, r3
 722 001e 9B8A     		ldrh	r3, [r3, #20]
 723 0020 632B     		cmp	r3, #99
 724 0022 23DC     		bgt	.L60
1130:.\Generated_Source\PSoC4/CapSense_CSHL.c ****         {
1131:.\Generated_Source\PSoC4/CapSense_CSHL.c **** 	   		CapSense_SetBitValue(CapSense_sensorOnMask, sensor, 0u);
 725              		.loc 1 1131 0
 726 0024 151C     		mov	r5, r2
 727 0026 101C     		mov	r0, r2
 728 0028 2430     		add	r0, r0, #36
 729 002a 211C     		mov	r1, r4
 730 002c 0022     		mov	r2, #0
 731 002e FFF7FEFF 		bl	CapSense_SetBitValue
 732              	.LVL80:
1132:.\Generated_Source\PSoC4/CapSense_CSHL.c **** 			/* Sensor inactive - reset Debounce counter */
1133:.\Generated_Source\PSoC4/CapSense_CSHL.c ****             CapSense_debounceCounter[debounceIndex] = debounce;
 733              		.loc 1 1133 0
 734 0032 0122     		mov	r2, #1
 735 0034 2023     		mov	r3, #32
 736 0036 EA54     		strb	r2, [r5, r3]
 737 0038 18E0     		b	.L60
 738              	.L59:
ARM GAS  C:\Users\ALEXAN~1\AppData\Local\Temp\cc9HWPtE.s 			page 34


1134:.\Generated_Source\PSoC4/CapSense_CSHL.c ****         }
1135:.\Generated_Source\PSoC4/CapSense_CSHL.c ****     }
1136:.\Generated_Source\PSoC4/CapSense_CSHL.c ****     else    /* Was off */
1137:.\Generated_Source\PSoC4/CapSense_CSHL.c ****     {
1138:.\Generated_Source\PSoC4/CapSense_CSHL.c ****         /* Hysteresis plus */
1139:.\Generated_Source\PSoC4/CapSense_CSHL.c ****         if (CapSense_sensorSignal[sensor] >= (fingerThreshold + hysteresis))
 739              		.loc 1 1139 0
 740 003a 6300     		lsl	r3, r4, #1
 741 003c 114A     		ldr	r2, .L64
 742 003e D318     		add	r3, r2, r3
 743 0040 9B8A     		ldrh	r3, [r3, #20]
 744 0042 632B     		cmp	r3, #99
 745 0044 0EDD     		ble	.L61
1140:.\Generated_Source\PSoC4/CapSense_CSHL.c ****         {
1141:.\Generated_Source\PSoC4/CapSense_CSHL.c **** 			CapSense_debounceCounter[debounceIndex]--;
 746              		.loc 1 1141 0
 747 0046 111C     		mov	r1, r2
 748 0048 2022     		mov	r2, #32
 749 004a 8B5C     		ldrb	r3, [r1, r2]
 750 004c 013B     		sub	r3, r3, #1
 751 004e DBB2     		uxtb	r3, r3
 752 0050 8B54     		strb	r3, [r1, r2]
1142:.\Generated_Source\PSoC4/CapSense_CSHL.c ****             /* Sensor active, decrement debounce counter */
1143:.\Generated_Source\PSoC4/CapSense_CSHL.c ****             if(CapSense_debounceCounter[debounceIndex] == 0u)
 753              		.loc 1 1143 0
 754 0052 002B     		cmp	r3, #0
 755 0054 0AD1     		bne	.L60
1144:.\Generated_Source\PSoC4/CapSense_CSHL.c ****             {
1145:.\Generated_Source\PSoC4/CapSense_CSHL.c ****                 CapSense_SetBitValue(CapSense_sensorOnMask, sensor, 1u); 
 756              		.loc 1 1145 0
 757 0056 081C     		mov	r0, r1
 758 0058 2430     		add	r0, r0, #36
 759 005a 211C     		mov	r1, r4
 760 005c 0122     		mov	r2, #1
 761 005e FFF7FEFF 		bl	CapSense_SetBitValue
 762              	.LVL81:
 763 0062 03E0     		b	.L60
 764              	.L61:
1146:.\Generated_Source\PSoC4/CapSense_CSHL.c ****             }
1147:.\Generated_Source\PSoC4/CapSense_CSHL.c ****         }
1148:.\Generated_Source\PSoC4/CapSense_CSHL.c ****         else
1149:.\Generated_Source\PSoC4/CapSense_CSHL.c ****         {
1150:.\Generated_Source\PSoC4/CapSense_CSHL.c ****             /* Sensor inactive - reset Debounce counter */
1151:.\Generated_Source\PSoC4/CapSense_CSHL.c ****             CapSense_debounceCounter[debounceIndex] = debounce;
 765              		.loc 1 1151 0
 766 0064 0121     		mov	r1, #1
 767 0066 2023     		mov	r3, #32
 768 0068 064A     		ldr	r2, .L64
 769 006a D154     		strb	r1, [r2, r3]
 770              	.L60:
1152:.\Generated_Source\PSoC4/CapSense_CSHL.c ****         }
1153:.\Generated_Source\PSoC4/CapSense_CSHL.c ****     }
1154:.\Generated_Source\PSoC4/CapSense_CSHL.c ****     
1155:.\Generated_Source\PSoC4/CapSense_CSHL.c ****     return ((uint32)((0u != CapSense_GetBitValue(CapSense_sensorOnMask, sensor)) ? 1u : 0u));
 771              		.loc 1 1155 0
 772 006c 0548     		ldr	r0, .L64
 773 006e 2430     		add	r0, r0, #36
ARM GAS  C:\Users\ALEXAN~1\AppData\Local\Temp\cc9HWPtE.s 			page 35


 774 0070 211C     		mov	r1, r4
 775 0072 FFF7FEFF 		bl	CapSense_GetBitValue
 776              	.LVL82:
 777 0076 0028     		cmp	r0, #0
 778 0078 01D0     		beq	.L63
 779 007a 0120     		mov	r0, #1
 780 007c 00E0     		b	.L62
 781              	.L63:
 782 007e 0020     		mov	r0, #0
 783              	.L62:
1156:.\Generated_Source\PSoC4/CapSense_CSHL.c **** }
 784              		.loc 1 1156 0 discriminator 3
 785              		@ sp needed
 786              	.LVL83:
 787 0080 38BD     		pop	{r3, r4, r5, pc}
 788              	.L65:
 789 0082 C046     		.align	2
 790              	.L64:
 791 0084 00000000 		.word	.LANCHOR0
 792              		.cfi_endproc
 793              	.LFE51:
 794              		.size	CapSense_CheckIsSensorActive, .-CapSense_CheckIsSensorActive
 795              		.section	.text.CapSense_CheckIsWidgetActive,"ax",%progbits
 796              		.align	2
 797              		.global	CapSense_CheckIsWidgetActive
 798              		.code	16
 799              		.thumb_func
 800              		.type	CapSense_CheckIsWidgetActive, %function
 801              	CapSense_CheckIsWidgetActive:
 802              	.LFB52:
1157:.\Generated_Source\PSoC4/CapSense_CSHL.c **** 
1158:.\Generated_Source\PSoC4/CapSense_CSHL.c **** 
1159:.\Generated_Source\PSoC4/CapSense_CSHL.c **** /*******************************************************************************
1160:.\Generated_Source\PSoC4/CapSense_CSHL.c **** * Function Name: CapSense_CheckIsWidgetActive
1161:.\Generated_Source\PSoC4/CapSense_CSHL.c **** ********************************************************************************
1162:.\Generated_Source\PSoC4/CapSense_CSHL.c **** *
1163:.\Generated_Source\PSoC4/CapSense_CSHL.c **** * Summary:
1164:.\Generated_Source\PSoC4/CapSense_CSHL.c **** *  Compares the CapSense_sensorSignal[] array element to the finger threshold of 
1165:.\Generated_Source\PSoC4/CapSense_CSHL.c **** * the widget it belongs to. The hysteresis and debounce are taken into account. 
1166:.\Generated_Source\PSoC4/CapSense_CSHL.c **** * The hysteresis is added or subtracted from the finger threshold based on whether
1167:.\Generated_Source\PSoC4/CapSense_CSHL.c **** *  the sensor is currently active. If the sensor is active, the threshold is 
1168:.\Generated_Source\PSoC4/CapSense_CSHL.c **** *  lowered by the hysteresis amount. If the sensor is inactive, the threshold 
1169:.\Generated_Source\PSoC4/CapSense_CSHL.c **** *  is raised by the hysteresis amount. 
1170:.\Generated_Source\PSoC4/CapSense_CSHL.c **** * The debounce counter added to the sensor active transition. 
1171:.\Generated_Source\PSoC4/CapSense_CSHL.c **** * This function updates CapSense_sensorOnMask[] array element
1172:.\Generated_Source\PSoC4/CapSense_CSHL.c **** *
1173:.\Generated_Source\PSoC4/CapSense_CSHL.c **** * Parameters:
1174:.\Generated_Source\PSoC4/CapSense_CSHL.c **** *  widget:  widget number.
1175:.\Generated_Source\PSoC4/CapSense_CSHL.c **** *
1176:.\Generated_Source\PSoC4/CapSense_CSHL.c **** * Return:
1177:.\Generated_Source\PSoC4/CapSense_CSHL.c **** *  Returns widget sensor state 1 if one or more sensors within widget is/are 
1178:.\Generated_Source\PSoC4/CapSense_CSHL.c **** *  active, 0 if all sensors within widget are inactive.
1179:.\Generated_Source\PSoC4/CapSense_CSHL.c **** *
1180:.\Generated_Source\PSoC4/CapSense_CSHL.c **** * Global Variables:
1181:.\Generated_Source\PSoC4/CapSense_CSHL.c **** *  rawDataIndex[]: Contains the  1st sensor position in the widget
1182:.\Generated_Source\PSoC4/CapSense_CSHL.c **** * 
1183:.\Generated_Source\PSoC4/CapSense_CSHL.c **** * Side Effects:
ARM GAS  C:\Users\ALEXAN~1\AppData\Local\Temp\cc9HWPtE.s 			page 36


1184:.\Generated_Source\PSoC4/CapSense_CSHL.c **** *  None
1185:.\Generated_Source\PSoC4/CapSense_CSHL.c **** *
1186:.\Generated_Source\PSoC4/CapSense_CSHL.c **** *******************************************************************************/
1187:.\Generated_Source\PSoC4/CapSense_CSHL.c **** uint32 CapSense_CheckIsWidgetActive(uint32 widget)
1188:.\Generated_Source\PSoC4/CapSense_CSHL.c **** {
 803              		.loc 1 1188 0
 804              		.cfi_startproc
 805              	.LVL84:
 806 0000 70B5     		push	{r4, r5, r6, lr}
 807              		.cfi_def_cfa_offset 16
 808              		.cfi_offset 4, -16
 809              		.cfi_offset 5, -12
 810              		.cfi_offset 6, -8
 811              		.cfi_offset 14, -4
 812              	.LVL85:
1189:.\Generated_Source\PSoC4/CapSense_CSHL.c ****     uint32 rawIndex = (uint32)CapSense_rawDataIndex[widget];
1190:.\Generated_Source\PSoC4/CapSense_CSHL.c ****     uint32 numOfSensors = (uint32)CapSense_numberOfSensors[widget] + rawIndex;
1191:.\Generated_Source\PSoC4/CapSense_CSHL.c ****     uint32 state = 0u;
 813              		.loc 1 1191 0
 814 0002 0025     		mov	r5, #0
1189:.\Generated_Source\PSoC4/CapSense_CSHL.c ****     uint32 rawIndex = (uint32)CapSense_rawDataIndex[widget];
 815              		.loc 1 1189 0
 816 0004 0024     		mov	r4, #0
1192:.\Generated_Source\PSoC4/CapSense_CSHL.c **** 
1193:.\Generated_Source\PSoC4/CapSense_CSHL.c ****     /* Check all sensors of widget */
1194:.\Generated_Source\PSoC4/CapSense_CSHL.c ****     do
1195:.\Generated_Source\PSoC4/CapSense_CSHL.c ****     {
1196:.\Generated_Source\PSoC4/CapSense_CSHL.c ****         if(CapSense_CheckIsSensorActive((uint32)rawIndex) != 0u)
1197:.\Generated_Source\PSoC4/CapSense_CSHL.c ****         {
1198:.\Generated_Source\PSoC4/CapSense_CSHL.c ****             state = CapSense_SENSOR_IS_ACTIVE;
 817              		.loc 1 1198 0
 818 0006 0126     		mov	r6, #1
 819              	.LVL86:
 820              	.L68:
1196:.\Generated_Source\PSoC4/CapSense_CSHL.c ****         if(CapSense_CheckIsSensorActive((uint32)rawIndex) != 0u)
 821              		.loc 1 1196 0
 822 0008 201C     		mov	r0, r4
 823 000a FFF7FEFF 		bl	CapSense_CheckIsSensorActive
 824              	.LVL87:
 825 000e 0028     		cmp	r0, #0
 826 0010 00D0     		beq	.L67
 827              		.loc 1 1198 0
 828 0012 351C     		mov	r5, r6
 829              	.LVL88:
 830              	.L67:
1199:.\Generated_Source\PSoC4/CapSense_CSHL.c ****         }
1200:.\Generated_Source\PSoC4/CapSense_CSHL.c ****         rawIndex++;
 831              		.loc 1 1200 0
 832 0014 0134     		add	r4, r4, #1
 833              	.LVL89:
1201:.\Generated_Source\PSoC4/CapSense_CSHL.c ****     }
1202:.\Generated_Source\PSoC4/CapSense_CSHL.c ****     while(rawIndex < numOfSensors);
 834              		.loc 1 1202 0
 835 0016 042C     		cmp	r4, #4
 836 0018 F6D9     		bls	.L68
1203:.\Generated_Source\PSoC4/CapSense_CSHL.c ****     
1204:.\Generated_Source\PSoC4/CapSense_CSHL.c **** 
ARM GAS  C:\Users\ALEXAN~1\AppData\Local\Temp\cc9HWPtE.s 			page 37


1205:.\Generated_Source\PSoC4/CapSense_CSHL.c ****     
1206:.\Generated_Source\PSoC4/CapSense_CSHL.c ****     return state;
1207:.\Generated_Source\PSoC4/CapSense_CSHL.c **** }
 837              		.loc 1 1207 0
 838 001a 281C     		mov	r0, r5
 839              		@ sp needed
 840              	.LVL90:
 841              	.LVL91:
 842 001c 70BD     		pop	{r4, r5, r6, pc}
 843              		.cfi_endproc
 844              	.LFE52:
 845              		.size	CapSense_CheckIsWidgetActive, .-CapSense_CheckIsWidgetActive
 846 001e C046     		.section	.text.CapSense_CheckIsAnyWidgetActive,"ax",%progbits
 847              		.align	2
 848              		.global	CapSense_CheckIsAnyWidgetActive
 849              		.code	16
 850              		.thumb_func
 851              		.type	CapSense_CheckIsAnyWidgetActive, %function
 852              	CapSense_CheckIsAnyWidgetActive:
 853              	.LFB53:
1208:.\Generated_Source\PSoC4/CapSense_CSHL.c **** 
1209:.\Generated_Source\PSoC4/CapSense_CSHL.c **** 
1210:.\Generated_Source\PSoC4/CapSense_CSHL.c **** /*******************************************************************************
1211:.\Generated_Source\PSoC4/CapSense_CSHL.c **** * Function Name: CapSense_CheckIsAnyWidgetActive
1212:.\Generated_Source\PSoC4/CapSense_CSHL.c **** ********************************************************************************
1213:.\Generated_Source\PSoC4/CapSense_CSHL.c **** *
1214:.\Generated_Source\PSoC4/CapSense_CSHL.c **** * Summary:
1215:.\Generated_Source\PSoC4/CapSense_CSHL.c **** *  Compares all the sensors of the CapSense_Signal[] array to their finger 
1216:.\Generated_Source\PSoC4/CapSense_CSHL.c **** *  threshold. Calls CapSense_CheckIsWidgetActive() for each widget so 
1217:.\Generated_Source\PSoC4/CapSense_CSHL.c **** *  the CapSense_sensorOnMask[] array is up to date after calling this 
1218:.\Generated_Source\PSoC4/CapSense_CSHL.c **** *  function.
1219:.\Generated_Source\PSoC4/CapSense_CSHL.c **** *
1220:.\Generated_Source\PSoC4/CapSense_CSHL.c **** * Parameters:
1221:.\Generated_Source\PSoC4/CapSense_CSHL.c **** *  widget:  widget number.
1222:.\Generated_Source\PSoC4/CapSense_CSHL.c **** *
1223:.\Generated_Source\PSoC4/CapSense_CSHL.c **** * Return:
1224:.\Generated_Source\PSoC4/CapSense_CSHL.c **** *  Returns 1 if any widget is active, 0 none of widgets are active.
1225:.\Generated_Source\PSoC4/CapSense_CSHL.c **** *
1226:.\Generated_Source\PSoC4/CapSense_CSHL.c **** * Global Variables:
1227:.\Generated_Source\PSoC4/CapSense_CSHL.c **** *  None
1228:.\Generated_Source\PSoC4/CapSense_CSHL.c **** * 
1229:.\Generated_Source\PSoC4/CapSense_CSHL.c **** * Side Effects:
1230:.\Generated_Source\PSoC4/CapSense_CSHL.c **** *  None
1231:.\Generated_Source\PSoC4/CapSense_CSHL.c **** *
1232:.\Generated_Source\PSoC4/CapSense_CSHL.c **** *******************************************************************************/
1233:.\Generated_Source\PSoC4/CapSense_CSHL.c **** uint32 CapSense_CheckIsAnyWidgetActive(void)
1234:.\Generated_Source\PSoC4/CapSense_CSHL.c **** {
 854              		.loc 1 1234 0
 855              		.cfi_startproc
 856 0000 70B5     		push	{r4, r5, r6, lr}
 857              		.cfi_def_cfa_offset 16
 858              		.cfi_offset 4, -16
 859              		.cfi_offset 5, -12
 860              		.cfi_offset 6, -8
 861              		.cfi_offset 14, -4
 862              	.LVL92:
1235:.\Generated_Source\PSoC4/CapSense_CSHL.c **** 
ARM GAS  C:\Users\ALEXAN~1\AppData\Local\Temp\cc9HWPtE.s 			page 38


1236:.\Generated_Source\PSoC4/CapSense_CSHL.c **** 	    uint32 i;
1237:.\Generated_Source\PSoC4/CapSense_CSHL.c ****     uint32 state = 0u;
 863              		.loc 1 1237 0
 864 0002 0025     		mov	r5, #0
1238:.\Generated_Source\PSoC4/CapSense_CSHL.c ****     
1239:.\Generated_Source\PSoC4/CapSense_CSHL.c ****     for(i = 0u; i < CapSense_TOTAL_WIDGET_COUNT; i++)
 865              		.loc 1 1239 0
 866 0004 0024     		mov	r4, #0
1240:.\Generated_Source\PSoC4/CapSense_CSHL.c ****     {
1241:.\Generated_Source\PSoC4/CapSense_CSHL.c ****         if (CapSense_CheckIsWidgetActive(i) != 0u)
1242:.\Generated_Source\PSoC4/CapSense_CSHL.c ****         {
1243:.\Generated_Source\PSoC4/CapSense_CSHL.c ****             state = CapSense_WIDGET_IS_ACTIVE;
 867              		.loc 1 1243 0
 868 0006 0126     		mov	r6, #1
1239:.\Generated_Source\PSoC4/CapSense_CSHL.c ****     for(i = 0u; i < CapSense_TOTAL_WIDGET_COUNT; i++)
 869              		.loc 1 1239 0
 870 0008 06E0     		b	.L72
 871              	.LVL93:
 872              	.L74:
1241:.\Generated_Source\PSoC4/CapSense_CSHL.c ****         if (CapSense_CheckIsWidgetActive(i) != 0u)
 873              		.loc 1 1241 0
 874 000a 201C     		mov	r0, r4
 875 000c FFF7FEFF 		bl	CapSense_CheckIsWidgetActive
 876              	.LVL94:
 877 0010 0028     		cmp	r0, #0
 878 0012 00D0     		beq	.L73
 879              		.loc 1 1243 0
 880 0014 351C     		mov	r5, r6
 881              	.LVL95:
 882              	.L73:
1239:.\Generated_Source\PSoC4/CapSense_CSHL.c ****     for(i = 0u; i < CapSense_TOTAL_WIDGET_COUNT; i++)
 883              		.loc 1 1239 0
 884 0016 0134     		add	r4, r4, #1
 885              	.LVL96:
 886              	.L72:
1239:.\Generated_Source\PSoC4/CapSense_CSHL.c ****     for(i = 0u; i < CapSense_TOTAL_WIDGET_COUNT; i++)
 887              		.loc 1 1239 0 is_stmt 0 discriminator 1
 888 0018 002C     		cmp	r4, #0
 889 001a F6D0     		beq	.L74
1244:.\Generated_Source\PSoC4/CapSense_CSHL.c ****         }
1245:.\Generated_Source\PSoC4/CapSense_CSHL.c ****     }
1246:.\Generated_Source\PSoC4/CapSense_CSHL.c ****     
1247:.\Generated_Source\PSoC4/CapSense_CSHL.c **** 
1248:.\Generated_Source\PSoC4/CapSense_CSHL.c **** 
1249:.\Generated_Source\PSoC4/CapSense_CSHL.c ****     return state;
1250:.\Generated_Source\PSoC4/CapSense_CSHL.c **** }
 890              		.loc 1 1250 0 is_stmt 1
 891 001c 281C     		mov	r0, r5
 892              		@ sp needed
 893              	.LVL97:
 894              	.LVL98:
 895 001e 70BD     		pop	{r4, r5, r6, pc}
 896              		.cfi_endproc
 897              	.LFE53:
 898              		.size	CapSense_CheckIsAnyWidgetActive, .-CapSense_CheckIsAnyWidgetActive
 899              		.section	.text.CapSense_EnableWidget,"ax",%progbits
 900              		.align	2
ARM GAS  C:\Users\ALEXAN~1\AppData\Local\Temp\cc9HWPtE.s 			page 39


 901              		.global	CapSense_EnableWidget
 902              		.code	16
 903              		.thumb_func
 904              		.type	CapSense_EnableWidget, %function
 905              	CapSense_EnableWidget:
 906              	.LFB54:
1251:.\Generated_Source\PSoC4/CapSense_CSHL.c **** 
1252:.\Generated_Source\PSoC4/CapSense_CSHL.c **** 
1253:.\Generated_Source\PSoC4/CapSense_CSHL.c **** /*******************************************************************************
1254:.\Generated_Source\PSoC4/CapSense_CSHL.c **** * Function Name: CapSense_EnableWidget
1255:.\Generated_Source\PSoC4/CapSense_CSHL.c **** ********************************************************************************
1256:.\Generated_Source\PSoC4/CapSense_CSHL.c **** *
1257:.\Generated_Source\PSoC4/CapSense_CSHL.c **** * Summary:
1258:.\Generated_Source\PSoC4/CapSense_CSHL.c **** *  Enables all the widget elements (sensors) to the scanning process.
1259:.\Generated_Source\PSoC4/CapSense_CSHL.c **** *
1260:.\Generated_Source\PSoC4/CapSense_CSHL.c **** * Parameters:
1261:.\Generated_Source\PSoC4/CapSense_CSHL.c **** *  widget:  widget number.
1262:.\Generated_Source\PSoC4/CapSense_CSHL.c **** *
1263:.\Generated_Source\PSoC4/CapSense_CSHL.c **** * Return:
1264:.\Generated_Source\PSoC4/CapSense_CSHL.c **** *  None
1265:.\Generated_Source\PSoC4/CapSense_CSHL.c **** *
1266:.\Generated_Source\PSoC4/CapSense_CSHL.c **** * Global Variables:
1267:.\Generated_Source\PSoC4/CapSense_CSHL.c **** *  CapSense_sensorEnableMask[] - used to store the sensor scanning 
1268:.\Generated_Source\PSoC4/CapSense_CSHL.c **** *  state.
1269:.\Generated_Source\PSoC4/CapSense_CSHL.c **** *  CapSense_sensorEnableMask[0] contains the masked bits for sensors 
1270:.\Generated_Source\PSoC4/CapSense_CSHL.c **** *  0 through 7 (sensor 0 is bit 0, sensor 1 is bit 1).
1271:.\Generated_Source\PSoC4/CapSense_CSHL.c **** *  CapSense_sensorEnableMask[1] contains the masked bits for 
1272:.\Generated_Source\PSoC4/CapSense_CSHL.c **** *  sensors 8 through 15 (if needed), and so on.
1273:.\Generated_Source\PSoC4/CapSense_CSHL.c **** *  0 - sensor doesn't scan by CapSense_ScanEnabledWidgets().
1274:.\Generated_Source\PSoC4/CapSense_CSHL.c **** *  1 - sensor scans by CapSense_ScanEnabledWidgets().
1275:.\Generated_Source\PSoC4/CapSense_CSHL.c **** * 
1276:.\Generated_Source\PSoC4/CapSense_CSHL.c **** * Side Effects:
1277:.\Generated_Source\PSoC4/CapSense_CSHL.c **** *  None
1278:.\Generated_Source\PSoC4/CapSense_CSHL.c **** *
1279:.\Generated_Source\PSoC4/CapSense_CSHL.c **** *******************************************************************************/
1280:.\Generated_Source\PSoC4/CapSense_CSHL.c **** void CapSense_EnableWidget(uint32 widget)
1281:.\Generated_Source\PSoC4/CapSense_CSHL.c **** {
 907              		.loc 1 1281 0
 908              		.cfi_startproc
 909              	.LVL99:
 910 0000 38B5     		push	{r3, r4, r5, lr}
 911              		.cfi_def_cfa_offset 16
 912              		.cfi_offset 3, -16
 913              		.cfi_offset 4, -12
 914              		.cfi_offset 5, -8
 915              		.cfi_offset 14, -4
 916              	.LVL100:
1282:.\Generated_Source\PSoC4/CapSense_CSHL.c **** 
1283:.\Generated_Source\PSoC4/CapSense_CSHL.c ****     uint8 rawIndex = CapSense_rawDataIndex[widget];
 917              		.loc 1 1283 0
 918 0002 0024     		mov	r4, #0
1284:.\Generated_Source\PSoC4/CapSense_CSHL.c ****     uint8 numOfSensors = CapSense_numberOfSensors[widget] + rawIndex;
1285:.\Generated_Source\PSoC4/CapSense_CSHL.c ****     
1286:.\Generated_Source\PSoC4/CapSense_CSHL.c ****     /* Enable all sensors of widget */
1287:.\Generated_Source\PSoC4/CapSense_CSHL.c ****     do
1288:.\Generated_Source\PSoC4/CapSense_CSHL.c ****     {
1289:.\Generated_Source\PSoC4/CapSense_CSHL.c ****         CapSense_SetBitValue(CapSense_sensorEnableMask, (uint32)rawIndex, 1u);
ARM GAS  C:\Users\ALEXAN~1\AppData\Local\Temp\cc9HWPtE.s 			page 40


 919              		.loc 1 1289 0
 920 0004 054D     		ldr	r5, .L79
 921              	.LVL101:
 922              	.L77:
 923              		.loc 1 1289 0 is_stmt 0 discriminator 1
 924 0006 281C     		mov	r0, r5
 925 0008 211C     		mov	r1, r4
 926 000a 0122     		mov	r2, #1
 927 000c FFF7FEFF 		bl	CapSense_SetBitValue
 928              	.LVL102:
1290:.\Generated_Source\PSoC4/CapSense_CSHL.c ****         rawIndex++;
 929              		.loc 1 1290 0 is_stmt 1 discriminator 1
 930 0010 0134     		add	r4, r4, #1
 931              	.LVL103:
 932 0012 E4B2     		uxtb	r4, r4
 933              	.LVL104:
1291:.\Generated_Source\PSoC4/CapSense_CSHL.c ****     }
1292:.\Generated_Source\PSoC4/CapSense_CSHL.c ****     while(rawIndex < numOfSensors);
 934              		.loc 1 1292 0 discriminator 1
 935 0014 042C     		cmp	r4, #4
 936 0016 F6D9     		bls	.L77
1293:.\Generated_Source\PSoC4/CapSense_CSHL.c **** }
 937              		.loc 1 1293 0
 938              		@ sp needed
 939              	.LVL105:
 940 0018 38BD     		pop	{r3, r4, r5, pc}
 941              	.L80:
 942 001a C046     		.align	2
 943              	.L79:
 944 001c 00000000 		.word	CapSense_sensorEnableMask
 945              		.cfi_endproc
 946              	.LFE54:
 947              		.size	CapSense_EnableWidget, .-CapSense_EnableWidget
 948              		.section	.text.CapSense_DisableWidget,"ax",%progbits
 949              		.align	2
 950              		.global	CapSense_DisableWidget
 951              		.code	16
 952              		.thumb_func
 953              		.type	CapSense_DisableWidget, %function
 954              	CapSense_DisableWidget:
 955              	.LFB55:
1294:.\Generated_Source\PSoC4/CapSense_CSHL.c **** 
1295:.\Generated_Source\PSoC4/CapSense_CSHL.c **** 
1296:.\Generated_Source\PSoC4/CapSense_CSHL.c **** /*******************************************************************************
1297:.\Generated_Source\PSoC4/CapSense_CSHL.c **** * Function Name: CapSense_DisableWidget
1298:.\Generated_Source\PSoC4/CapSense_CSHL.c **** ********************************************************************************
1299:.\Generated_Source\PSoC4/CapSense_CSHL.c **** *
1300:.\Generated_Source\PSoC4/CapSense_CSHL.c **** * Summary:
1301:.\Generated_Source\PSoC4/CapSense_CSHL.c **** *  Disables all the widget elements (sensors) from the scanning process.
1302:.\Generated_Source\PSoC4/CapSense_CSHL.c **** *
1303:.\Generated_Source\PSoC4/CapSense_CSHL.c **** * Parameters:
1304:.\Generated_Source\PSoC4/CapSense_CSHL.c **** *  widget:  widget number.
1305:.\Generated_Source\PSoC4/CapSense_CSHL.c **** *
1306:.\Generated_Source\PSoC4/CapSense_CSHL.c **** * Return:
1307:.\Generated_Source\PSoC4/CapSense_CSHL.c **** *  None
1308:.\Generated_Source\PSoC4/CapSense_CSHL.c **** *
1309:.\Generated_Source\PSoC4/CapSense_CSHL.c **** * Global Variables:
ARM GAS  C:\Users\ALEXAN~1\AppData\Local\Temp\cc9HWPtE.s 			page 41


1310:.\Generated_Source\PSoC4/CapSense_CSHL.c **** *  CapSense_sensorEnableMask[] - used to store the sensor scanning 
1311:.\Generated_Source\PSoC4/CapSense_CSHL.c **** *  state.
1312:.\Generated_Source\PSoC4/CapSense_CSHL.c **** *  CapSense_sensorEnableMask[0] contains the masked bits for sensors 
1313:.\Generated_Source\PSoC4/CapSense_CSHL.c **** *  0 through 7 (sensor 0 is bit 0, sensor 1 is bit 1).
1314:.\Generated_Source\PSoC4/CapSense_CSHL.c **** *  CapSense_sensorEnableMask[1] contains the masked bits for 
1315:.\Generated_Source\PSoC4/CapSense_CSHL.c **** *  sensors 8 through 15 (if needed), and so on.
1316:.\Generated_Source\PSoC4/CapSense_CSHL.c **** *  0 - sensor isn't scanned by CapSense_ScanEnabledWidgets().
1317:.\Generated_Source\PSoC4/CapSense_CSHL.c **** *  1 - sensor is scanned by CapSense_ScanEnabledWidgets().
1318:.\Generated_Source\PSoC4/CapSense_CSHL.c **** * 
1319:.\Generated_Source\PSoC4/CapSense_CSHL.c **** * Side Effects:
1320:.\Generated_Source\PSoC4/CapSense_CSHL.c **** *  None
1321:.\Generated_Source\PSoC4/CapSense_CSHL.c **** *
1322:.\Generated_Source\PSoC4/CapSense_CSHL.c **** *******************************************************************************/
1323:.\Generated_Source\PSoC4/CapSense_CSHL.c **** void CapSense_DisableWidget(uint32 widget)
1324:.\Generated_Source\PSoC4/CapSense_CSHL.c **** {
 956              		.loc 1 1324 0
 957              		.cfi_startproc
 958              	.LVL106:
 959 0000 38B5     		push	{r3, r4, r5, lr}
 960              		.cfi_def_cfa_offset 16
 961              		.cfi_offset 3, -16
 962              		.cfi_offset 4, -12
 963              		.cfi_offset 5, -8
 964              		.cfi_offset 14, -4
 965              	.LVL107:
1325:.\Generated_Source\PSoC4/CapSense_CSHL.c ****     uint8 rawIndex = CapSense_rawDataIndex[widget];
 966              		.loc 1 1325 0
 967 0002 0024     		mov	r4, #0
1326:.\Generated_Source\PSoC4/CapSense_CSHL.c ****     uint8 numOfSensors = CapSense_numberOfSensors[widget] + rawIndex;
1327:.\Generated_Source\PSoC4/CapSense_CSHL.c ****    
1328:.\Generated_Source\PSoC4/CapSense_CSHL.c ****     /* Disable all sensors of widget */
1329:.\Generated_Source\PSoC4/CapSense_CSHL.c ****     do
1330:.\Generated_Source\PSoC4/CapSense_CSHL.c ****     {
1331:.\Generated_Source\PSoC4/CapSense_CSHL.c **** 
1332:.\Generated_Source\PSoC4/CapSense_CSHL.c ****         CapSense_SetBitValue(CapSense_sensorEnableMask, (uint32)rawIndex, 0u);
 968              		.loc 1 1332 0
 969 0004 054D     		ldr	r5, .L84
 970              	.LVL108:
 971              	.L82:
 972              		.loc 1 1332 0 is_stmt 0 discriminator 1
 973 0006 281C     		mov	r0, r5
 974 0008 211C     		mov	r1, r4
 975 000a 0022     		mov	r2, #0
 976 000c FFF7FEFF 		bl	CapSense_SetBitValue
 977              	.LVL109:
1333:.\Generated_Source\PSoC4/CapSense_CSHL.c ****         rawIndex++;
 978              		.loc 1 1333 0 is_stmt 1 discriminator 1
 979 0010 0134     		add	r4, r4, #1
 980              	.LVL110:
 981 0012 E4B2     		uxtb	r4, r4
 982              	.LVL111:
1334:.\Generated_Source\PSoC4/CapSense_CSHL.c ****     }
1335:.\Generated_Source\PSoC4/CapSense_CSHL.c ****     while(rawIndex < numOfSensors);
 983              		.loc 1 1335 0 discriminator 1
 984 0014 042C     		cmp	r4, #4
 985 0016 F6D9     		bls	.L82
1336:.\Generated_Source\PSoC4/CapSense_CSHL.c **** }
ARM GAS  C:\Users\ALEXAN~1\AppData\Local\Temp\cc9HWPtE.s 			page 42


 986              		.loc 1 1336 0
 987              		@ sp needed
 988              	.LVL112:
 989 0018 38BD     		pop	{r3, r4, r5, pc}
 990              	.L85:
 991 001a C046     		.align	2
 992              	.L84:
 993 001c 00000000 		.word	CapSense_sensorEnableMask
 994              		.cfi_endproc
 995              	.LFE55:
 996              		.size	CapSense_DisableWidget, .-CapSense_DisableWidget
 997              		.section	.text.CapSense_FindMaximum,"ax",%progbits
 998              		.align	2
 999              		.global	CapSense_FindMaximum
 1000              		.code	16
 1001              		.thumb_func
 1002              		.type	CapSense_FindMaximum, %function
 1003              	CapSense_FindMaximum:
 1004              	.LFB56:
1337:.\Generated_Source\PSoC4/CapSense_CSHL.c **** 
1338:.\Generated_Source\PSoC4/CapSense_CSHL.c **** 
1339:.\Generated_Source\PSoC4/CapSense_CSHL.c **** #if(CapSense_TOTAL_CENTROIDS_BASIC_COUNT)
1340:.\Generated_Source\PSoC4/CapSense_CSHL.c ****     /*******************************************************************************
1341:.\Generated_Source\PSoC4/CapSense_CSHL.c ****     * Function Name: CapSense_FindMaximum
1342:.\Generated_Source\PSoC4/CapSense_CSHL.c ****     ********************************************************************************
1343:.\Generated_Source\PSoC4/CapSense_CSHL.c ****     *
1344:.\Generated_Source\PSoC4/CapSense_CSHL.c ****     * Summary:
1345:.\Generated_Source\PSoC4/CapSense_CSHL.c ****     *  Finds the index of the maximum element within a defined centroid. Checks 
1346:.\Generated_Source\PSoC4/CapSense_CSHL.c ****     *  CapSense_sensorSignal[] within a defined centroid and 
1347:.\Generated_Source\PSoC4/CapSense_CSHL.c ****     *  returns the index of the maximum element. The values below the finger threshold are 
1348:.\Generated_Source\PSoC4/CapSense_CSHL.c ****     *  ignored.
1349:.\Generated_Source\PSoC4/CapSense_CSHL.c ****     *  The centroid is defined by offset of the first element and a number of elements - count.
1350:.\Generated_Source\PSoC4/CapSense_CSHL.c ****     *  The diplexed centroid requires at least two consecutive elements above
1351:.\Generated_Source\PSoC4/CapSense_CSHL.c ****     *  FingerThreshold to find the index of the maximum element.
1352:.\Generated_Source\PSoC4/CapSense_CSHL.c ****     * 
1353:.\Generated_Source\PSoC4/CapSense_CSHL.c ****     * Parameters:
1354:.\Generated_Source\PSoC4/CapSense_CSHL.c ****     *  offset:  Start index of centroid in CapSense_sensorSignal[] array.
1355:.\Generated_Source\PSoC4/CapSense_CSHL.c ****     *  count:   number of elements within centroid.
1356:.\Generated_Source\PSoC4/CapSense_CSHL.c ****     *  fingerThreshold:  Finger threshold.
1357:.\Generated_Source\PSoC4/CapSense_CSHL.c ****     *  diplex:   pointer to diplex table.
1358:.\Generated_Source\PSoC4/CapSense_CSHL.c ****     * 
1359:.\Generated_Source\PSoC4/CapSense_CSHL.c ****     * Return:
1360:.\Generated_Source\PSoC4/CapSense_CSHL.c ****     *  Returns the index of the maximum element within a defined centroid.
1361:.\Generated_Source\PSoC4/CapSense_CSHL.c ****     *  If the index of the maximum element isn't found it returns 0xFF.
1362:.\Generated_Source\PSoC4/CapSense_CSHL.c **** 	*
1363:.\Generated_Source\PSoC4/CapSense_CSHL.c **** 	* Global Variables:
1364:.\Generated_Source\PSoC4/CapSense_CSHL.c **** 	*  CapSense_startOfSlider[] - contains the index of the first slider element
1365:.\Generated_Source\PSoC4/CapSense_CSHL.c **** 	* 
1366:.\Generated_Source\PSoC4/CapSense_CSHL.c **** 	* Side Effects: 
1367:.\Generated_Source\PSoC4/CapSense_CSHL.c **** 	*  None
1368:.\Generated_Source\PSoC4/CapSense_CSHL.c **** 	* 
1369:.\Generated_Source\PSoC4/CapSense_CSHL.c ****     *******************************************************************************/
1370:.\Generated_Source\PSoC4/CapSense_CSHL.c **** 	#if (CapSense_IS_DIPLEX_SLIDER)
1371:.\Generated_Source\PSoC4/CapSense_CSHL.c **** 		uint8 CapSense_FindMaximum(uint8 offset, uint8 count, uint16 fingerThreshold, const uint8 *diplex
1372:.\Generated_Source\PSoC4/CapSense_CSHL.c **** 	#else 
1373:.\Generated_Source\PSoC4/CapSense_CSHL.c **** 		uint8 CapSense_FindMaximum(uint8 offset, uint8 count, uint16 fingerThreshold)
1374:.\Generated_Source\PSoC4/CapSense_CSHL.c **** 	#endif /* (CapSense_IS_DIPLEX_SLIDER) */
ARM GAS  C:\Users\ALEXAN~1\AppData\Local\Temp\cc9HWPtE.s 			page 43


1375:.\Generated_Source\PSoC4/CapSense_CSHL.c ****     {
 1005              		.loc 1 1375 0
 1006              		.cfi_startproc
 1007              	.LVL113:
 1008 0000 70B5     		push	{r4, r5, r6, lr}
 1009              		.cfi_def_cfa_offset 16
 1010              		.cfi_offset 4, -16
 1011              		.cfi_offset 5, -12
 1012              		.cfi_offset 6, -8
 1013              		.cfi_offset 14, -4
 1014              	.LVL114:
1376:.\Generated_Source\PSoC4/CapSense_CSHL.c ****         uint8 i;
1377:.\Generated_Source\PSoC4/CapSense_CSHL.c ****         #if (CapSense_IS_DIPLEX_SLIDER)        
1378:.\Generated_Source\PSoC4/CapSense_CSHL.c ****             uint8 curPos = 0u;
1379:.\Generated_Source\PSoC4/CapSense_CSHL.c ****             /* No centroid at Start */
1380:.\Generated_Source\PSoC4/CapSense_CSHL.c ****             uint8 curCntrdSize = 0u;
1381:.\Generated_Source\PSoC4/CapSense_CSHL.c ****             uint8 curCtrdStartPos = CapSense_MAXIMUM_CENTROID;
1382:.\Generated_Source\PSoC4/CapSense_CSHL.c ****             /* Biggest centroid is zero */
1383:.\Generated_Source\PSoC4/CapSense_CSHL.c ****             uint8 biggestCtrdSize = 0u;
1384:.\Generated_Source\PSoC4/CapSense_CSHL.c ****             uint8 biggestCtrdStartPos = 0u;
1385:.\Generated_Source\PSoC4/CapSense_CSHL.c ****         #endif /* (CapSense_IS_DIPLEX_SLIDER) */
1386:.\Generated_Source\PSoC4/CapSense_CSHL.c ****         uint8 maximum = CapSense_MAXIMUM_CENTROID;
1387:.\Generated_Source\PSoC4/CapSense_CSHL.c **** 		
1388:.\Generated_Source\PSoC4/CapSense_CSHL.c ****         uint16 temp = 0u;
1389:.\Generated_Source\PSoC4/CapSense_CSHL.c ****         uint16 *startOfSlider = &CapSense_sensorSignal[offset];
 1015              		.loc 1 1389 0
 1016 0002 4000     		lsl	r0, r0, #1
 1017              	.LVL115:
 1018 0004 094D     		ldr	r5, .L91
 1019 0006 1435     		add	r5, r5, #20
 1020 0008 2D18     		add	r5, r5, r0
 1021              	.LVL116:
1388:.\Generated_Source\PSoC4/CapSense_CSHL.c ****         uint16 temp = 0u;
 1022              		.loc 1 1388 0
 1023 000a 0026     		mov	r6, #0
1386:.\Generated_Source\PSoC4/CapSense_CSHL.c ****         uint8 maximum = CapSense_MAXIMUM_CENTROID;
 1024              		.loc 1 1386 0
 1025 000c FF20     		mov	r0, #255
1390:.\Generated_Source\PSoC4/CapSense_CSHL.c **** 
1391:.\Generated_Source\PSoC4/CapSense_CSHL.c ****         #if (CapSense_IS_DIPLEX_SLIDER)        
1392:.\Generated_Source\PSoC4/CapSense_CSHL.c ****             if(diplex != 0u)
1393:.\Generated_Source\PSoC4/CapSense_CSHL.c ****             {
1394:.\Generated_Source\PSoC4/CapSense_CSHL.c ****                 /* Initialize */
1395:.\Generated_Source\PSoC4/CapSense_CSHL.c ****                 i = 0u;
1396:.\Generated_Source\PSoC4/CapSense_CSHL.c ****                 
1397:.\Generated_Source\PSoC4/CapSense_CSHL.c ****                 /* Make slider x2 as Diplexed */
1398:.\Generated_Source\PSoC4/CapSense_CSHL.c ****                 count <<= 1u;
1399:.\Generated_Source\PSoC4/CapSense_CSHL.c ****                 while(1u)
1400:.\Generated_Source\PSoC4/CapSense_CSHL.c ****                 { 
1401:.\Generated_Source\PSoC4/CapSense_CSHL.c ****                     if (startOfSlider[curPos] > 0u)    /* Looking for centroids */
1402:.\Generated_Source\PSoC4/CapSense_CSHL.c ****                     {
1403:.\Generated_Source\PSoC4/CapSense_CSHL.c ****                         if (curCtrdStartPos == CapSense_MAXIMUM_CENTROID)
1404:.\Generated_Source\PSoC4/CapSense_CSHL.c ****                         {
1405:.\Generated_Source\PSoC4/CapSense_CSHL.c ****                             /* Start of centroid */
1406:.\Generated_Source\PSoC4/CapSense_CSHL.c ****                             curCtrdStartPos = i;
1407:.\Generated_Source\PSoC4/CapSense_CSHL.c ****                             curCntrdSize++;
1408:.\Generated_Source\PSoC4/CapSense_CSHL.c ****                         }
ARM GAS  C:\Users\ALEXAN~1\AppData\Local\Temp\cc9HWPtE.s 			page 44


1409:.\Generated_Source\PSoC4/CapSense_CSHL.c ****                         else
1410:.\Generated_Source\PSoC4/CapSense_CSHL.c ****                         {
1411:.\Generated_Source\PSoC4/CapSense_CSHL.c ****                             curCntrdSize++;
1412:.\Generated_Source\PSoC4/CapSense_CSHL.c ****                         }
1413:.\Generated_Source\PSoC4/CapSense_CSHL.c ****                     }
1414:.\Generated_Source\PSoC4/CapSense_CSHL.c ****                     else   /* Select biggest and indicate zero start */
1415:.\Generated_Source\PSoC4/CapSense_CSHL.c ****                     {          
1416:.\Generated_Source\PSoC4/CapSense_CSHL.c ****                         if(curCntrdSize > 0u)
1417:.\Generated_Source\PSoC4/CapSense_CSHL.c ****                         {
1418:.\Generated_Source\PSoC4/CapSense_CSHL.c ****                             /* We are at the end of current */
1419:.\Generated_Source\PSoC4/CapSense_CSHL.c ****                             if(curCntrdSize > biggestCtrdSize)
1420:.\Generated_Source\PSoC4/CapSense_CSHL.c ****                             {
1421:.\Generated_Source\PSoC4/CapSense_CSHL.c ****                                 biggestCtrdSize = curCntrdSize;
1422:.\Generated_Source\PSoC4/CapSense_CSHL.c ****                                 biggestCtrdStartPos = curCtrdStartPos;
1423:.\Generated_Source\PSoC4/CapSense_CSHL.c ****                             }
1424:.\Generated_Source\PSoC4/CapSense_CSHL.c ****                             
1425:.\Generated_Source\PSoC4/CapSense_CSHL.c ****                             curCntrdSize = 0u;
1426:.\Generated_Source\PSoC4/CapSense_CSHL.c ****                             curCtrdStartPos = CapSense_MAXIMUM_CENTROID;
1427:.\Generated_Source\PSoC4/CapSense_CSHL.c ****                         }
1428:.\Generated_Source\PSoC4/CapSense_CSHL.c ****                     }
1429:.\Generated_Source\PSoC4/CapSense_CSHL.c ****                     
1430:.\Generated_Source\PSoC4/CapSense_CSHL.c ****                     i++; 
1431:.\Generated_Source\PSoC4/CapSense_CSHL.c ****                     curPos = diplex[i];
1432:.\Generated_Source\PSoC4/CapSense_CSHL.c ****                     if(i == count)
1433:.\Generated_Source\PSoC4/CapSense_CSHL.c ****                     {
1434:.\Generated_Source\PSoC4/CapSense_CSHL.c ****                         break;
1435:.\Generated_Source\PSoC4/CapSense_CSHL.c ****                     }            
1436:.\Generated_Source\PSoC4/CapSense_CSHL.c ****                 }
1437:.\Generated_Source\PSoC4/CapSense_CSHL.c ****                     
1438:.\Generated_Source\PSoC4/CapSense_CSHL.c ****                     /* Find biggest centroid if two are same size, last one wins
1439:.\Generated_Source\PSoC4/CapSense_CSHL.c ****                        We are at the end of current */
1440:.\Generated_Source\PSoC4/CapSense_CSHL.c ****                 if (curCntrdSize >= biggestCtrdSize) 
1441:.\Generated_Source\PSoC4/CapSense_CSHL.c ****                 {
1442:.\Generated_Source\PSoC4/CapSense_CSHL.c ****                     biggestCtrdSize = curCntrdSize;
1443:.\Generated_Source\PSoC4/CapSense_CSHL.c ****                     biggestCtrdStartPos = curCtrdStartPos;
1444:.\Generated_Source\PSoC4/CapSense_CSHL.c ****                 }
1445:.\Generated_Source\PSoC4/CapSense_CSHL.c ****             }
1446:.\Generated_Source\PSoC4/CapSense_CSHL.c ****             else
1447:.\Generated_Source\PSoC4/CapSense_CSHL.c ****             {
1448:.\Generated_Source\PSoC4/CapSense_CSHL.c ****                 /* Without diplexing */ 
1449:.\Generated_Source\PSoC4/CapSense_CSHL.c ****                 biggestCtrdSize = count;
1450:.\Generated_Source\PSoC4/CapSense_CSHL.c ****             }
1451:.\Generated_Source\PSoC4/CapSense_CSHL.c ****                         
1452:.\Generated_Source\PSoC4/CapSense_CSHL.c **** 
1453:.\Generated_Source\PSoC4/CapSense_CSHL.c ****             /* Check centroid size */
1454:.\Generated_Source\PSoC4/CapSense_CSHL.c ****             #if (CapSense_IS_NON_DIPLEX_SLIDER)
1455:.\Generated_Source\PSoC4/CapSense_CSHL.c ****                 if((biggestCtrdSize >= 2u) || ((biggestCtrdSize == 1u) && (diplex == 0u)))
1456:.\Generated_Source\PSoC4/CapSense_CSHL.c ****             #else                    
1457:.\Generated_Source\PSoC4/CapSense_CSHL.c ****                 if(biggestCtrdSize >= 2u)
1458:.\Generated_Source\PSoC4/CapSense_CSHL.c ****             #endif /* (CapSense_IS_NON_DIPLEX_SLIDER) */
1459:.\Generated_Source\PSoC4/CapSense_CSHL.c ****                 {
1460:.\Generated_Source\PSoC4/CapSense_CSHL.c ****                     for (i = biggestCtrdStartPos; i < (biggestCtrdStartPos + biggestCtrdSize); i++)
1461:.\Generated_Source\PSoC4/CapSense_CSHL.c ****                     {
1462:.\Generated_Source\PSoC4/CapSense_CSHL.c ****                         #if (CapSense_IS_DIPLEX_SLIDER && CapSense_IS_NON_DIPLEX_SLIDER)
1463:.\Generated_Source\PSoC4/CapSense_CSHL.c ****                             if (diplex == 0u)
1464:.\Generated_Source\PSoC4/CapSense_CSHL.c ****                             {
1465:.\Generated_Source\PSoC4/CapSense_CSHL.c ****                                 curPos = i;
ARM GAS  C:\Users\ALEXAN~1\AppData\Local\Temp\cc9HWPtE.s 			page 45


1466:.\Generated_Source\PSoC4/CapSense_CSHL.c ****                             }
1467:.\Generated_Source\PSoC4/CapSense_CSHL.c ****                             else
1468:.\Generated_Source\PSoC4/CapSense_CSHL.c ****                             {
1469:.\Generated_Source\PSoC4/CapSense_CSHL.c ****                                 curPos = diplex[i];
1470:.\Generated_Source\PSoC4/CapSense_CSHL.c ****                             }                    
1471:.\Generated_Source\PSoC4/CapSense_CSHL.c ****                         #elif (CapSense_IS_DIPLEX_SLIDER)                    
1472:.\Generated_Source\PSoC4/CapSense_CSHL.c ****                             curPos = diplex[i];                    
1473:.\Generated_Source\PSoC4/CapSense_CSHL.c ****                         #endif /* (CapSense_IS_DIPLEX_SLIDER && CapSense_IS_NON_DIPLEX_SLIDER) */
1474:.\Generated_Source\PSoC4/CapSense_CSHL.c ****                         /* Looking for greater element within centroid */
1475:.\Generated_Source\PSoC4/CapSense_CSHL.c ****                         if(startOfSlider[curPos] > fingerThreshold)
1476:.\Generated_Source\PSoC4/CapSense_CSHL.c ****                         {
1477:.\Generated_Source\PSoC4/CapSense_CSHL.c ****                             if(startOfSlider[curPos] > temp)
1478:.\Generated_Source\PSoC4/CapSense_CSHL.c ****                             {
1479:.\Generated_Source\PSoC4/CapSense_CSHL.c ****                                 maximum = i;
1480:.\Generated_Source\PSoC4/CapSense_CSHL.c ****                                 temp = startOfSlider[curPos];
1481:.\Generated_Source\PSoC4/CapSense_CSHL.c ****                             }
1482:.\Generated_Source\PSoC4/CapSense_CSHL.c ****                         }
1483:.\Generated_Source\PSoC4/CapSense_CSHL.c ****                     }
1484:.\Generated_Source\PSoC4/CapSense_CSHL.c ****                 } 
1485:.\Generated_Source\PSoC4/CapSense_CSHL.c ****         #else
1486:.\Generated_Source\PSoC4/CapSense_CSHL.c ****             for (i = 0u; i < count; i++)
 1026              		.loc 1 1486 0
 1027 000e 0023     		mov	r3, #0
 1028 0010 09E0     		b	.L87
 1029              	.LVL117:
 1030              	.L89:
1487:.\Generated_Source\PSoC4/CapSense_CSHL.c ****             {                      
1488:.\Generated_Source\PSoC4/CapSense_CSHL.c ****                 /* Looking for greater element within centroid */
1489:.\Generated_Source\PSoC4/CapSense_CSHL.c ****                 if(startOfSlider[i] > fingerThreshold)
 1031              		.loc 1 1489 0
 1032 0012 5C00     		lsl	r4, r3, #1
 1033 0014 645B     		ldrh	r4, [r4, r5]
 1034 0016 9442     		cmp	r4, r2
 1035 0018 03D9     		bls	.L88
1490:.\Generated_Source\PSoC4/CapSense_CSHL.c ****                 {
1491:.\Generated_Source\PSoC4/CapSense_CSHL.c ****                     if(startOfSlider[i] > temp)
 1036              		.loc 1 1491 0
 1037 001a A642     		cmp	r6, r4
 1038 001c 01D2     		bcs	.L88
1492:.\Generated_Source\PSoC4/CapSense_CSHL.c ****                     {
1493:.\Generated_Source\PSoC4/CapSense_CSHL.c ****                         maximum = i;
1494:.\Generated_Source\PSoC4/CapSense_CSHL.c ****                         temp = startOfSlider[i];
 1039              		.loc 1 1494 0
 1040 001e 261C     		mov	r6, r4
 1041              	.LVL118:
1493:.\Generated_Source\PSoC4/CapSense_CSHL.c ****                         maximum = i;
 1042              		.loc 1 1493 0
 1043 0020 181C     		mov	r0, r3
 1044              	.LVL119:
 1045              	.L88:
1486:.\Generated_Source\PSoC4/CapSense_CSHL.c ****             for (i = 0u; i < count; i++)
 1046              		.loc 1 1486 0
 1047 0022 0133     		add	r3, r3, #1
 1048              	.LVL120:
 1049 0024 DBB2     		uxtb	r3, r3
 1050              	.LVL121:
 1051              	.L87:
ARM GAS  C:\Users\ALEXAN~1\AppData\Local\Temp\cc9HWPtE.s 			page 46


1486:.\Generated_Source\PSoC4/CapSense_CSHL.c ****             for (i = 0u; i < count; i++)
 1052              		.loc 1 1486 0 is_stmt 0 discriminator 1
 1053 0026 8B42     		cmp	r3, r1
 1054 0028 F3D3     		bcc	.L89
1495:.\Generated_Source\PSoC4/CapSense_CSHL.c ****                     }
1496:.\Generated_Source\PSoC4/CapSense_CSHL.c ****                 }
1497:.\Generated_Source\PSoC4/CapSense_CSHL.c ****             }    
1498:.\Generated_Source\PSoC4/CapSense_CSHL.c ****         #endif /* (CapSense_IS_DIPLEX_SLIDER) */
1499:.\Generated_Source\PSoC4/CapSense_CSHL.c ****         return (maximum);
1500:.\Generated_Source\PSoC4/CapSense_CSHL.c ****     }
 1055              		.loc 1 1500 0 is_stmt 1
 1056              		@ sp needed
 1057              	.LVL122:
 1058              	.LVL123:
 1059 002a 70BD     		pop	{r4, r5, r6, pc}
 1060              	.L92:
 1061              		.align	2
 1062              	.L91:
 1063 002c 00000000 		.word	.LANCHOR0
 1064              		.cfi_endproc
 1065              	.LFE56:
 1066              		.size	CapSense_FindMaximum, .-CapSense_FindMaximum
 1067              		.global	__aeabi_idiv
 1068              		.section	.text.CapSense_CalcCentroid,"ax",%progbits
 1069              		.align	2
 1070              		.global	CapSense_CalcCentroid
 1071              		.code	16
 1072              		.thumb_func
 1073              		.type	CapSense_CalcCentroid, %function
 1074              	CapSense_CalcCentroid:
 1075              	.LFB57:
1501:.\Generated_Source\PSoC4/CapSense_CSHL.c ****     
1502:.\Generated_Source\PSoC4/CapSense_CSHL.c ****     
1503:.\Generated_Source\PSoC4/CapSense_CSHL.c ****     /*******************************************************************************
1504:.\Generated_Source\PSoC4/CapSense_CSHL.c ****     * Function Name: CapSense_CalcCentroid
1505:.\Generated_Source\PSoC4/CapSense_CSHL.c ****     ********************************************************************************
1506:.\Generated_Source\PSoC4/CapSense_CSHL.c ****     *
1507:.\Generated_Source\PSoC4/CapSense_CSHL.c ****     * Summary:
1508:.\Generated_Source\PSoC4/CapSense_CSHL.c ****     *  Returns a position value calculated according to the index of the maximum element and API
1509:.\Generated_Source\PSoC4/CapSense_CSHL.c ****     *  resolution.
1510:.\Generated_Source\PSoC4/CapSense_CSHL.c ****     *
1511:.\Generated_Source\PSoC4/CapSense_CSHL.c ****     * Parameters:
1512:.\Generated_Source\PSoC4/CapSense_CSHL.c ****     *  type:  widget type.
1513:.\Generated_Source\PSoC4/CapSense_CSHL.c ****     *  diplex:  pointer to diplex table.
1514:.\Generated_Source\PSoC4/CapSense_CSHL.c ****     *  maximum:  Index of maximum element within centroid.
1515:.\Generated_Source\PSoC4/CapSense_CSHL.c ****     *  offset:   Start index of centroid in CapSense_sensorSignal[] array.
1516:.\Generated_Source\PSoC4/CapSense_CSHL.c ****     *  count:    Number of elements within centroid.
1517:.\Generated_Source\PSoC4/CapSense_CSHL.c ****     *  resolution:  multiplicator calculated according to centroid type and
1518:.\Generated_Source\PSoC4/CapSense_CSHL.c ****     *  API resolution.
1519:.\Generated_Source\PSoC4/CapSense_CSHL.c ****     *  noiseThreshold:  Noise threshold.
1520:.\Generated_Source\PSoC4/CapSense_CSHL.c ****     * 
1521:.\Generated_Source\PSoC4/CapSense_CSHL.c ****     * Return:
1522:.\Generated_Source\PSoC4/CapSense_CSHL.c ****     *  Returns a position value of the slider.
1523:.\Generated_Source\PSoC4/CapSense_CSHL.c **** 	*
1524:.\Generated_Source\PSoC4/CapSense_CSHL.c **** 	* Side Effects: 
1525:.\Generated_Source\PSoC4/CapSense_CSHL.c **** 	*  None
1526:.\Generated_Source\PSoC4/CapSense_CSHL.c **** 	* 
ARM GAS  C:\Users\ALEXAN~1\AppData\Local\Temp\cc9HWPtE.s 			page 47


1527:.\Generated_Source\PSoC4/CapSense_CSHL.c ****     *******************************************************************************/
1528:.\Generated_Source\PSoC4/CapSense_CSHL.c **** #if (CapSense_TOTAL_TRACKPAD_GESTURES_COUNT > 0u)
1529:.\Generated_Source\PSoC4/CapSense_CSHL.c ****     uint8 CapSense_CalcCentroid(uint8 maximum, uint8 offset, 
1530:.\Generated_Source\PSoC4/CapSense_CSHL.c ****                                         uint8 count, uint32 resolution, uint16 noiseThreshold)
1531:.\Generated_Source\PSoC4/CapSense_CSHL.c **** #else								
1532:.\Generated_Source\PSoC4/CapSense_CSHL.c ****     uint8 CapSense_CalcCentroid(uint8 maximum, uint8 offset, 
1533:.\Generated_Source\PSoC4/CapSense_CSHL.c ****                                         uint8 count, uint16 resolution, uint16 noiseThreshold)					
1534:.\Generated_Source\PSoC4/CapSense_CSHL.c **** #endif /* (CapSense_TOTAL_TRACKPAD_GESTURES_COUNT > 0u) */
1535:.\Generated_Source\PSoC4/CapSense_CSHL.c ****     {
 1076              		.loc 1 1535 0
 1077              		.cfi_startproc
 1078              	.LVL124:
 1079 0000 F0B5     		push	{r4, r5, r6, r7, lr}
 1080              		.cfi_def_cfa_offset 20
 1081              		.cfi_offset 4, -20
 1082              		.cfi_offset 5, -16
 1083              		.cfi_offset 6, -12
 1084              		.cfi_offset 7, -8
 1085              		.cfi_offset 14, -4
 1086 0002 4746     		mov	r7, r8
 1087 0004 80B4     		push	{r7}
 1088              		.cfi_def_cfa_offset 24
 1089              		.cfi_offset 8, -24
 1090 0006 041C     		mov	r4, r0
 1091 0008 1E1C     		mov	r6, r3
 1092 000a 06AB     		add	r3, sp, #24
 1093              	.LVL125:
 1094 000c 1888     		ldrh	r0, [r3]
 1095              	.LVL126:
1536:.\Generated_Source\PSoC4/CapSense_CSHL.c ****         #if ((CapSense_TOTAL_LINEAR_SLIDERS_COUNT > 0u) || (CapSense_TOTAL_TOUCH_PADS_BASIC_COUNT >
1537:.\Generated_Source\PSoC4/CapSense_CSHL.c ****             uint8 posPrev;
1538:.\Generated_Source\PSoC4/CapSense_CSHL.c ****             uint8 posNext;
1539:.\Generated_Source\PSoC4/CapSense_CSHL.c ****         #endif /* ((CapSense_TOTAL_LINEAR_SLIDERS_COUNT>0u) || (CapSense_TOTAL_TOUCH_PADS_BASIC_COU
1540:.\Generated_Source\PSoC4/CapSense_CSHL.c ****         
1541:.\Generated_Source\PSoC4/CapSense_CSHL.c ****         /* Helps during centroid calculation */
1542:.\Generated_Source\PSoC4/CapSense_CSHL.c ****         #if (CapSense_TOTAL_CENTROIDS_BASIC_COUNT)
1543:.\Generated_Source\PSoC4/CapSense_CSHL.c **** 		    static uint16 CapSense_centroid[3u];
1544:.\Generated_Source\PSoC4/CapSense_CSHL.c ****         #endif  /* (CapSense_TOTAL_CENTROIDS_BASIC_COUNT) */
1545:.\Generated_Source\PSoC4/CapSense_CSHL.c ****                
1546:.\Generated_Source\PSoC4/CapSense_CSHL.c ****         #if (CapSense_IS_DIPLEX_SLIDER)                
1547:.\Generated_Source\PSoC4/CapSense_CSHL.c ****             uint8 pos;
1548:.\Generated_Source\PSoC4/CapSense_CSHL.c ****         #endif /* (CapSense_IS_DIPLEX_SLIDER) */
1549:.\Generated_Source\PSoC4/CapSense_CSHL.c **** 
1550:.\Generated_Source\PSoC4/CapSense_CSHL.c ****         uint8 position;
1551:.\Generated_Source\PSoC4/CapSense_CSHL.c ****         uint32 numerator;
1552:.\Generated_Source\PSoC4/CapSense_CSHL.c ****         int32 denominator;
1553:.\Generated_Source\PSoC4/CapSense_CSHL.c **** 		
1554:.\Generated_Source\PSoC4/CapSense_CSHL.c **** 		uint16  *startOfSlider = &CapSense_sensorSignal[offset];
 1096              		.loc 1 1554 0
 1097 000e 4900     		lsl	r1, r1, #1
 1098              	.LVL127:
 1099 0010 2E4B     		ldr	r3, .L103
 1100              	.LVL128:
 1101 0012 1433     		add	r3, r3, #20
 1102 0014 5918     		add	r1, r3, r1
 1103              	.LVL129:
1555:.\Generated_Source\PSoC4/CapSense_CSHL.c **** 		
ARM GAS  C:\Users\ALEXAN~1\AppData\Local\Temp\cc9HWPtE.s 			page 48


1556:.\Generated_Source\PSoC4/CapSense_CSHL.c ****         #if ((CapSense_TOTAL_LINEAR_SLIDERS_COUNT > 0u) || (CapSense_TOTAL_TOUCH_PADS_BASIC_COUNT >
1557:.\Generated_Source\PSoC4/CapSense_CSHL.c ****             posPrev = 0u;
1558:.\Generated_Source\PSoC4/CapSense_CSHL.c ****         #endif /* ((CapSense_TOTAL_LINEAR_SLIDERS_COUNT>0u) || (CapSense_TOTAL_TOUCH_PADS_BASIC_COU
1559:.\Generated_Source\PSoC4/CapSense_CSHL.c ****      
1560:.\Generated_Source\PSoC4/CapSense_CSHL.c ****         #if (CapSense_ADD_SLIDER_TYPE)
1561:.\Generated_Source\PSoC4/CapSense_CSHL.c ****             if(type == CapSense_TYPE_RADIAL_SLIDER)
1562:.\Generated_Source\PSoC4/CapSense_CSHL.c ****             {
1563:.\Generated_Source\PSoC4/CapSense_CSHL.c ****         #endif /* (CapSense_ADD_SLIDER_TYPE) */
1564:.\Generated_Source\PSoC4/CapSense_CSHL.c **** 
1565:.\Generated_Source\PSoC4/CapSense_CSHL.c ****             #if (CapSense_TOTAL_RADIAL_SLIDERS_COUNT > 0u)                
1566:.\Generated_Source\PSoC4/CapSense_CSHL.c ****                 /* Copy Signal to the centroid array */
1567:.\Generated_Source\PSoC4/CapSense_CSHL.c ****                 CapSense_centroid[CapSense_POS] = startOfSlider[maximum];
1568:.\Generated_Source\PSoC4/CapSense_CSHL.c ****                  
1569:.\Generated_Source\PSoC4/CapSense_CSHL.c ****                 /* Check borders for ROTARY Slider */
1570:.\Generated_Source\PSoC4/CapSense_CSHL.c ****                 if (maximum == 0u)                   /* Start of centroid */
1571:.\Generated_Source\PSoC4/CapSense_CSHL.c ****                 { 
1572:.\Generated_Source\PSoC4/CapSense_CSHL.c ****                     CapSense_centroid[CapSense_POS_PREV] = startOfSlider[count - 1u];
1573:.\Generated_Source\PSoC4/CapSense_CSHL.c ****                     CapSense_centroid[CapSense_POS_NEXT] = startOfSlider[1u];
1574:.\Generated_Source\PSoC4/CapSense_CSHL.c ****                 }
1575:.\Generated_Source\PSoC4/CapSense_CSHL.c ****                 else if (maximum == (count - 1u))    /* End of centroid */
1576:.\Generated_Source\PSoC4/CapSense_CSHL.c ****                 {
1577:.\Generated_Source\PSoC4/CapSense_CSHL.c ****                     CapSense_centroid[CapSense_POS_PREV] = startOfSlider[maximum - 1u];
1578:.\Generated_Source\PSoC4/CapSense_CSHL.c ****                     CapSense_centroid[CapSense_POS_NEXT] = startOfSlider[0u];
1579:.\Generated_Source\PSoC4/CapSense_CSHL.c ****                 }
1580:.\Generated_Source\PSoC4/CapSense_CSHL.c ****                 else                                /* Not first Not last */
1581:.\Generated_Source\PSoC4/CapSense_CSHL.c ****                 {
1582:.\Generated_Source\PSoC4/CapSense_CSHL.c ****                     CapSense_centroid[CapSense_POS_PREV] = startOfSlider[maximum - 1u];
1583:.\Generated_Source\PSoC4/CapSense_CSHL.c ****                     CapSense_centroid[CapSense_POS_NEXT] = startOfSlider[maximum + 1u];
1584:.\Generated_Source\PSoC4/CapSense_CSHL.c ****                 }
1585:.\Generated_Source\PSoC4/CapSense_CSHL.c ****             #endif /* (CapSense_TOTAL_RADIAL_SLIDERS_COUNT > 0u) */
1586:.\Generated_Source\PSoC4/CapSense_CSHL.c **** 
1587:.\Generated_Source\PSoC4/CapSense_CSHL.c ****         #if (CapSense_ADD_SLIDER_TYPE)
1588:.\Generated_Source\PSoC4/CapSense_CSHL.c ****             }
1589:.\Generated_Source\PSoC4/CapSense_CSHL.c ****             else
1590:.\Generated_Source\PSoC4/CapSense_CSHL.c ****             {
1591:.\Generated_Source\PSoC4/CapSense_CSHL.c ****         #endif /* (CapSense_ADD_SLIDER_TYPE) */
1592:.\Generated_Source\PSoC4/CapSense_CSHL.c **** 
1593:.\Generated_Source\PSoC4/CapSense_CSHL.c ****             #if ((CapSense_TOTAL_LINEAR_SLIDERS_COUNT > 0u) || (CapSense_TOTAL_TOUCH_PADS_BASIC_COU
1594:.\Generated_Source\PSoC4/CapSense_CSHL.c ****                 #if (CapSense_IS_DIPLEX_SLIDER && CapSense_IS_NON_DIPLEX_SLIDER)                   
1595:.\Generated_Source\PSoC4/CapSense_CSHL.c ****                     /* Calculate next and previous near to maximum */
1596:.\Generated_Source\PSoC4/CapSense_CSHL.c ****                     if(diplex == 0u)
1597:.\Generated_Source\PSoC4/CapSense_CSHL.c ****                     {
1598:.\Generated_Source\PSoC4/CapSense_CSHL.c ****                         pos     = maximum;
1599:.\Generated_Source\PSoC4/CapSense_CSHL.c ****                         posPrev = maximum - 1u;
1600:.\Generated_Source\PSoC4/CapSense_CSHL.c ****                         posNext = maximum + 1u; 
1601:.\Generated_Source\PSoC4/CapSense_CSHL.c ****                     }
1602:.\Generated_Source\PSoC4/CapSense_CSHL.c ****                     else
1603:.\Generated_Source\PSoC4/CapSense_CSHL.c ****                     {
1604:.\Generated_Source\PSoC4/CapSense_CSHL.c ****                         pos     = diplex[maximum];
1605:.\Generated_Source\PSoC4/CapSense_CSHL.c ****                         posPrev = diplex[maximum - 1u];
1606:.\Generated_Source\PSoC4/CapSense_CSHL.c ****                         posNext = diplex[maximum + 1u];
1607:.\Generated_Source\PSoC4/CapSense_CSHL.c ****                         count <<= 1u;
1608:.\Generated_Source\PSoC4/CapSense_CSHL.c ****                     }                    
1609:.\Generated_Source\PSoC4/CapSense_CSHL.c ****                 #elif (CapSense_IS_DIPLEX_SLIDER)
1610:.\Generated_Source\PSoC4/CapSense_CSHL.c ****                     /* Calculate next and previous near to maximum */
1611:.\Generated_Source\PSoC4/CapSense_CSHL.c ****                     pos     = diplex[maximum];
1612:.\Generated_Source\PSoC4/CapSense_CSHL.c ****                     posPrev = diplex[maximum - 1u];
ARM GAS  C:\Users\ALEXAN~1\AppData\Local\Temp\cc9HWPtE.s 			page 49


1613:.\Generated_Source\PSoC4/CapSense_CSHL.c ****                     posNext = diplex[maximum + 1u];
1614:.\Generated_Source\PSoC4/CapSense_CSHL.c ****                     count <<= 1u;                    
1615:.\Generated_Source\PSoC4/CapSense_CSHL.c ****                 #else                    
1616:.\Generated_Source\PSoC4/CapSense_CSHL.c ****                     /* Calculate next and previous near to maximum */
1617:.\Generated_Source\PSoC4/CapSense_CSHL.c ****                     if (maximum >= 1u)
 1104              		.loc 1 1617 0
 1105 0016 002C     		cmp	r4, #0
 1106 0018 03D0     		beq	.L102
1618:.\Generated_Source\PSoC4/CapSense_CSHL.c ****                     {
1619:.\Generated_Source\PSoC4/CapSense_CSHL.c ****                         posPrev = maximum - 1u;
 1107              		.loc 1 1619 0
 1108 001a 631E     		sub	r3, r4, #1
 1109 001c DBB2     		uxtb	r3, r3
 1110 001e 9846     		mov	r8, r3
 1111              	.LVL130:
 1112 0020 01E0     		b	.L94
 1113              	.LVL131:
 1114              	.L102:
1557:.\Generated_Source\PSoC4/CapSense_CSHL.c ****             posPrev = 0u;
 1115              		.loc 1 1557 0
 1116 0022 0023     		mov	r3, #0
 1117 0024 9846     		mov	r8, r3
 1118              	.LVL132:
 1119              	.L94:
1620:.\Generated_Source\PSoC4/CapSense_CSHL.c ****                     }
1621:.\Generated_Source\PSoC4/CapSense_CSHL.c ****                     posNext = maximum + 1u;
 1120              		.loc 1 1621 0
 1121 0026 631C     		add	r3, r4, #1
 1122 0028 DBB2     		uxtb	r3, r3
 1123 002a 9C46     		mov	ip, r3
 1124              	.LVL133:
1622:.\Generated_Source\PSoC4/CapSense_CSHL.c ****                 #endif /* (CapSense_IS_DIPLEX_SLIDER && CapSense_IS_NON_DIPLEX_SLIDER) */
1623:.\Generated_Source\PSoC4/CapSense_CSHL.c ****                         
1624:.\Generated_Source\PSoC4/CapSense_CSHL.c ****                 /* Copy Signal to the centroid array */
1625:.\Generated_Source\PSoC4/CapSense_CSHL.c ****                 #if (CapSense_IS_DIPLEX_SLIDER)
1626:.\Generated_Source\PSoC4/CapSense_CSHL.c ****                     CapSense_centroid[CapSense_POS] = startOfSlider[pos];
1627:.\Generated_Source\PSoC4/CapSense_CSHL.c ****                 #else
1628:.\Generated_Source\PSoC4/CapSense_CSHL.c ****                     CapSense_centroid[CapSense_POS] = startOfSlider[maximum];
 1125              		.loc 1 1628 0
 1126 002c 6500     		lsl	r5, r4, #1
 1127 002e 6F5A     		ldrh	r7, [r5, r1]
 1128 0030 264D     		ldr	r5, .L103
 1129 0032 6F85     		strh	r7, [r5, #42]
1629:.\Generated_Source\PSoC4/CapSense_CSHL.c ****                 #endif /* (CapSense_IS_DIPLEX_SLIDER) */
1630:.\Generated_Source\PSoC4/CapSense_CSHL.c ****                     
1631:.\Generated_Source\PSoC4/CapSense_CSHL.c ****                 /* Check borders for LINEAR Slider */
1632:.\Generated_Source\PSoC4/CapSense_CSHL.c ****                 if (maximum == 0u)                   /* Start of centroid */
 1130              		.loc 1 1632 0
 1131 0034 002C     		cmp	r4, #0
 1132 0036 06D1     		bne	.L95
1633:.\Generated_Source\PSoC4/CapSense_CSHL.c ****                 { 
1634:.\Generated_Source\PSoC4/CapSense_CSHL.c ****                     CapSense_centroid[CapSense_POS_PREV] = 0u;
 1133              		.loc 1 1634 0
 1134 0038 2A1C     		mov	r2, r5
 1135              	.LVL134:
 1136 003a 1485     		strh	r4, [r2, #40]
1635:.\Generated_Source\PSoC4/CapSense_CSHL.c ****                     CapSense_centroid[CapSense_POS_NEXT] = startOfSlider[posNext];
ARM GAS  C:\Users\ALEXAN~1\AppData\Local\Temp\cc9HWPtE.s 			page 50


 1137              		.loc 1 1635 0
 1138 003c 6546     		mov	r5, ip
 1139 003e 6B00     		lsl	r3, r5, #1
 1140              	.LVL135:
 1141 0040 5B5A     		ldrh	r3, [r3, r1]
 1142 0042 9385     		strh	r3, [r2, #44]
 1143 0044 13E0     		b	.L96
 1144              	.LVL136:
 1145              	.L95:
1636:.\Generated_Source\PSoC4/CapSense_CSHL.c ****                 }
1637:.\Generated_Source\PSoC4/CapSense_CSHL.c ****                 else if (maximum == ((count) - 1u)) /* End of centroid */
 1146              		.loc 1 1637 0
 1147 0046 013A     		sub	r2, r2, #1
 1148              	.LVL137:
 1149 0048 9442     		cmp	r4, r2
 1150 004a 07D1     		bne	.L97
1638:.\Generated_Source\PSoC4/CapSense_CSHL.c ****                 {
1639:.\Generated_Source\PSoC4/CapSense_CSHL.c ****                     CapSense_centroid[CapSense_POS_PREV] = startOfSlider[posPrev];
 1151              		.loc 1 1639 0
 1152 004c 4246     		mov	r2, r8
 1153 004e 5300     		lsl	r3, r2, #1
 1154              	.LVL138:
 1155 0050 5A5A     		ldrh	r2, [r3, r1]
 1156 0052 1E4B     		ldr	r3, .L103
 1157 0054 1A85     		strh	r2, [r3, #40]
1640:.\Generated_Source\PSoC4/CapSense_CSHL.c ****                     CapSense_centroid[CapSense_POS_NEXT] = 0u;
 1158              		.loc 1 1640 0
 1159 0056 0022     		mov	r2, #0
 1160 0058 9A85     		strh	r2, [r3, #44]
 1161 005a 08E0     		b	.L96
 1162              	.LVL139:
 1163              	.L97:
1641:.\Generated_Source\PSoC4/CapSense_CSHL.c ****                 }
1642:.\Generated_Source\PSoC4/CapSense_CSHL.c ****                 else                                /* Not first Not last */
1643:.\Generated_Source\PSoC4/CapSense_CSHL.c ****                 {
1644:.\Generated_Source\PSoC4/CapSense_CSHL.c ****                     CapSense_centroid[CapSense_POS_PREV] = startOfSlider[posPrev];
 1164              		.loc 1 1644 0
 1165 005c 4546     		mov	r5, r8
 1166 005e 6B00     		lsl	r3, r5, #1
 1167              	.LVL140:
 1168 0060 5B5A     		ldrh	r3, [r3, r1]
 1169 0062 1A4A     		ldr	r2, .L103
 1170 0064 1385     		strh	r3, [r2, #40]
1645:.\Generated_Source\PSoC4/CapSense_CSHL.c ****                     CapSense_centroid[CapSense_POS_NEXT] = startOfSlider[posNext];
 1171              		.loc 1 1645 0
 1172 0066 6546     		mov	r5, ip
 1173 0068 6B00     		lsl	r3, r5, #1
 1174 006a 5B5A     		ldrh	r3, [r3, r1]
 1175 006c 9385     		strh	r3, [r2, #44]
 1176              	.L96:
1646:.\Generated_Source\PSoC4/CapSense_CSHL.c ****                 }
1647:.\Generated_Source\PSoC4/CapSense_CSHL.c ****             #endif /* ((CapSense_TOTAL_LINEAR_SLIDERS_COUNT>0u)||(CapSense_TOTAL_TOUCH_PADS_BASIC_C
1648:.\Generated_Source\PSoC4/CapSense_CSHL.c **** 
1649:.\Generated_Source\PSoC4/CapSense_CSHL.c ****         #if (CapSense_ADD_SLIDER_TYPE)
1650:.\Generated_Source\PSoC4/CapSense_CSHL.c ****             }
1651:.\Generated_Source\PSoC4/CapSense_CSHL.c ****         #endif /* (CapSense_ADD_SLIDER_TYPE) */
1652:.\Generated_Source\PSoC4/CapSense_CSHL.c ****     
ARM GAS  C:\Users\ALEXAN~1\AppData\Local\Temp\cc9HWPtE.s 			page 51


1653:.\Generated_Source\PSoC4/CapSense_CSHL.c ****         /* Subtract noiseThreshold */
1654:.\Generated_Source\PSoC4/CapSense_CSHL.c ****         if(CapSense_centroid[CapSense_POS_PREV] > noiseThreshold)
 1177              		.loc 1 1654 0
 1178 006e 174B     		ldr	r3, .L103
 1179 0070 1B8D     		ldrh	r3, [r3, #40]
 1180 0072 8342     		cmp	r3, r0
 1181 0074 03D9     		bls	.L98
1655:.\Generated_Source\PSoC4/CapSense_CSHL.c ****         {
1656:.\Generated_Source\PSoC4/CapSense_CSHL.c ****             CapSense_centroid[CapSense_POS_PREV] -= noiseThreshold;
 1182              		.loc 1 1656 0
 1183 0076 1B1A     		sub	r3, r3, r0
 1184 0078 144A     		ldr	r2, .L103
 1185 007a 1385     		strh	r3, [r2, #40]
 1186 007c 02E0     		b	.L99
 1187              	.L98:
1657:.\Generated_Source\PSoC4/CapSense_CSHL.c ****         }
1658:.\Generated_Source\PSoC4/CapSense_CSHL.c ****         else
1659:.\Generated_Source\PSoC4/CapSense_CSHL.c ****         {
1660:.\Generated_Source\PSoC4/CapSense_CSHL.c ****             CapSense_centroid[CapSense_POS_PREV] = 0u;
 1188              		.loc 1 1660 0
 1189 007e 0022     		mov	r2, #0
 1190 0080 124B     		ldr	r3, .L103
 1191 0082 1A85     		strh	r2, [r3, #40]
 1192              	.L99:
1661:.\Generated_Source\PSoC4/CapSense_CSHL.c ****         }
1662:.\Generated_Source\PSoC4/CapSense_CSHL.c ****         
1663:.\Generated_Source\PSoC4/CapSense_CSHL.c ****         /* Maximum always greater than fingerThreshold, so greater than noiseThreshold */
1664:.\Generated_Source\PSoC4/CapSense_CSHL.c ****         CapSense_centroid[CapSense_POS] -= noiseThreshold;
 1193              		.loc 1 1664 0
 1194 0084 114A     		ldr	r2, .L103
 1195 0086 518D     		ldrh	r1, [r2, #42]
 1196              	.LVL141:
 1197 0088 091A     		sub	r1, r1, r0
 1198 008a 89B2     		uxth	r1, r1
 1199 008c 5185     		strh	r1, [r2, #42]
1665:.\Generated_Source\PSoC4/CapSense_CSHL.c ****         
1666:.\Generated_Source\PSoC4/CapSense_CSHL.c ****         /* Subtract noiseThreshold */
1667:.\Generated_Source\PSoC4/CapSense_CSHL.c ****         if(CapSense_centroid[CapSense_POS_NEXT] > noiseThreshold)
 1200              		.loc 1 1667 0
 1201 008e 938D     		ldrh	r3, [r2, #44]
 1202 0090 8342     		cmp	r3, r0
 1203 0092 02D9     		bls	.L100
1668:.\Generated_Source\PSoC4/CapSense_CSHL.c ****         {
1669:.\Generated_Source\PSoC4/CapSense_CSHL.c ****             CapSense_centroid[CapSense_POS_NEXT] -= noiseThreshold;
 1204              		.loc 1 1669 0
 1205 0094 181A     		sub	r0, r3, r0
 1206 0096 9085     		strh	r0, [r2, #44]
 1207 0098 02E0     		b	.L101
 1208              	.L100:
1670:.\Generated_Source\PSoC4/CapSense_CSHL.c ****         }
1671:.\Generated_Source\PSoC4/CapSense_CSHL.c ****         else
1672:.\Generated_Source\PSoC4/CapSense_CSHL.c ****         {
1673:.\Generated_Source\PSoC4/CapSense_CSHL.c ****             CapSense_centroid[CapSense_POS_NEXT] = 0u;
 1209              		.loc 1 1673 0
 1210 009a 0022     		mov	r2, #0
 1211 009c 0B4B     		ldr	r3, .L103
 1212 009e 9A85     		strh	r2, [r3, #44]
ARM GAS  C:\Users\ALEXAN~1\AppData\Local\Temp\cc9HWPtE.s 			page 52


 1213              	.L101:
1674:.\Generated_Source\PSoC4/CapSense_CSHL.c ****         }
1675:.\Generated_Source\PSoC4/CapSense_CSHL.c ****         
1676:.\Generated_Source\PSoC4/CapSense_CSHL.c ****         
1677:.\Generated_Source\PSoC4/CapSense_CSHL.c ****         /* Si+1 - Si-1 */
1678:.\Generated_Source\PSoC4/CapSense_CSHL.c ****         numerator = (uint32) CapSense_centroid[CapSense_POS_NEXT] -
 1214              		.loc 1 1678 0
 1215 00a0 0A4B     		ldr	r3, .L103
 1216 00a2 9A8D     		ldrh	r2, [r3, #44]
1679:.\Generated_Source\PSoC4/CapSense_CSHL.c ****                     (uint32) CapSense_centroid[CapSense_POS_PREV];
 1217              		.loc 1 1679 0
 1218 00a4 1D8D     		ldrh	r5, [r3, #40]
1678:.\Generated_Source\PSoC4/CapSense_CSHL.c ****         numerator = (uint32) CapSense_centroid[CapSense_POS_NEXT] -
 1219              		.loc 1 1678 0
 1220 00a6 501B     		sub	r0, r2, r5
 1221              	.LVL142:
1680:.\Generated_Source\PSoC4/CapSense_CSHL.c **** 
1681:.\Generated_Source\PSoC4/CapSense_CSHL.c ****         /* Si+1 + Si + Si-1 */
1682:.\Generated_Source\PSoC4/CapSense_CSHL.c ****         denominator = (int32) CapSense_centroid[CapSense_POS_PREV] + 
 1222              		.loc 1 1682 0
 1223 00a8 6918     		add	r1, r5, r1
 1224 00aa 8918     		add	r1, r1, r2
 1225              	.LVL143:
1683:.\Generated_Source\PSoC4/CapSense_CSHL.c ****                       (int32) CapSense_centroid[CapSense_POS] + 
1684:.\Generated_Source\PSoC4/CapSense_CSHL.c ****                       (int32) CapSense_centroid[CapSense_POS_NEXT];
1685:.\Generated_Source\PSoC4/CapSense_CSHL.c ****         
1686:.\Generated_Source\PSoC4/CapSense_CSHL.c ****         /* (numerator/denominator) + maximum */
1687:.\Generated_Source\PSoC4/CapSense_CSHL.c ****         denominator = (((int32)(uint32)((uint32)numerator << 8u)/denominator) + (int32)(uint32)((ui
 1226              		.loc 1 1687 0
 1227 00ac 0002     		lsl	r0, r0, #8
 1228              	.LVL144:
 1229 00ae FFF7FEFF 		bl	__aeabi_idiv
 1230              	.LVL145:
 1231 00b2 2402     		lsl	r4, r4, #8
 1232              	.LVL146:
 1233 00b4 0019     		add	r0, r0, r4
 1234              	.LVL147:
1688:.\Generated_Source\PSoC4/CapSense_CSHL.c **** 
1689:.\Generated_Source\PSoC4/CapSense_CSHL.c ****         #if(CapSense_TOTAL_RADIAL_SLIDERS_COUNT > 0u)
1690:.\Generated_Source\PSoC4/CapSense_CSHL.c ****             /* Only required for RADIAL Slider */
1691:.\Generated_Source\PSoC4/CapSense_CSHL.c ****             if(denominator < 0)
1692:.\Generated_Source\PSoC4/CapSense_CSHL.c ****             {
1693:.\Generated_Source\PSoC4/CapSense_CSHL.c ****                 denominator += (int32)((uint16)((uint16) count << 8u));
1694:.\Generated_Source\PSoC4/CapSense_CSHL.c ****             }
1695:.\Generated_Source\PSoC4/CapSense_CSHL.c ****         #endif /* (CapSense_TOTAL_RADIAL_SLIDERS_COUNT > 0u) */
1696:.\Generated_Source\PSoC4/CapSense_CSHL.c ****         
1697:.\Generated_Source\PSoC4/CapSense_CSHL.c ****         denominator *= (int16)resolution;
 1235              		.loc 1 1697 0
 1236 00b6 36B2     		sxth	r6, r6
 1237 00b8 7043     		mul	r0, r6
 1238              	.LVL148:
1698:.\Generated_Source\PSoC4/CapSense_CSHL.c ****         
1699:.\Generated_Source\PSoC4/CapSense_CSHL.c ****         /* Round result and put it to uint8 */
1700:.\Generated_Source\PSoC4/CapSense_CSHL.c ****         position = ((uint8) HI16((uint32)denominator + CapSense_CENTROID_ROUND_VALUE));
 1239              		.loc 1 1700 0
 1240 00ba FE22     		mov	r2, #254
 1241 00bc D201     		lsl	r2, r2, #7
ARM GAS  C:\Users\ALEXAN~1\AppData\Local\Temp\cc9HWPtE.s 			page 53


 1242 00be 8018     		add	r0, r0, r2
 1243              	.LVL149:
 1244 00c0 000C     		lsr	r0, r0, #16
 1245              	.LVL150:
 1246 00c2 C0B2     		uxtb	r0, r0
 1247              	.LVL151:
1701:.\Generated_Source\PSoC4/CapSense_CSHL.c **** 
1702:.\Generated_Source\PSoC4/CapSense_CSHL.c ****         return (position);
1703:.\Generated_Source\PSoC4/CapSense_CSHL.c ****     }    
 1248              		.loc 1 1703 0
 1249              		@ sp needed
 1250              	.LVL152:
 1251 00c4 04BC     		pop	{r2}
 1252 00c6 9046     		mov	r8, r2
 1253 00c8 F0BD     		pop	{r4, r5, r6, r7, pc}
 1254              	.L104:
 1255 00ca C046     		.align	2
 1256              	.L103:
 1257 00cc 00000000 		.word	.LANCHOR0
 1258              		.cfi_endproc
 1259              	.LFE57:
 1260              		.size	CapSense_CalcCentroid, .-CapSense_CalcCentroid
 1261              		.section	.text.CapSense_GetCentroidPos,"ax",%progbits
 1262              		.align	2
 1263              		.global	CapSense_GetCentroidPos
 1264              		.code	16
 1265              		.thumb_func
 1266              		.type	CapSense_GetCentroidPos, %function
 1267              	CapSense_GetCentroidPos:
 1268              	.LFB58:
1704:.\Generated_Source\PSoC4/CapSense_CSHL.c **** #endif /* (CapSense_TOTAL_CENTROIDS_BASIC_COUNT) */
1705:.\Generated_Source\PSoC4/CapSense_CSHL.c **** 
1706:.\Generated_Source\PSoC4/CapSense_CSHL.c **** 
1707:.\Generated_Source\PSoC4/CapSense_CSHL.c **** #if((CapSense_TOTAL_RADIAL_SLIDERS_COUNT > 0u) || (CapSense_TOTAL_LINEAR_SLIDERS_COUNT > 0u))
1708:.\Generated_Source\PSoC4/CapSense_CSHL.c ****     /*******************************************************************************
1709:.\Generated_Source\PSoC4/CapSense_CSHL.c ****     * Function Name: CapSense_GetCentroidPos
1710:.\Generated_Source\PSoC4/CapSense_CSHL.c ****     ********************************************************************************
1711:.\Generated_Source\PSoC4/CapSense_CSHL.c ****     *
1712:.\Generated_Source\PSoC4/CapSense_CSHL.c ****     * Summary:
1713:.\Generated_Source\PSoC4/CapSense_CSHL.c ****     *  Checks the CapSense_Signal[ ] array for a centroid within
1714:.\Generated_Source\PSoC4/CapSense_CSHL.c ****     *  a slider specified range. The centroid position is calculated according to the resolution
1715:.\Generated_Source\PSoC4/CapSense_CSHL.c ****     *  specified in the CapSense customizer. The position filters are applied to the
1716:.\Generated_Source\PSoC4/CapSense_CSHL.c ****     *  result if enabled.
1717:.\Generated_Source\PSoC4/CapSense_CSHL.c ****     *
1718:.\Generated_Source\PSoC4/CapSense_CSHL.c ****     * Parameters:
1719:.\Generated_Source\PSoC4/CapSense_CSHL.c ****     *  widget:  Widget number.
1720:.\Generated_Source\PSoC4/CapSense_CSHL.c ****     *  For every linear slider widget there are defines in this format:
1721:.\Generated_Source\PSoC4/CapSense_CSHL.c ****     *  #define CapSense_"widget_name"__LS           5
1722:.\Generated_Source\PSoC4/CapSense_CSHL.c ****     * 
1723:.\Generated_Source\PSoC4/CapSense_CSHL.c ****     * Return:
1724:.\Generated_Source\PSoC4/CapSense_CSHL.c ****     *  Returns a position value of the linear slider.
1725:.\Generated_Source\PSoC4/CapSense_CSHL.c **** 	*
1726:.\Generated_Source\PSoC4/CapSense_CSHL.c **** 	* Global Variables:
1727:.\Generated_Source\PSoC4/CapSense_CSHL.c **** 	*  None
1728:.\Generated_Source\PSoC4/CapSense_CSHL.c **** 	*
1729:.\Generated_Source\PSoC4/CapSense_CSHL.c ****     * Side Effects:
1730:.\Generated_Source\PSoC4/CapSense_CSHL.c ****     *  If any sensor within the slider widget is active, the function returns values
ARM GAS  C:\Users\ALEXAN~1\AppData\Local\Temp\cc9HWPtE.s 			page 54


1731:.\Generated_Source\PSoC4/CapSense_CSHL.c ****     *  from zero to the API resolution value set in the CapSense customizer. If no
1732:.\Generated_Source\PSoC4/CapSense_CSHL.c ****     *  sensors are active, the function returns 0xFFFF. If an error occurs during
1733:.\Generated_Source\PSoC4/CapSense_CSHL.c ****     *  execution of the centroid/diplexing algorithm, the function returns 0xFFFF.
1734:.\Generated_Source\PSoC4/CapSense_CSHL.c ****     *  There are no checks of the widget type argument provided to this function.
1735:.\Generated_Source\PSoC4/CapSense_CSHL.c ****     *  The unproper widget type provided will cause unexpected position calculations.
1736:.\Generated_Source\PSoC4/CapSense_CSHL.c ****     *
1737:.\Generated_Source\PSoC4/CapSense_CSHL.c ****     * Note:
1738:.\Generated_Source\PSoC4/CapSense_CSHL.c ****     *  If noise counts on the slider segments are greater than the noise
1739:.\Generated_Source\PSoC4/CapSense_CSHL.c ****     *  threshold, this subroutine may generate a false centroid result. The noise
1740:.\Generated_Source\PSoC4/CapSense_CSHL.c ****     *  threshold should be set carefully (high enough above the noise level) so
1741:.\Generated_Source\PSoC4/CapSense_CSHL.c ****     *  that noise will not generate a false centroid.
1742:.\Generated_Source\PSoC4/CapSense_CSHL.c ****     *******************************************************************************/
1743:.\Generated_Source\PSoC4/CapSense_CSHL.c ****     uint16 CapSense_GetCentroidPos(uint32 widget)
1744:.\Generated_Source\PSoC4/CapSense_CSHL.c ****     {
 1269              		.loc 1 1744 0
 1270              		.cfi_startproc
 1271              	.LVL153:
 1272 0000 00B5     		push	{lr}
 1273              		.cfi_def_cfa_offset 4
 1274              		.cfi_offset 14, -4
 1275 0002 83B0     		sub	sp, sp, #12
 1276              		.cfi_def_cfa_offset 16
 1277              	.LVL154:
1745:.\Generated_Source\PSoC4/CapSense_CSHL.c ****         #if (CapSense_IS_DIPLEX_SLIDER)
1746:.\Generated_Source\PSoC4/CapSense_CSHL.c ****             const uint8 *diplex;
1747:.\Generated_Source\PSoC4/CapSense_CSHL.c ****         #endif /* (CapSense_IS_DIPLEX_SLIDER) */
1748:.\Generated_Source\PSoC4/CapSense_CSHL.c ****                 
1749:.\Generated_Source\PSoC4/CapSense_CSHL.c ****         #if (0u != CapSense_LINEAR_SLIDERS_POS_FILTERS_MASK)
1750:.\Generated_Source\PSoC4/CapSense_CSHL.c ****             uint8 posIndex;
1751:.\Generated_Source\PSoC4/CapSense_CSHL.c ****             uint8 firstTimeIndex = CapSense_posFiltersData[widget];
1752:.\Generated_Source\PSoC4/CapSense_CSHL.c ****             uint8 posFiltersMask = CapSense_posFiltersMask[widget];  
1753:.\Generated_Source\PSoC4/CapSense_CSHL.c ****         #endif /* (0u != CapSense_LINEAR_SLIDERS_POS_FILTERS_MASK) */
1754:.\Generated_Source\PSoC4/CapSense_CSHL.c **** 
1755:.\Generated_Source\PSoC4/CapSense_CSHL.c ****         #if ((0u != (CapSense_MEDIAN_FILTER & CapSense_LINEAR_SLIDERS_POS_FILTERS_MASK)) || \
1756:.\Generated_Source\PSoC4/CapSense_CSHL.c ****              (0u != (CapSense_AVERAGING_FILTER & CapSense_LINEAR_SLIDERS_POS_FILTERS_MASK)))
1757:.\Generated_Source\PSoC4/CapSense_CSHL.c ****             uint8 tempPos;
1758:.\Generated_Source\PSoC4/CapSense_CSHL.c ****         #endif /* ((0u != (CapSense_MEDIAN_FILTER & CapSense_LINEAR_SLIDERS_POS_FILTERS_MASK)) || \
1759:.\Generated_Source\PSoC4/CapSense_CSHL.c ****                *   (0u != (CapSense_AVERAGING_FILTER & CapSense_LINEAR_SLIDERS_POS_FILTERS_MASK)))
1760:.\Generated_Source\PSoC4/CapSense_CSHL.c ****                */
1761:.\Generated_Source\PSoC4/CapSense_CSHL.c **** 
1762:.\Generated_Source\PSoC4/CapSense_CSHL.c ****         uint8 maximum;
1763:.\Generated_Source\PSoC4/CapSense_CSHL.c ****         uint16 position;
1764:.\Generated_Source\PSoC4/CapSense_CSHL.c ****         uint8 offset = CapSense_rawDataIndex[widget];
1765:.\Generated_Source\PSoC4/CapSense_CSHL.c ****         uint8 count = CapSense_numberOfSensors[widget];
1766:.\Generated_Source\PSoC4/CapSense_CSHL.c ****                         
1767:.\Generated_Source\PSoC4/CapSense_CSHL.c ****         #if (CapSense_IS_DIPLEX_SLIDER)
1768:.\Generated_Source\PSoC4/CapSense_CSHL.c ****             if(widget < CapSense_TOTAL_DIPLEXED_SLIDERS_COUNT)
1769:.\Generated_Source\PSoC4/CapSense_CSHL.c ****             {
1770:.\Generated_Source\PSoC4/CapSense_CSHL.c ****                 maximum = CapSense_diplexTable[widget];
1771:.\Generated_Source\PSoC4/CapSense_CSHL.c ****                 diplex = &CapSense_diplexTable[maximum];
1772:.\Generated_Source\PSoC4/CapSense_CSHL.c ****             }
1773:.\Generated_Source\PSoC4/CapSense_CSHL.c ****             else
1774:.\Generated_Source\PSoC4/CapSense_CSHL.c ****             {
1775:.\Generated_Source\PSoC4/CapSense_CSHL.c ****                 diplex = 0u;
1776:.\Generated_Source\PSoC4/CapSense_CSHL.c ****             }
1777:.\Generated_Source\PSoC4/CapSense_CSHL.c ****         #endif /* (CapSense_IS_DIPLEX_SLIDER) */
1778:.\Generated_Source\PSoC4/CapSense_CSHL.c **** 
ARM GAS  C:\Users\ALEXAN~1\AppData\Local\Temp\cc9HWPtE.s 			page 55


1779:.\Generated_Source\PSoC4/CapSense_CSHL.c **** 		/* Find Maximum within centroid */      
1780:.\Generated_Source\PSoC4/CapSense_CSHL.c **** 		#if (CapSense_IS_DIPLEX_SLIDER)        
1781:.\Generated_Source\PSoC4/CapSense_CSHL.c **** 			maximum = CapSense_FindMaximum(offset, count, (uint16)CapSense_fingerThreshold[widget], diplex);
1782:.\Generated_Source\PSoC4/CapSense_CSHL.c **** 		#else
1783:.\Generated_Source\PSoC4/CapSense_CSHL.c **** 			maximum = CapSense_FindMaximum(offset, count, (uint16)CapSense_fingerThreshold[widget]);
 1278              		.loc 1 1783 0
 1279 0004 0020     		mov	r0, #0
 1280              	.LVL155:
 1281 0006 0521     		mov	r1, #5
 1282 0008 6422     		mov	r2, #100
 1283 000a FFF7FEFF 		bl	CapSense_FindMaximum
 1284              	.LVL156:
1784:.\Generated_Source\PSoC4/CapSense_CSHL.c **** 		#endif /* (CapSense_IS_DIPLEX_SLIDER) */
1785:.\Generated_Source\PSoC4/CapSense_CSHL.c **** 
1786:.\Generated_Source\PSoC4/CapSense_CSHL.c ****         if (maximum != 0xFFu)
 1285              		.loc 1 1786 0
 1286 000e FF28     		cmp	r0, #255
 1287 0010 08D0     		beq	.L107
1787:.\Generated_Source\PSoC4/CapSense_CSHL.c ****         {
1788:.\Generated_Source\PSoC4/CapSense_CSHL.c ****             /* Calculate centroid */
1789:.\Generated_Source\PSoC4/CapSense_CSHL.c ****             position = (uint16) CapSense_CalcCentroid(maximum, 
 1288              		.loc 1 1789 0
 1289 0012 1E23     		mov	r3, #30
 1290 0014 0093     		str	r3, [sp]
 1291 0016 0021     		mov	r1, #0
 1292 0018 0522     		mov	r2, #5
 1293 001a C823     		mov	r3, #200
 1294 001c 5B01     		lsl	r3, r3, #5
 1295 001e FFF7FEFF 		bl	CapSense_CalcCentroid
 1296              	.LVL157:
 1297 0022 00E0     		b	.L106
 1298              	.LVL158:
 1299              	.L107:
1790:.\Generated_Source\PSoC4/CapSense_CSHL.c ****                          offset, count, CapSense_centroidMult[widget], CapSense_noiseThreshold[widg
1791:.\Generated_Source\PSoC4/CapSense_CSHL.c **** 
1792:.\Generated_Source\PSoC4/CapSense_CSHL.c ****             #if (0u != CapSense_LINEAR_SLIDERS_POS_FILTERS_MASK)
1793:.\Generated_Source\PSoC4/CapSense_CSHL.c ****                 /* Check if this linear slider has enabled filters */
1794:.\Generated_Source\PSoC4/CapSense_CSHL.c ****                 if (0u != (posFiltersMask & CapSense_ANY_POS_FILTER))
1795:.\Generated_Source\PSoC4/CapSense_CSHL.c ****                 {
1796:.\Generated_Source\PSoC4/CapSense_CSHL.c ****                     /* Calculate position to store filters data */
1797:.\Generated_Source\PSoC4/CapSense_CSHL.c ****                     posIndex  = firstTimeIndex + 1u;
1798:.\Generated_Source\PSoC4/CapSense_CSHL.c ****                     
1799:.\Generated_Source\PSoC4/CapSense_CSHL.c ****                     if (0u == CapSense_posFiltersData[firstTimeIndex])
1800:.\Generated_Source\PSoC4/CapSense_CSHL.c ****                     {
1801:.\Generated_Source\PSoC4/CapSense_CSHL.c ****                         /* Init filters */
1802:.\Generated_Source\PSoC4/CapSense_CSHL.c ****                         CapSense_posFiltersData[posIndex] = (uint8) position;
1803:.\Generated_Source\PSoC4/CapSense_CSHL.c ****                         #if ((0u != (CapSense_MEDIAN_FILTER & \
1804:.\Generated_Source\PSoC4/CapSense_CSHL.c ****                                      CapSense_LINEAR_SLIDERS_POS_FILTERS_MASK)) || \
1805:.\Generated_Source\PSoC4/CapSense_CSHL.c ****                              (0u != (CapSense_AVERAGING_FILTER & \
1806:.\Generated_Source\PSoC4/CapSense_CSHL.c ****                                      CapSense_LINEAR_SLIDERS_POS_FILTERS_MASK)))
1807:.\Generated_Source\PSoC4/CapSense_CSHL.c **** 
1808:.\Generated_Source\PSoC4/CapSense_CSHL.c ****                             if ( (0u != (posFiltersMask & CapSense_MEDIAN_FILTER)) || 
1809:.\Generated_Source\PSoC4/CapSense_CSHL.c ****                                  (0u != (posFiltersMask & CapSense_AVERAGING_FILTER)) )
1810:.\Generated_Source\PSoC4/CapSense_CSHL.c ****                             {
1811:.\Generated_Source\PSoC4/CapSense_CSHL.c ****                                 CapSense_posFiltersData[posIndex + 1u] = (uint8) position;
1812:.\Generated_Source\PSoC4/CapSense_CSHL.c ****                             }
1813:.\Generated_Source\PSoC4/CapSense_CSHL.c ****                         #endif /* ((0u != (CapSense_MEDIAN_FILTER & \
ARM GAS  C:\Users\ALEXAN~1\AppData\Local\Temp\cc9HWPtE.s 			page 56


1814:.\Generated_Source\PSoC4/CapSense_CSHL.c ****                                *           CapSense_LINEAR_SLIDERS_POS_FILTERS_MASK)) || \
1815:.\Generated_Source\PSoC4/CapSense_CSHL.c ****                                *   (0u != (CapSense_AVERAGING_FILTER & \
1816:.\Generated_Source\PSoC4/CapSense_CSHL.c ****                                *           CapSense_LINEAR_SLIDERS_POS_FILTERS_MASK)))
1817:.\Generated_Source\PSoC4/CapSense_CSHL.c ****                                */
1818:.\Generated_Source\PSoC4/CapSense_CSHL.c ****                         
1819:.\Generated_Source\PSoC4/CapSense_CSHL.c ****                         CapSense_posFiltersData[firstTimeIndex] = 1u;
1820:.\Generated_Source\PSoC4/CapSense_CSHL.c ****                     }
1821:.\Generated_Source\PSoC4/CapSense_CSHL.c ****                     else
1822:.\Generated_Source\PSoC4/CapSense_CSHL.c ****                     {
1823:.\Generated_Source\PSoC4/CapSense_CSHL.c ****                         /* Do filtering */
1824:.\Generated_Source\PSoC4/CapSense_CSHL.c ****                         #if (0u != (CapSense_MEDIAN_FILTER & CapSense_LINEAR_SLIDERS_POS_FILTERS_MA
1825:.\Generated_Source\PSoC4/CapSense_CSHL.c ****                             if (0u != (posFiltersMask & CapSense_MEDIAN_FILTER))
1826:.\Generated_Source\PSoC4/CapSense_CSHL.c ****                             {
1827:.\Generated_Source\PSoC4/CapSense_CSHL.c ****                                 tempPos = (uint8) position;
1828:.\Generated_Source\PSoC4/CapSense_CSHL.c ****                                 position = CapSense_MedianFilter(position,
1829:.\Generated_Source\PSoC4/CapSense_CSHL.c ****                                                                 (uint16)CapSense_posFiltersData[pos
1830:.\Generated_Source\PSoC4/CapSense_CSHL.c ****                                                                 (uint16)CapSense_posFiltersData[pos
1831:.\Generated_Source\PSoC4/CapSense_CSHL.c ****                                 CapSense_posFiltersData[posIndex + 1u] =
1832:.\Generated_Source\PSoC4/CapSense_CSHL.c ****                                                                              CapSense_posFiltersDat
1833:.\Generated_Source\PSoC4/CapSense_CSHL.c ****                                 CapSense_posFiltersData[posIndex] = tempPos;
1834:.\Generated_Source\PSoC4/CapSense_CSHL.c ****                             }
1835:.\Generated_Source\PSoC4/CapSense_CSHL.c ****                         #endif /*(0u != (CapSense_MEDIAN_FILTER &
1836:.\Generated_Source\PSoC4/CapSense_CSHL.c ****                                *         CapSense_LINEAR_SLIDERS_POS_FILTERS_MASK))
1837:.\Generated_Source\PSoC4/CapSense_CSHL.c ****                                */
1838:.\Generated_Source\PSoC4/CapSense_CSHL.c **** 
1839:.\Generated_Source\PSoC4/CapSense_CSHL.c ****                         #if(0u!=(CapSense_AVERAGING_FILTER & CapSense_LINEAR_SLIDERS_POS_FILTERS_MA
1840:.\Generated_Source\PSoC4/CapSense_CSHL.c ****                             if (0u != (posFiltersMask & CapSense_AVERAGING_FILTER)) 
1841:.\Generated_Source\PSoC4/CapSense_CSHL.c ****                             {
1842:.\Generated_Source\PSoC4/CapSense_CSHL.c ****                                 tempPos = (uint8) position;
1843:.\Generated_Source\PSoC4/CapSense_CSHL.c ****                                 position = CapSense_AveragingFilter(position,
1844:.\Generated_Source\PSoC4/CapSense_CSHL.c ****                                                                 (uint16)CapSense_posFiltersData[pos
1845:.\Generated_Source\PSoC4/CapSense_CSHL.c ****                                                                 (uint16)CapSense_posFiltersData[pos
1846:.\Generated_Source\PSoC4/CapSense_CSHL.c ****                                 CapSense_posFiltersData[posIndex+1u]=CapSense_posFiltersData[posInd
1847:.\Generated_Source\PSoC4/CapSense_CSHL.c ****                                 CapSense_posFiltersData[posIndex] = tempPos;
1848:.\Generated_Source\PSoC4/CapSense_CSHL.c ****                             }
1849:.\Generated_Source\PSoC4/CapSense_CSHL.c ****                         #endif /* (0u != (CapSense_AVERAGING_FILTER & \
1850:.\Generated_Source\PSoC4/CapSense_CSHL.c ****                                *           CapSense_LINEAR_SLIDERS_POS_FILTERS_MASK))
1851:.\Generated_Source\PSoC4/CapSense_CSHL.c ****                                */
1852:.\Generated_Source\PSoC4/CapSense_CSHL.c **** 
1853:.\Generated_Source\PSoC4/CapSense_CSHL.c ****                         #if (0u != (CapSense_IIR2_FILTER & CapSense_LINEAR_SLIDERS_POS_FILTERS_MASK
1854:.\Generated_Source\PSoC4/CapSense_CSHL.c ****                             if (0u != (posFiltersMask & CapSense_IIR2_FILTER)) 
1855:.\Generated_Source\PSoC4/CapSense_CSHL.c ****                             {
1856:.\Generated_Source\PSoC4/CapSense_CSHL.c ****                                 position = CapSense_IIR2Filter(position,
1857:.\Generated_Source\PSoC4/CapSense_CSHL.c ****                                                                     (uint16)CapSense_posFiltersData
1858:.\Generated_Source\PSoC4/CapSense_CSHL.c ****                                 CapSense_posFiltersData[posIndex] = (uint8) position;
1859:.\Generated_Source\PSoC4/CapSense_CSHL.c ****                             }
1860:.\Generated_Source\PSoC4/CapSense_CSHL.c ****                         #endif /* (0u != (CapSense_IIR2_FILTER & \
1861:.\Generated_Source\PSoC4/CapSense_CSHL.c ****                                *          CapSense_LINEAR_SLIDERS_POS_FILTERS_MASK))
1862:.\Generated_Source\PSoC4/CapSense_CSHL.c ****                                */
1863:.\Generated_Source\PSoC4/CapSense_CSHL.c **** 
1864:.\Generated_Source\PSoC4/CapSense_CSHL.c ****                         #if (0u != (CapSense_IIR4_FILTER & CapSense_LINEAR_SLIDERS_POS_FILTERS_MASK
1865:.\Generated_Source\PSoC4/CapSense_CSHL.c ****                             if (0u != (posFiltersMask & CapSense_IIR4_FILTER))
1866:.\Generated_Source\PSoC4/CapSense_CSHL.c ****                             {
1867:.\Generated_Source\PSoC4/CapSense_CSHL.c ****                                 position = CapSense_IIR4Filter(position,
1868:.\Generated_Source\PSoC4/CapSense_CSHL.c ****                                                                     (uint16)CapSense_posFiltersData
1869:.\Generated_Source\PSoC4/CapSense_CSHL.c ****                                 CapSense_posFiltersData[posIndex] = (uint8) position;
1870:.\Generated_Source\PSoC4/CapSense_CSHL.c ****                             }                                
ARM GAS  C:\Users\ALEXAN~1\AppData\Local\Temp\cc9HWPtE.s 			page 57


1871:.\Generated_Source\PSoC4/CapSense_CSHL.c ****                         #endif /* (0u != (CapSense_IIR4_FILTER & \
1872:.\Generated_Source\PSoC4/CapSense_CSHL.c ****                                *          CapSense_LINEAR_SLIDERS_POS_FILTERS_MASK))
1873:.\Generated_Source\PSoC4/CapSense_CSHL.c ****                                */
1874:.\Generated_Source\PSoC4/CapSense_CSHL.c **** 
1875:.\Generated_Source\PSoC4/CapSense_CSHL.c ****                         #if (0u != (CapSense_JITTER_FILTER & CapSense_LINEAR_SLIDERS_POS_FILTERS_MA
1876:.\Generated_Source\PSoC4/CapSense_CSHL.c ****                             if (0u != (posFiltersMask & CapSense_JITTER_FILTER))
1877:.\Generated_Source\PSoC4/CapSense_CSHL.c ****                             {
1878:.\Generated_Source\PSoC4/CapSense_CSHL.c ****                                 position = CapSense_JitterFilter(position,
1879:.\Generated_Source\PSoC4/CapSense_CSHL.c ****                                                                     (uint16)CapSense_posFiltersData
1880:.\Generated_Source\PSoC4/CapSense_CSHL.c ****                                 CapSense_posFiltersData[posIndex] = (uint8) position;
1881:.\Generated_Source\PSoC4/CapSense_CSHL.c ****                             }
1882:.\Generated_Source\PSoC4/CapSense_CSHL.c ****                         #endif /* (0u != (CapSense_JITTER_FILTER & \
1883:.\Generated_Source\PSoC4/CapSense_CSHL.c ****                                *           CapSense_LINEAR_SLIDERS_POS_FILTERS_MASK))
1884:.\Generated_Source\PSoC4/CapSense_CSHL.c ****                                */
1885:.\Generated_Source\PSoC4/CapSense_CSHL.c ****                     }
1886:.\Generated_Source\PSoC4/CapSense_CSHL.c ****                 }
1887:.\Generated_Source\PSoC4/CapSense_CSHL.c ****             #endif /* (0u != CapSense_LINEAR_SLIDERS_POS_FILTERS_MASK) */
1888:.\Generated_Source\PSoC4/CapSense_CSHL.c **** 
1889:.\Generated_Source\PSoC4/CapSense_CSHL.c ****         }
1890:.\Generated_Source\PSoC4/CapSense_CSHL.c ****         else
1891:.\Generated_Source\PSoC4/CapSense_CSHL.c ****         {
1892:.\Generated_Source\PSoC4/CapSense_CSHL.c ****             /* Maximum wasn't found */
1893:.\Generated_Source\PSoC4/CapSense_CSHL.c ****             position = 0xFFFFu;
 1300              		.loc 1 1893 0
 1301 0024 0148     		ldr	r0, .L108
 1302              	.LVL159:
 1303              	.L106:
1894:.\Generated_Source\PSoC4/CapSense_CSHL.c **** 
1895:.\Generated_Source\PSoC4/CapSense_CSHL.c ****             #if(0u != CapSense_LINEAR_SLIDERS_POS_FILTERS_MASK)
1896:.\Generated_Source\PSoC4/CapSense_CSHL.c ****                 /* Reset filters */
1897:.\Generated_Source\PSoC4/CapSense_CSHL.c ****                 if(0u != (posFiltersMask & CapSense_ANY_POS_FILTER))
1898:.\Generated_Source\PSoC4/CapSense_CSHL.c ****                 {
1899:.\Generated_Source\PSoC4/CapSense_CSHL.c ****                     CapSense_posFiltersData[firstTimeIndex] = 0u;
1900:.\Generated_Source\PSoC4/CapSense_CSHL.c ****                 }
1901:.\Generated_Source\PSoC4/CapSense_CSHL.c ****             #endif /* (0u != CapSense_LINEAR_SLIDERS_POS_FILTERS_MASK) */
1902:.\Generated_Source\PSoC4/CapSense_CSHL.c ****         }
1903:.\Generated_Source\PSoC4/CapSense_CSHL.c **** 
1904:.\Generated_Source\PSoC4/CapSense_CSHL.c ****         
1905:.\Generated_Source\PSoC4/CapSense_CSHL.c ****         return (position);
1906:.\Generated_Source\PSoC4/CapSense_CSHL.c ****     }
 1304              		.loc 1 1906 0
 1305 0026 03B0     		add	sp, sp, #12
 1306              		@ sp needed
 1307 0028 00BD     		pop	{pc}
 1308              	.L109:
 1309 002a C046     		.align	2
 1310              	.L108:
 1311 002c FFFF0000 		.word	65535
 1312              		.cfi_endproc
 1313              	.LFE58:
 1314              		.size	CapSense_GetCentroidPos, .-CapSense_GetCentroidPos
 1315              		.section	.text.CapSense_GetRadialCentroidPos,"ax",%progbits
 1316              		.align	2
 1317              		.global	CapSense_GetRadialCentroidPos
 1318              		.code	16
 1319              		.thumb_func
 1320              		.type	CapSense_GetRadialCentroidPos, %function
ARM GAS  C:\Users\ALEXAN~1\AppData\Local\Temp\cc9HWPtE.s 			page 58


 1321              	CapSense_GetRadialCentroidPos:
 1322              	.LFB59:
1907:.\Generated_Source\PSoC4/CapSense_CSHL.c **** #endif /* ((CapSense_TOTAL_RADIAL_SLIDERS_COUNT > 0u) || (CapSense_TOTAL_LINEAR_SLIDERS_COUNT > 0u)
1908:.\Generated_Source\PSoC4/CapSense_CSHL.c **** 
1909:.\Generated_Source\PSoC4/CapSense_CSHL.c **** 
1910:.\Generated_Source\PSoC4/CapSense_CSHL.c **** #if((CapSense_TOTAL_RADIAL_SLIDERS_COUNT > 0u) || (CapSense_TOTAL_LINEAR_SLIDERS_COUNT > 0u))
1911:.\Generated_Source\PSoC4/CapSense_CSHL.c ****     /*******************************************************************************
1912:.\Generated_Source\PSoC4/CapSense_CSHL.c ****     * Function Name: CapSense_GetRadialCentroidPos
1913:.\Generated_Source\PSoC4/CapSense_CSHL.c ****     ********************************************************************************
1914:.\Generated_Source\PSoC4/CapSense_CSHL.c ****     *
1915:.\Generated_Source\PSoC4/CapSense_CSHL.c ****     * Summary:
1916:.\Generated_Source\PSoC4/CapSense_CSHL.c ****     *  Checks the CapSense_Signal[ ] array for a centroid within
1917:.\Generated_Source\PSoC4/CapSense_CSHL.c ****     *  a slider specified range. The centroid position is calculated according to the resolution
1918:.\Generated_Source\PSoC4/CapSense_CSHL.c ****     *  specified in the CapSense customizer. The position filters are applied to the
1919:.\Generated_Source\PSoC4/CapSense_CSHL.c ****     *  result if enabled.
1920:.\Generated_Source\PSoC4/CapSense_CSHL.c ****     *
1921:.\Generated_Source\PSoC4/CapSense_CSHL.c ****     * Parameters:
1922:.\Generated_Source\PSoC4/CapSense_CSHL.c ****     *  widget:  Widget number.
1923:.\Generated_Source\PSoC4/CapSense_CSHL.c ****     *  For every radial slider widget there are defines in this format:
1924:.\Generated_Source\PSoC4/CapSense_CSHL.c ****     *  #define CapSense_"widget_name"__RS           5
1925:.\Generated_Source\PSoC4/CapSense_CSHL.c ****     * 
1926:.\Generated_Source\PSoC4/CapSense_CSHL.c ****     * Return:
1927:.\Generated_Source\PSoC4/CapSense_CSHL.c ****     *  Returns a position value of the radial slider.
1928:.\Generated_Source\PSoC4/CapSense_CSHL.c ****     *
1929:.\Generated_Source\PSoC4/CapSense_CSHL.c **** 	* Global Variables:
1930:.\Generated_Source\PSoC4/CapSense_CSHL.c **** 	*  None.
1931:.\Generated_Source\PSoC4/CapSense_CSHL.c **** 	*
1932:.\Generated_Source\PSoC4/CapSense_CSHL.c ****     * Side Effects:
1933:.\Generated_Source\PSoC4/CapSense_CSHL.c ****     *  If any sensor within the slider widget is active, the function returns values
1934:.\Generated_Source\PSoC4/CapSense_CSHL.c ****     *  from zero to the API resolution value set in the CapSense customizer. If no
1935:.\Generated_Source\PSoC4/CapSense_CSHL.c ****     *  sensors are active, the function returns 0xFFFF.
1936:.\Generated_Source\PSoC4/CapSense_CSHL.c ****     *  There are no checks of the widget type argument provided to this function.
1937:.\Generated_Source\PSoC4/CapSense_CSHL.c ****     *  The unproper widget type provided will cause unexpected position calculations.
1938:.\Generated_Source\PSoC4/CapSense_CSHL.c ****     *
1939:.\Generated_Source\PSoC4/CapSense_CSHL.c ****     * Note:
1940:.\Generated_Source\PSoC4/CapSense_CSHL.c ****     *  If noise counts on the slider segments are greater than the noise
1941:.\Generated_Source\PSoC4/CapSense_CSHL.c ****     *  threshold, this subroutine may generate a false centroid result. The noise
1942:.\Generated_Source\PSoC4/CapSense_CSHL.c ****     *  threshold should be set carefully (high enough above the noise level) so 
1943:.\Generated_Source\PSoC4/CapSense_CSHL.c ****     *  that noise will not generate a false centroid.
1944:.\Generated_Source\PSoC4/CapSense_CSHL.c ****     *
1945:.\Generated_Source\PSoC4/CapSense_CSHL.c ****     *******************************************************************************/
1946:.\Generated_Source\PSoC4/CapSense_CSHL.c ****      uint16 CapSense_GetRadialCentroidPos(uint32 widget)
1947:.\Generated_Source\PSoC4/CapSense_CSHL.c ****     {
 1323              		.loc 1 1947 0
 1324              		.cfi_startproc
 1325              	.LVL160:
 1326 0000 00B5     		push	{lr}
 1327              		.cfi_def_cfa_offset 4
 1328              		.cfi_offset 14, -4
 1329 0002 83B0     		sub	sp, sp, #12
 1330              		.cfi_def_cfa_offset 16
 1331              	.LVL161:
1948:.\Generated_Source\PSoC4/CapSense_CSHL.c ****         #if (0u != CapSense_RADIAL_SLIDERS_POS_FILTERS_MASK)
1949:.\Generated_Source\PSoC4/CapSense_CSHL.c ****             uint8 posIndex;
1950:.\Generated_Source\PSoC4/CapSense_CSHL.c ****             uint8 firstTimeIndex = CapSense_posFiltersData[widget];
1951:.\Generated_Source\PSoC4/CapSense_CSHL.c ****             uint8 posFiltersMask = CapSense_posFiltersMask[widget]; 
1952:.\Generated_Source\PSoC4/CapSense_CSHL.c ****         #endif /* (0u != CapSense_RADIAL_SLIDERS_POS_FILTERS_MASK) */
ARM GAS  C:\Users\ALEXAN~1\AppData\Local\Temp\cc9HWPtE.s 			page 59


1953:.\Generated_Source\PSoC4/CapSense_CSHL.c **** 
1954:.\Generated_Source\PSoC4/CapSense_CSHL.c ****         #if ((0u != (CapSense_MEDIAN_FILTER & CapSense_RADIAL_SLIDERS_POS_FILTERS_MASK)) || \
1955:.\Generated_Source\PSoC4/CapSense_CSHL.c ****              (0u != (CapSense_AVERAGING_FILTER & CapSense_RADIAL_SLIDERS_POS_FILTERS_MASK)))
1956:.\Generated_Source\PSoC4/CapSense_CSHL.c ****             uint8 tempPos;
1957:.\Generated_Source\PSoC4/CapSense_CSHL.c ****         #endif /* ((0u != (CapSense_MEDIAN_FILTER & CapSense_RADIAL_SLIDERS_POS_FILTERS_MASK)) || \
1958:.\Generated_Source\PSoC4/CapSense_CSHL.c ****                *   (0u != (CapSense_AVERAGING_FILTER & CapSense_RADIAL_SLIDERS_POS_FILTERS_MASK)))
1959:.\Generated_Source\PSoC4/CapSense_CSHL.c ****                */
1960:.\Generated_Source\PSoC4/CapSense_CSHL.c **** 
1961:.\Generated_Source\PSoC4/CapSense_CSHL.c ****         uint8 maximum;
1962:.\Generated_Source\PSoC4/CapSense_CSHL.c ****         uint16 position;
1963:.\Generated_Source\PSoC4/CapSense_CSHL.c ****         uint8 offset = CapSense_rawDataIndex[widget];
1964:.\Generated_Source\PSoC4/CapSense_CSHL.c ****         uint8 count = CapSense_numberOfSensors[widget];
1965:.\Generated_Source\PSoC4/CapSense_CSHL.c **** 
1966:.\Generated_Source\PSoC4/CapSense_CSHL.c **** 		/* Find Maximum within centroid */      
1967:.\Generated_Source\PSoC4/CapSense_CSHL.c **** 		#if (CapSense_IS_DIPLEX_SLIDER)        
1968:.\Generated_Source\PSoC4/CapSense_CSHL.c **** 			maximum = CapSense_FindMaximum(offset, count, (uint16)CapSense_fingerThreshold[widget], 0u);
1969:.\Generated_Source\PSoC4/CapSense_CSHL.c **** 		#else
1970:.\Generated_Source\PSoC4/CapSense_CSHL.c **** 			maximum = CapSense_FindMaximum(offset, count, (uint16)CapSense_fingerThreshold[widget]);
 1332              		.loc 1 1970 0
 1333 0004 0020     		mov	r0, #0
 1334              	.LVL162:
 1335 0006 0521     		mov	r1, #5
 1336 0008 6422     		mov	r2, #100
 1337 000a FFF7FEFF 		bl	CapSense_FindMaximum
 1338              	.LVL163:
1971:.\Generated_Source\PSoC4/CapSense_CSHL.c **** 		#endif /* (CapSense_IS_DIPLEX_SLIDER) */
1972:.\Generated_Source\PSoC4/CapSense_CSHL.c ****         
1973:.\Generated_Source\PSoC4/CapSense_CSHL.c ****         if (maximum != CapSense_MAXIMUM_CENTROID)
 1339              		.loc 1 1973 0
 1340 000e FF28     		cmp	r0, #255
 1341 0010 08D0     		beq	.L112
1974:.\Generated_Source\PSoC4/CapSense_CSHL.c ****         {
1975:.\Generated_Source\PSoC4/CapSense_CSHL.c ****             /* Calculate centroid */
1976:.\Generated_Source\PSoC4/CapSense_CSHL.c ****             position = (uint16) CapSense_CalcCentroid(maximum, 
 1342              		.loc 1 1976 0
 1343 0012 1E23     		mov	r3, #30
 1344 0014 0093     		str	r3, [sp]
 1345 0016 0021     		mov	r1, #0
 1346 0018 0522     		mov	r2, #5
 1347 001a C823     		mov	r3, #200
 1348 001c 5B01     		lsl	r3, r3, #5
 1349 001e FFF7FEFF 		bl	CapSense_CalcCentroid
 1350              	.LVL164:
 1351 0022 00E0     		b	.L111
 1352              	.LVL165:
 1353              	.L112:
1977:.\Generated_Source\PSoC4/CapSense_CSHL.c ****                          offset, count, CapSense_centroidMult[widget], CapSense_noiseThreshold[widg
1978:.\Generated_Source\PSoC4/CapSense_CSHL.c **** 
1979:.\Generated_Source\PSoC4/CapSense_CSHL.c ****             #if (0u != CapSense_RADIAL_SLIDERS_POS_FILTERS_MASK)
1980:.\Generated_Source\PSoC4/CapSense_CSHL.c ****                 /* Check if this Radial slider has enabled filters */
1981:.\Generated_Source\PSoC4/CapSense_CSHL.c ****                 if (0u != (posFiltersMask & CapSense_ANY_POS_FILTER))
1982:.\Generated_Source\PSoC4/CapSense_CSHL.c ****                 {
1983:.\Generated_Source\PSoC4/CapSense_CSHL.c ****                     /* Calculate position to store filters data */
1984:.\Generated_Source\PSoC4/CapSense_CSHL.c ****                     posIndex  = firstTimeIndex + 1u;
1985:.\Generated_Source\PSoC4/CapSense_CSHL.c ****                     
1986:.\Generated_Source\PSoC4/CapSense_CSHL.c ****                     if (0u == CapSense_posFiltersData[firstTimeIndex])
1987:.\Generated_Source\PSoC4/CapSense_CSHL.c ****                     {
ARM GAS  C:\Users\ALEXAN~1\AppData\Local\Temp\cc9HWPtE.s 			page 60


1988:.\Generated_Source\PSoC4/CapSense_CSHL.c ****                         /* Init filters */
1989:.\Generated_Source\PSoC4/CapSense_CSHL.c ****                         CapSense_posFiltersData[posIndex] = (uint8) position;
1990:.\Generated_Source\PSoC4/CapSense_CSHL.c ****                         #if ((0u != (CapSense_MEDIAN_FILTER & \
1991:.\Generated_Source\PSoC4/CapSense_CSHL.c ****                                      CapSense_RADIAL_SLIDERS_POS_FILTERS_MASK)) || \
1992:.\Generated_Source\PSoC4/CapSense_CSHL.c ****                              (0u != (CapSense_AVERAGING_FILTER & \
1993:.\Generated_Source\PSoC4/CapSense_CSHL.c ****                                      CapSense_RADIAL_SLIDERS_POS_FILTERS_MASK)))
1994:.\Generated_Source\PSoC4/CapSense_CSHL.c **** 
1995:.\Generated_Source\PSoC4/CapSense_CSHL.c ****                             if ( (0u != (posFiltersMask & CapSense_MEDIAN_FILTER))  || 
1996:.\Generated_Source\PSoC4/CapSense_CSHL.c ****                                  (0u != (posFiltersMask & CapSense_AVERAGING_FILTER)) )
1997:.\Generated_Source\PSoC4/CapSense_CSHL.c ****                             {
1998:.\Generated_Source\PSoC4/CapSense_CSHL.c ****                                 CapSense_posFiltersData[posIndex + 1u] = (uint8) position;
1999:.\Generated_Source\PSoC4/CapSense_CSHL.c ****                             }
2000:.\Generated_Source\PSoC4/CapSense_CSHL.c ****                         #endif /* ((0u != (CapSense_MEDIAN_FILTER & \
2001:.\Generated_Source\PSoC4/CapSense_CSHL.c ****                                *           CapSense_RADIAL_SLIDERS_POS_FILTERS_MASK)) || \
2002:.\Generated_Source\PSoC4/CapSense_CSHL.c ****                                *   (0u != (CapSense_AVERAGING_FILTER & \
2003:.\Generated_Source\PSoC4/CapSense_CSHL.c ****                                *           CapSense_RADIAL_SLIDERS_POS_FILTERS_MASK)))
2004:.\Generated_Source\PSoC4/CapSense_CSHL.c ****                                */
2005:.\Generated_Source\PSoC4/CapSense_CSHL.c ****                         
2006:.\Generated_Source\PSoC4/CapSense_CSHL.c ****                         CapSense_posFiltersData[firstTimeIndex] = 1u;
2007:.\Generated_Source\PSoC4/CapSense_CSHL.c ****                     }
2008:.\Generated_Source\PSoC4/CapSense_CSHL.c ****                     else
2009:.\Generated_Source\PSoC4/CapSense_CSHL.c ****                     {
2010:.\Generated_Source\PSoC4/CapSense_CSHL.c ****                         /* Do filtering */
2011:.\Generated_Source\PSoC4/CapSense_CSHL.c ****                         #if (0u != (CapSense_MEDIAN_FILTER & CapSense_RADIAL_SLIDERS_POS_FILTERS_MA
2012:.\Generated_Source\PSoC4/CapSense_CSHL.c ****                             if (0u != (posFiltersMask & CapSense_MEDIAN_FILTER))
2013:.\Generated_Source\PSoC4/CapSense_CSHL.c ****                             {
2014:.\Generated_Source\PSoC4/CapSense_CSHL.c ****                                 tempPos = (uint8) position;
2015:.\Generated_Source\PSoC4/CapSense_CSHL.c ****                                 position = CapSense_MedianFilter(position,
2016:.\Generated_Source\PSoC4/CapSense_CSHL.c ****                                                                         CapSense_posFiltersData[pos
2017:.\Generated_Source\PSoC4/CapSense_CSHL.c ****                                                                         CapSense_posFiltersData[pos
2018:.\Generated_Source\PSoC4/CapSense_CSHL.c ****                                 CapSense_posFiltersData[posIndex + 1u] = 
2019:.\Generated_Source\PSoC4/CapSense_CSHL.c ****                                                                               CapSense_posFiltersDa
2020:.\Generated_Source\PSoC4/CapSense_CSHL.c ****                                 CapSense_posFiltersData[posIndex] = tempPos;
2021:.\Generated_Source\PSoC4/CapSense_CSHL.c ****                             }
2022:.\Generated_Source\PSoC4/CapSense_CSHL.c ****                         #endif /* (0u != (CapSense_MEDIAN_FILTER & 
2023:.\Generated_Source\PSoC4/CapSense_CSHL.c ****                                *          CapSense_RADIAL_SLIDERS_POS_FILTERS_MASK))
2024:.\Generated_Source\PSoC4/CapSense_CSHL.c ****                                */
2025:.\Generated_Source\PSoC4/CapSense_CSHL.c **** 
2026:.\Generated_Source\PSoC4/CapSense_CSHL.c ****                         #if (0u != (CapSense_AVERAGING_FILTER & \
2027:.\Generated_Source\PSoC4/CapSense_CSHL.c ****                                     CapSense_RADIAL_SLIDERS_POS_FILTERS_MASK))
2028:.\Generated_Source\PSoC4/CapSense_CSHL.c ****                             if (0u != (posFiltersMask & CapSense_AVERAGING_FILTER))
2029:.\Generated_Source\PSoC4/CapSense_CSHL.c ****                             {
2030:.\Generated_Source\PSoC4/CapSense_CSHL.c ****                                 tempPos = (uint8) position;
2031:.\Generated_Source\PSoC4/CapSense_CSHL.c ****                                 position = CapSense_AveragingFilter(position, 
2032:.\Generated_Source\PSoC4/CapSense_CSHL.c ****                                                                        CapSense_posFiltersData[posI
2033:.\Generated_Source\PSoC4/CapSense_CSHL.c ****                                                                        CapSense_posFiltersData[posI
2034:.\Generated_Source\PSoC4/CapSense_CSHL.c ****                                 CapSense_posFiltersData[posIndex+1u]= CapSense_posFiltersData[posIn
2035:.\Generated_Source\PSoC4/CapSense_CSHL.c ****                                 CapSense_posFiltersData[posIndex] = tempPos;
2036:.\Generated_Source\PSoC4/CapSense_CSHL.c ****                             }
2037:.\Generated_Source\PSoC4/CapSense_CSHL.c ****                         #endif /* (0u != (CapSense_AVERAGING_FILTER & \
2038:.\Generated_Source\PSoC4/CapSense_CSHL.c ****                                *          CapSense_RADIAL_SLIDERS_POS_FILTERS_MASK))
2039:.\Generated_Source\PSoC4/CapSense_CSHL.c ****                                */
2040:.\Generated_Source\PSoC4/CapSense_CSHL.c **** 
2041:.\Generated_Source\PSoC4/CapSense_CSHL.c ****                         #if (0u != (CapSense_IIR2_FILTER & CapSense_RADIAL_SLIDERS_POS_FILTERS_MASK
2042:.\Generated_Source\PSoC4/CapSense_CSHL.c ****                             if (0u != (posFiltersMask & CapSense_IIR2_FILTER))
2043:.\Generated_Source\PSoC4/CapSense_CSHL.c ****                             {
2044:.\Generated_Source\PSoC4/CapSense_CSHL.c ****                                 position = CapSense_IIR2Filter(position,
ARM GAS  C:\Users\ALEXAN~1\AppData\Local\Temp\cc9HWPtE.s 			page 61


2045:.\Generated_Source\PSoC4/CapSense_CSHL.c ****                                                                     (uint16)CapSense_posFiltersData
2046:.\Generated_Source\PSoC4/CapSense_CSHL.c ****                                 CapSense_posFiltersData[posIndex] = (uint8) position;
2047:.\Generated_Source\PSoC4/CapSense_CSHL.c ****                             }
2048:.\Generated_Source\PSoC4/CapSense_CSHL.c ****                         #endif /* (0u != (CapSense_IIR2_FILTER & 
2049:.\Generated_Source\PSoC4/CapSense_CSHL.c ****                                *          CapSense_RADIAL_SLIDERS_POS_FILTERS_MASK))
2050:.\Generated_Source\PSoC4/CapSense_CSHL.c ****                                */
2051:.\Generated_Source\PSoC4/CapSense_CSHL.c **** 
2052:.\Generated_Source\PSoC4/CapSense_CSHL.c ****                         #if (0u != (CapSense_IIR4_FILTER & CapSense_RADIAL_SLIDERS_POS_FILTERS_MASK
2053:.\Generated_Source\PSoC4/CapSense_CSHL.c ****                             if (0u != (posFiltersMask & CapSense_IIR4_FILTER))
2054:.\Generated_Source\PSoC4/CapSense_CSHL.c ****                             {
2055:.\Generated_Source\PSoC4/CapSense_CSHL.c ****                                 position = CapSense_IIR4Filter(position,
2056:.\Generated_Source\PSoC4/CapSense_CSHL.c ****                                                                     (uint16)CapSense_posFiltersData
2057:.\Generated_Source\PSoC4/CapSense_CSHL.c ****                                 CapSense_posFiltersData[posIndex] = (uint8) position;
2058:.\Generated_Source\PSoC4/CapSense_CSHL.c ****                             }
2059:.\Generated_Source\PSoC4/CapSense_CSHL.c ****                         #endif /* (0u != (CapSense_IIR4_FILTER & 
2060:.\Generated_Source\PSoC4/CapSense_CSHL.c ****                                *          CapSense_RADIAL_SLIDERS_POS_FILTERS_MASK))
2061:.\Generated_Source\PSoC4/CapSense_CSHL.c ****                                */
2062:.\Generated_Source\PSoC4/CapSense_CSHL.c **** 
2063:.\Generated_Source\PSoC4/CapSense_CSHL.c ****                         #if (0u != (CapSense_JITTER_FILTER & CapSense_RADIAL_SLIDERS_POS_FILTERS_MA
2064:.\Generated_Source\PSoC4/CapSense_CSHL.c ****                             if (0u != (posFiltersMask & CapSense_JITTER_FILTER))
2065:.\Generated_Source\PSoC4/CapSense_CSHL.c ****                             {
2066:.\Generated_Source\PSoC4/CapSense_CSHL.c ****                                 position = CapSense_JitterFilter(position, 
2067:.\Generated_Source\PSoC4/CapSense_CSHL.c ****                                                                          CapSense_posFiltersData[po
2068:.\Generated_Source\PSoC4/CapSense_CSHL.c ****                                 CapSense_posFiltersData[posIndex] = (uint8) position;
2069:.\Generated_Source\PSoC4/CapSense_CSHL.c ****                             }
2070:.\Generated_Source\PSoC4/CapSense_CSHL.c ****                         #endif /* (0u != (CapSense_JITTER_FILTER &
2071:.\Generated_Source\PSoC4/CapSense_CSHL.c ****                                *           CapSense_RADIAL_SLIDERS_POS_FILTERS_MASK))
2072:.\Generated_Source\PSoC4/CapSense_CSHL.c ****                                */
2073:.\Generated_Source\PSoC4/CapSense_CSHL.c ****                     }
2074:.\Generated_Source\PSoC4/CapSense_CSHL.c ****                 }
2075:.\Generated_Source\PSoC4/CapSense_CSHL.c ****             #endif /* (0u != CapSense_RADIAL_SLIDERS_POS_FILTERS_MASK) */
2076:.\Generated_Source\PSoC4/CapSense_CSHL.c **** 
2077:.\Generated_Source\PSoC4/CapSense_CSHL.c ****         }
2078:.\Generated_Source\PSoC4/CapSense_CSHL.c ****         else
2079:.\Generated_Source\PSoC4/CapSense_CSHL.c ****         {
2080:.\Generated_Source\PSoC4/CapSense_CSHL.c ****             /* Maximum was not found */
2081:.\Generated_Source\PSoC4/CapSense_CSHL.c ****             position = 0xFFFFu;
 1354              		.loc 1 2081 0
 1355 0024 0148     		ldr	r0, .L113
 1356              	.LVL166:
 1357              	.L111:
2082:.\Generated_Source\PSoC4/CapSense_CSHL.c **** 
2083:.\Generated_Source\PSoC4/CapSense_CSHL.c ****             #if (0u != CapSense_RADIAL_SLIDERS_POS_FILTERS_MASK)
2084:.\Generated_Source\PSoC4/CapSense_CSHL.c ****                 /* Reset filters */
2085:.\Generated_Source\PSoC4/CapSense_CSHL.c ****                 if((posFiltersMask & CapSense_ANY_POS_FILTER) != 0u)
2086:.\Generated_Source\PSoC4/CapSense_CSHL.c ****                 {
2087:.\Generated_Source\PSoC4/CapSense_CSHL.c ****                     CapSense_posFiltersData[firstTimeIndex] = 0u;
2088:.\Generated_Source\PSoC4/CapSense_CSHL.c ****                 }
2089:.\Generated_Source\PSoC4/CapSense_CSHL.c ****             #endif /* (0u != CapSense_RADIAL_SLIDERS_POS_FILTERS_MASK) */
2090:.\Generated_Source\PSoC4/CapSense_CSHL.c ****         }
2091:.\Generated_Source\PSoC4/CapSense_CSHL.c ****         
2092:.\Generated_Source\PSoC4/CapSense_CSHL.c ****         return (position);
2093:.\Generated_Source\PSoC4/CapSense_CSHL.c ****     }
 1358              		.loc 1 2093 0
 1359 0026 03B0     		add	sp, sp, #12
 1360              		@ sp needed
 1361 0028 00BD     		pop	{pc}
ARM GAS  C:\Users\ALEXAN~1\AppData\Local\Temp\cc9HWPtE.s 			page 62


 1362              	.L114:
 1363 002a C046     		.align	2
 1364              	.L113:
 1365 002c FFFF0000 		.word	65535
 1366              		.cfi_endproc
 1367              	.LFE59:
 1368              		.size	CapSense_GetRadialCentroidPos, .-CapSense_GetRadialCentroidPos
 1369              		.section	.text.CapSense_GetWidgetNumber,"ax",%progbits
 1370              		.align	2
 1371              		.global	CapSense_GetWidgetNumber
 1372              		.code	16
 1373              		.thumb_func
 1374              		.type	CapSense_GetWidgetNumber, %function
 1375              	CapSense_GetWidgetNumber:
 1376              	.LFB60:
2094:.\Generated_Source\PSoC4/CapSense_CSHL.c **** #endif /* ((CapSense_TOTAL_RADIAL_SLIDERS_COUNT > 0u) || (CapSense_TOTAL_LINEAR_SLIDERS_COUNT > 0u)
2095:.\Generated_Source\PSoC4/CapSense_CSHL.c **** 
2096:.\Generated_Source\PSoC4/CapSense_CSHL.c **** 
2097:.\Generated_Source\PSoC4/CapSense_CSHL.c **** #if(CapSense_TOTAL_TOUCH_PADS_BASIC_COUNT > 0u)
2098:.\Generated_Source\PSoC4/CapSense_CSHL.c ****     /*******************************************************************************
2099:.\Generated_Source\PSoC4/CapSense_CSHL.c ****     * Function Name: CapSense_GetTouchCentroidPos
2100:.\Generated_Source\PSoC4/CapSense_CSHL.c ****     ********************************************************************************
2101:.\Generated_Source\PSoC4/CapSense_CSHL.c ****     *
2102:.\Generated_Source\PSoC4/CapSense_CSHL.c ****     * Summary:
2103:.\Generated_Source\PSoC4/CapSense_CSHL.c ****     *  If a finger is present on a touchpad, this function calculates the X and Y
2104:.\Generated_Source\PSoC4/CapSense_CSHL.c ****     *  position of the finger by calculating the centroids within touchpad specified
2105:.\Generated_Source\PSoC4/CapSense_CSHL.c ****     *  range. The X and Y positions are calculated according to the API resolutions set in the
2106:.\Generated_Source\PSoC4/CapSense_CSHL.c ****     *  CapSense customizer. Returns 1 if a finger is on the touchpad.
2107:.\Generated_Source\PSoC4/CapSense_CSHL.c ****     *  The position filter is applied to the result if enabled.
2108:.\Generated_Source\PSoC4/CapSense_CSHL.c ****     *  This function is available only if a touch pad is defined by the CapSense
2109:.\Generated_Source\PSoC4/CapSense_CSHL.c ****     *  customizer.
2110:.\Generated_Source\PSoC4/CapSense_CSHL.c ****     *
2111:.\Generated_Source\PSoC4/CapSense_CSHL.c ****     * Parameters:
2112:.\Generated_Source\PSoC4/CapSense_CSHL.c ****     *  widget:  Widget number. 
2113:.\Generated_Source\PSoC4/CapSense_CSHL.c ****     *  For every touchpad widget there are defines in this format:
2114:.\Generated_Source\PSoC4/CapSense_CSHL.c ****     *  #define CapSense_"widget_name"__TP            5
2115:.\Generated_Source\PSoC4/CapSense_CSHL.c ****     *
2116:.\Generated_Source\PSoC4/CapSense_CSHL.c ****     *  pos:     Pointer to the array of two uint16 elements, where result
2117:.\Generated_Source\PSoC4/CapSense_CSHL.c ****     *  result of calculation of X and Y position are stored.
2118:.\Generated_Source\PSoC4/CapSense_CSHL.c ****     *  pos[0u]  - position of X
2119:.\Generated_Source\PSoC4/CapSense_CSHL.c ****     *  pos[1u]  - position of Y
2120:.\Generated_Source\PSoC4/CapSense_CSHL.c ****     *
2121:.\Generated_Source\PSoC4/CapSense_CSHL.c ****     * Return:
2122:.\Generated_Source\PSoC4/CapSense_CSHL.c ****     *  Returns a 1 if a finger is on the touch pad, 0 - if not.
2123:.\Generated_Source\PSoC4/CapSense_CSHL.c **** 	*
2124:.\Generated_Source\PSoC4/CapSense_CSHL.c **** 	* Global Variables:
2125:.\Generated_Source\PSoC4/CapSense_CSHL.c **** 	*  None.
2126:.\Generated_Source\PSoC4/CapSense_CSHL.c **** 	*
2127:.\Generated_Source\PSoC4/CapSense_CSHL.c ****     * Side Effects:
2128:.\Generated_Source\PSoC4/CapSense_CSHL.c ****     *   There are no checks of the widget type argument provided to this function.
2129:.\Generated_Source\PSoC4/CapSense_CSHL.c ****     *   The unproper widget type provided will cause unexpected position
2130:.\Generated_Source\PSoC4/CapSense_CSHL.c ****     *   calculations.
2131:.\Generated_Source\PSoC4/CapSense_CSHL.c ****     *
2132:.\Generated_Source\PSoC4/CapSense_CSHL.c ****     *******************************************************************************/
2133:.\Generated_Source\PSoC4/CapSense_CSHL.c ****     uint32 CapSense_GetTouchCentroidPos(uint32 widget, uint16* pos)
2134:.\Generated_Source\PSoC4/CapSense_CSHL.c ****     {
2135:.\Generated_Source\PSoC4/CapSense_CSHL.c ****         #if (0u != CapSense_TOUCH_PADS_POS_FILTERS_MASK)
ARM GAS  C:\Users\ALEXAN~1\AppData\Local\Temp\cc9HWPtE.s 			page 63


2136:.\Generated_Source\PSoC4/CapSense_CSHL.c ****             uint8 posXIndex;
2137:.\Generated_Source\PSoC4/CapSense_CSHL.c ****             uint8 posYIndex;
2138:.\Generated_Source\PSoC4/CapSense_CSHL.c ****             uint8 firstTimeIndex = CapSense_posFiltersData[widget];
2139:.\Generated_Source\PSoC4/CapSense_CSHL.c ****             uint8 posFiltersMask = CapSense_posFiltersMask[widget];
2140:.\Generated_Source\PSoC4/CapSense_CSHL.c ****         #endif /* (0u != CapSense_TOUCH_PADS_POS_FILTERS_MASK) */
2141:.\Generated_Source\PSoC4/CapSense_CSHL.c **** 
2142:.\Generated_Source\PSoC4/CapSense_CSHL.c ****         #if ((0u != (CapSense_MEDIAN_FILTER & CapSense_TOUCH_PADS_POS_FILTERS_MASK)) || \
2143:.\Generated_Source\PSoC4/CapSense_CSHL.c ****              (0u != (CapSense_AVERAGING_FILTER & CapSense_TOUCH_PADS_POS_FILTERS_MASK)))
2144:.\Generated_Source\PSoC4/CapSense_CSHL.c ****             uint16 tempPos;
2145:.\Generated_Source\PSoC4/CapSense_CSHL.c ****         #endif /* ((0u != (CapSense_MEDIAN_FILTER & CapSense_TOUCH_PADS_POS_FILTERS_MASK)) || \
2146:.\Generated_Source\PSoC4/CapSense_CSHL.c ****                *   (0u != (CapSense_AVERAGING_FILTER & CapSense_TOUCH_PADS_POS_FILTERS_MASK)))
2147:.\Generated_Source\PSoC4/CapSense_CSHL.c ****                */
2148:.\Generated_Source\PSoC4/CapSense_CSHL.c **** 
2149:.\Generated_Source\PSoC4/CapSense_CSHL.c ****         uint8 MaxX;
2150:.\Generated_Source\PSoC4/CapSense_CSHL.c ****         uint8 MaxY;
2151:.\Generated_Source\PSoC4/CapSense_CSHL.c ****         uint8 posX;
2152:.\Generated_Source\PSoC4/CapSense_CSHL.c ****         uint8 posY;
2153:.\Generated_Source\PSoC4/CapSense_CSHL.c ****         uint32 touch = 0u;
2154:.\Generated_Source\PSoC4/CapSense_CSHL.c ****         uint8 offset = CapSense_rawDataIndex[widget];
2155:.\Generated_Source\PSoC4/CapSense_CSHL.c ****         uint8 count = CapSense_numberOfSensors[widget];
2156:.\Generated_Source\PSoC4/CapSense_CSHL.c ****         
2157:.\Generated_Source\PSoC4/CapSense_CSHL.c ****         /* Find Maximum within X centroid */
2158:.\Generated_Source\PSoC4/CapSense_CSHL.c ****         #if (CapSense_IS_DIPLEX_SLIDER)
2159:.\Generated_Source\PSoC4/CapSense_CSHL.c ****             MaxX = CapSense_FindMaximum(offset, count, CapSense_fingerThreshold[widget], 0u);
2160:.\Generated_Source\PSoC4/CapSense_CSHL.c ****         #else
2161:.\Generated_Source\PSoC4/CapSense_CSHL.c ****             MaxX = CapSense_FindMaximum(offset, count, CapSense_fingerThreshold[widget]);
2162:.\Generated_Source\PSoC4/CapSense_CSHL.c ****         #endif /* (CapSense_IS_DIPLEX_SLIDER) */
2163:.\Generated_Source\PSoC4/CapSense_CSHL.c **** 
2164:.\Generated_Source\PSoC4/CapSense_CSHL.c ****         if (MaxX != CapSense_MAXIMUM_CENTROID)
2165:.\Generated_Source\PSoC4/CapSense_CSHL.c ****         {
2166:.\Generated_Source\PSoC4/CapSense_CSHL.c ****             offset = CapSense_rawDataIndex[widget + 1u];
2167:.\Generated_Source\PSoC4/CapSense_CSHL.c ****             count = CapSense_numberOfSensors[widget + 1u];
2168:.\Generated_Source\PSoC4/CapSense_CSHL.c **** 
2169:.\Generated_Source\PSoC4/CapSense_CSHL.c ****             /* Find Maximum within Y centroid */
2170:.\Generated_Source\PSoC4/CapSense_CSHL.c ****             #if (CapSense_IS_DIPLEX_SLIDER)
2171:.\Generated_Source\PSoC4/CapSense_CSHL.c ****                 MaxY = CapSense_FindMaximum(offset, count, CapSense_fingerThreshold[widget + 1u], 0
2172:.\Generated_Source\PSoC4/CapSense_CSHL.c ****             #else
2173:.\Generated_Source\PSoC4/CapSense_CSHL.c ****                 MaxY = CapSense_FindMaximum(offset, count, CapSense_fingerThreshold[widget + 1u]);
2174:.\Generated_Source\PSoC4/CapSense_CSHL.c ****             #endif /* (CapSense_IS_DIPLEX_SLIDER) */
2175:.\Generated_Source\PSoC4/CapSense_CSHL.c **** 
2176:.\Generated_Source\PSoC4/CapSense_CSHL.c ****             if (MaxY != CapSense_MAXIMUM_CENTROID)
2177:.\Generated_Source\PSoC4/CapSense_CSHL.c ****             {
