ARM GAS  C:\Users\ALEXAN~1\AppData\Local\Temp\cc386xIo.s 			page 1


   1              		.cpu cortex-m0
   2              		.fpu softvfp
   3              		.eabi_attribute 20, 1
   4              		.eabi_attribute 21, 1
   5              		.eabi_attribute 23, 3
   6              		.eabi_attribute 24, 1
   7              		.eabi_attribute 25, 1
   8              		.eabi_attribute 26, 1
   9              		.eabi_attribute 30, 1
  10              		.eabi_attribute 34, 0
  11              		.eabi_attribute 18, 4
  12              		.code	16
  13              		.file	"_BLE.c"
  14              		.text
  15              	.Ltext0:
  16              		.cfi_sections	.debug_frame
  17              		.section	.text._BLE_Init,"ax",%progbits
  18              		.align	2
  19              		.global	_BLE_Init
  20              		.code	16
  21              		.thumb_func
  22              		.type	_BLE_Init, %function
  23              	_BLE_Init:
  24              	.LFB35:
  25              		.file 1 ".\\_BLE.c"
   1:.\_BLE.c      **** /****************************************************************************
   2:.\_BLE.c      **** *
   3:.\_BLE.c      **** * Project Name		: PSoC CapSense 2 BLE
   4:.\_BLE.c      **** *
   5:.\_BLE.c      **** * File Name			: _BLE.c
   6:.\_BLE.c      **** * Version 			: 1.0
   7:.\_BLE.c      **** *
   8:.\_BLE.c      **** * Device Used		: CY8C4247LQI-BL483
   9:.\_BLE.c      **** * Software Used		: PSoC Creator 3.3
  10:.\_BLE.c      **** * Compiler    		: ARM GCC 4.8.4, ARM MDK Generic
  11:.\_BLE.c      **** * Related Hardware	: CY8CKIT-042-BLE Bluetooth Low Energy Pioneer Kit 
  12:.\_BLE.c      **** *
  13:.\_BLE.c      **** * Owner             : A. BERNIER
  14:.\_BLE.c      **** *
  15:.\_BLE.c      **** *****************************************************************************/
  16:.\_BLE.c      **** 
  17:.\_BLE.c      **** 
  18:.\_BLE.c      **** /*****************************************************************************
  19:.\_BLE.c      **** * Included headers
  20:.\_BLE.c      **** *****************************************************************************/
  21:.\_BLE.c      **** #include "_BLE.h"
  22:.\_BLE.c      **** #include "vector.h"
  23:.\_BLE.c      **** #include "crc.h"
  24:.\_BLE.c      **** 
  25:.\_BLE.c      **** 
  26:.\_BLE.c      **** /*****************************************************************************
  27:.\_BLE.c      **** * Local global variables
  28:.\_BLE.c      **** *****************************************************************************/
  29:.\_BLE.c      **** // Stores connection parameters.
  30:.\_BLE.c      **** CYBLE_CONN_HANDLE_T  connectionHandle;
  31:.\_BLE.c      **** 
  32:.\_BLE.c      **** // Status flag for the Stack Busy state. This flag is used to notify the
ARM GAS  C:\Users\ALEXAN~1\AppData\Local\Temp\cc386xIo.s 			page 2


  33:.\_BLE.c      **** // application  whether there is stack buffer free to push more data or not.
  34:.\_BLE.c      **** uint8 _BLE_busyStatus;
  35:.\_BLE.c      **** 
  36:.\_BLE.c      **** // This flag is used to know whether a Central device has been connected.
  37:.\_BLE.c      **** // This is updated in BLE event callback function.
  38:.\_BLE.c      **** uint8 _BLE_deviceConnected;
  39:.\_BLE.c      **** 
  40:.\_BLE.c      **** // Current Connection Parameters used by controller.
  41:.\_BLE.c      **** CYBLE_GAP_CONN_PARAM_UPDATED_IN_CONTROLLER_T connectionParameters;
  42:.\_BLE.c      **** 
  43:.\_BLE.c      **** // Size of the MTU used by the BLE stack.
  44:.\_BLE.c      **** uint16 currentMTU;
  45:.\_BLE.c      **** 
  46:.\_BLE.c      **** // These flags are set when the Central device writes to CCCD of the
  47:.\_BLE.c      **** // CapSense sensors Characteristic to enable notifications or indications.
  48:.\_BLE.c      **** uint8 sendDataNotifications;
  49:.\_BLE.c      **** uint8 sendDataIndications;
  50:.\_BLE.c      **** 
  51:.\_BLE.c      **** // These flags are set when the Central device writes to CCCD of the
  52:.\_BLE.c      **** // Status Characteristic to enable notifications or indications.
  53:.\_BLE.c      **** uint8 sendStatusNotifications;
  54:.\_BLE.c      **** uint8 sendStatusIndications;
  55:.\_BLE.c      **** 
  56:.\_BLE.c      **** // These flags control the behavior of the main function.
  57:.\_BLE.c      **** uint8 _BLE_acquireData;
  58:.\_BLE.c      **** uint8 _BLE_sendData;
  59:.\_BLE.c      **** uint8 _BLE_sendStatus;
  60:.\_BLE.c      **** uint8 _BLE_sendDataSynchronously;
  61:.\_BLE.c      **** uint8 _BLE_restartAdvertisement;
  62:.\_BLE.c      **** uint8 _BLE_resetNeeded;
  63:.\_BLE.c      **** 
  64:.\_BLE.c      **** // These flags are used to let application update the CCCD value of the
  65:.\_BLE.c      **** // different characteristics.
  66:.\_BLE.c      **** uint8 updateSensorsCCCDreq;
  67:.\_BLE.c      **** uint8 updateStatusCCCDreq;
  68:.\_BLE.c      **** 
  69:.\_BLE.c      **** // This flag is used to let application update the values of the
  70:.\_BLE.c      **** // control characteristic.
  71:.\_BLE.c      **** uint8 updateControlValuesReq;
  72:.\_BLE.c      **** 
  73:.\_BLE.c      **** 
  74:.\_BLE.c      **** //////////////////////////////////////////////////////////////////////////////
  75:.\_BLE.c      **** // DEBUGGING VARIABLES
  76:.\_BLE.c      **** //////////////////////////////////////////////////////////////////////////////
  77:.\_BLE.c      **** uint32 eventCodesLog[256];
  78:.\_BLE.c      **** uint8 pointer = 0;
  79:.\_BLE.c      **** 
  80:.\_BLE.c      **** 
  81:.\_BLE.c      **** /*****************************************************************************
  82:.\_BLE.c      **** * Function Name: _BLE_Init()
  83:.\_BLE.c      **** ******************************************************************************
  84:.\_BLE.c      **** * Summary:
  85:.\_BLE.c      **** *   Initialize the Bluetooth Low Energy module.
  86:.\_BLE.c      **** *
  87:.\_BLE.c      **** * Parameters:
  88:.\_BLE.c      **** *   None.
  89:.\_BLE.c      **** *
ARM GAS  C:\Users\ALEXAN~1\AppData\Local\Temp\cc386xIo.s 			page 3


  90:.\_BLE.c      **** * Return:
  91:.\_BLE.c      **** *   None.
  92:.\_BLE.c      **** *
  93:.\_BLE.c      **** * Note:
  94:.\_BLE.c      **** *
  95:.\_BLE.c      **** *****************************************************************************/
  96:.\_BLE.c      **** void _BLE_Init(void)
  97:.\_BLE.c      **** {
  26              		.loc 1 97 0
  27              		.cfi_startproc
  28 0000 08B5     		push	{r3, lr}
  29              		.cfi_def_cfa_offset 8
  30              		.cfi_offset 3, -8
  31              		.cfi_offset 14, -4
  98:.\_BLE.c      ****     // Enable the BLE module and register the callback function for all the events.
  99:.\_BLE.c      ****     CyBle_Start(EventHandler);
  32              		.loc 1 99 0
  33 0002 1148     		ldr	r0, .L2
  34 0004 FFF7FEFF 		bl	CyBle_Start
  35              	.LVL0:
 100:.\_BLE.c      ****     
 101:.\_BLE.c      ****     // Initialize the busy status flag.
 102:.\_BLE.c      ****     _BLE_busyStatus = CYBLE_STACK_STATE_FREE;
  36              		.loc 1 102 0
  37 0008 0023     		mov	r3, #0
  38 000a 104A     		ldr	r2, .L2+4
  39 000c 1370     		strb	r3, [r2]
 103:.\_BLE.c      ****     
 104:.\_BLE.c      ****     // Initialize the connection status flag.
 105:.\_BLE.c      ****     _BLE_deviceConnected = FALSE;
  40              		.loc 1 105 0
  41 000e 104A     		ldr	r2, .L2+8
  42 0010 1370     		strb	r3, [r2]
 106:.\_BLE.c      ****     
 107:.\_BLE.c      ****     // Initialize flags.
 108:.\_BLE.c      ****     sendDataNotifications = FALSE;
  43              		.loc 1 108 0
  44 0012 104A     		ldr	r2, .L2+12
  45 0014 1370     		strb	r3, [r2]
 109:.\_BLE.c      ****     sendDataIndications = FALSE;
  46              		.loc 1 109 0
  47 0016 104A     		ldr	r2, .L2+16
  48 0018 1370     		strb	r3, [r2]
 110:.\_BLE.c      ****     sendStatusNotifications = FALSE;
  49              		.loc 1 110 0
  50 001a 104A     		ldr	r2, .L2+20
  51 001c 1370     		strb	r3, [r2]
 111:.\_BLE.c      ****     sendStatusIndications = FALSE;
  52              		.loc 1 111 0
  53 001e 104A     		ldr	r2, .L2+24
  54 0020 1370     		strb	r3, [r2]
 112:.\_BLE.c      ****     
 113:.\_BLE.c      ****     updateSensorsCCCDreq = FALSE;
  55              		.loc 1 113 0
  56 0022 104A     		ldr	r2, .L2+28
  57 0024 1370     		strb	r3, [r2]
 114:.\_BLE.c      ****     updateStatusCCCDreq = FALSE;
ARM GAS  C:\Users\ALEXAN~1\AppData\Local\Temp\cc386xIo.s 			page 4


  58              		.loc 1 114 0
  59 0026 104A     		ldr	r2, .L2+32
  60 0028 1370     		strb	r3, [r2]
 115:.\_BLE.c      ****     updateControlValuesReq = FALSE;
  61              		.loc 1 115 0
  62 002a 104A     		ldr	r2, .L2+36
  63 002c 1370     		strb	r3, [r2]
 116:.\_BLE.c      ****     
 117:.\_BLE.c      ****     _BLE_acquireData = FALSE;
  64              		.loc 1 117 0
  65 002e 104A     		ldr	r2, .L2+40
  66 0030 1370     		strb	r3, [r2]
 118:.\_BLE.c      ****     _BLE_sendData = FALSE;
  67              		.loc 1 118 0
  68 0032 104A     		ldr	r2, .L2+44
  69 0034 1370     		strb	r3, [r2]
 119:.\_BLE.c      ****     _BLE_sendStatus = FALSE;
  70              		.loc 1 119 0
  71 0036 104A     		ldr	r2, .L2+48
  72 0038 1370     		strb	r3, [r2]
 120:.\_BLE.c      ****     _BLE_sendDataSynchronously = FALSE;
  73              		.loc 1 120 0
  74 003a 104A     		ldr	r2, .L2+52
  75 003c 1370     		strb	r3, [r2]
 121:.\_BLE.c      ****     _BLE_restartAdvertisement = FALSE;
  76              		.loc 1 121 0
  77 003e 104A     		ldr	r2, .L2+56
  78 0040 1370     		strb	r3, [r2]
 122:.\_BLE.c      ****     _BLE_resetNeeded = FALSE;
  79              		.loc 1 122 0
  80 0042 104A     		ldr	r2, .L2+60
  81 0044 1370     		strb	r3, [r2]
 123:.\_BLE.c      **** }
  82              		.loc 1 123 0
  83              		@ sp needed
  84 0046 08BD     		pop	{r3, pc}
  85              	.L3:
  86              		.align	2
  87              	.L2:
  88 0048 00000000 		.word	EventHandler
  89 004c 00000000 		.word	_BLE_busyStatus
  90 0050 00000000 		.word	_BLE_deviceConnected
  91 0054 00000000 		.word	sendDataNotifications
  92 0058 00000000 		.word	sendDataIndications
  93 005c 00000000 		.word	sendStatusNotifications
  94 0060 00000000 		.word	sendStatusIndications
  95 0064 00000000 		.word	updateSensorsCCCDreq
  96 0068 00000000 		.word	updateStatusCCCDreq
  97 006c 00000000 		.word	updateControlValuesReq
  98 0070 00000000 		.word	_BLE_acquireData
  99 0074 00000000 		.word	_BLE_sendData
 100 0078 00000000 		.word	_BLE_sendStatus
 101 007c 00000000 		.word	_BLE_sendDataSynchronously
 102 0080 00000000 		.word	_BLE_restartAdvertisement
 103 0084 00000000 		.word	_BLE_resetNeeded
 104              		.cfi_endproc
 105              	.LFE35:
ARM GAS  C:\Users\ALEXAN~1\AppData\Local\Temp\cc386xIo.s 			page 5


 106              		.size	_BLE_Init, .-_BLE_Init
 107              		.section	.text._BLE_Reset,"ax",%progbits
 108              		.align	2
 109              		.global	_BLE_Reset
 110              		.code	16
 111              		.thumb_func
 112              		.type	_BLE_Reset, %function
 113              	_BLE_Reset:
 114              	.LFB36:
 124:.\_BLE.c      **** 
 125:.\_BLE.c      **** 
 126:.\_BLE.c      **** /*****************************************************************************
 127:.\_BLE.c      **** * Function Name: _BLE_Reset()
 128:.\_BLE.c      **** ******************************************************************************
 129:.\_BLE.c      **** * Summary:
 130:.\_BLE.c      **** *   Reset the BLE variables.
 131:.\_BLE.c      **** *
 132:.\_BLE.c      **** * Parameters:
 133:.\_BLE.c      **** *   None.
 134:.\_BLE.c      **** *
 135:.\_BLE.c      **** * Return:
 136:.\_BLE.c      **** *   None.
 137:.\_BLE.c      **** *
 138:.\_BLE.c      **** * Note:
 139:.\_BLE.c      **** *
 140:.\_BLE.c      **** *****************************************************************************/
 141:.\_BLE.c      **** void _BLE_Reset(void)
 142:.\_BLE.c      **** {
 115              		.loc 1 142 0
 116              		.cfi_startproc
 143:.\_BLE.c      ****     // Reset connection handle.
 144:.\_BLE.c      ****     connectionHandle.attId = 0;
 117              		.loc 1 144 0
 118 0000 0E4A     		ldr	r2, .L5
 119 0002 0023     		mov	r3, #0
 120 0004 5370     		strb	r3, [r2, #1]
 145:.\_BLE.c      ****     connectionHandle.bdHandle = 0;
 121              		.loc 1 145 0
 122 0006 1370     		strb	r3, [r2]
 146:.\_BLE.c      ****     
 147:.\_BLE.c      ****     // Reset flags.
 148:.\_BLE.c      ****     sendDataNotifications = FALSE;
 123              		.loc 1 148 0
 124 0008 0D4A     		ldr	r2, .L5+4
 125 000a 1370     		strb	r3, [r2]
 149:.\_BLE.c      ****     sendDataIndications = FALSE;
 126              		.loc 1 149 0
 127 000c 0D4A     		ldr	r2, .L5+8
 128 000e 1370     		strb	r3, [r2]
 150:.\_BLE.c      ****     sendStatusNotifications = FALSE;
 129              		.loc 1 150 0
 130 0010 0D4A     		ldr	r2, .L5+12
 131 0012 1370     		strb	r3, [r2]
 151:.\_BLE.c      ****     sendStatusIndications = FALSE;
 132              		.loc 1 151 0
 133 0014 0D4A     		ldr	r2, .L5+16
 134 0016 1370     		strb	r3, [r2]
ARM GAS  C:\Users\ALEXAN~1\AppData\Local\Temp\cc386xIo.s 			page 6


 152:.\_BLE.c      ****     
 153:.\_BLE.c      ****     updateSensorsCCCDreq = FALSE;
 135              		.loc 1 153 0
 136 0018 0D4A     		ldr	r2, .L5+20
 137 001a 1370     		strb	r3, [r2]
 154:.\_BLE.c      ****     updateStatusCCCDreq = FALSE;
 138              		.loc 1 154 0
 139 001c 0D4A     		ldr	r2, .L5+24
 140 001e 1370     		strb	r3, [r2]
 155:.\_BLE.c      ****     updateControlValuesReq = FALSE;
 141              		.loc 1 155 0
 142 0020 0D4A     		ldr	r2, .L5+28
 143 0022 1370     		strb	r3, [r2]
 156:.\_BLE.c      ****     
 157:.\_BLE.c      ****     _BLE_acquireData = FALSE;
 144              		.loc 1 157 0
 145 0024 0D4A     		ldr	r2, .L5+32
 146 0026 1370     		strb	r3, [r2]
 158:.\_BLE.c      ****     _BLE_sendData = FALSE;
 147              		.loc 1 158 0
 148 0028 0D4A     		ldr	r2, .L5+36
 149 002a 1370     		strb	r3, [r2]
 159:.\_BLE.c      ****     _BLE_sendStatus = FALSE;
 150              		.loc 1 159 0
 151 002c 0D4A     		ldr	r2, .L5+40
 152 002e 1370     		strb	r3, [r2]
 160:.\_BLE.c      ****     _BLE_sendDataSynchronously = FALSE;
 153              		.loc 1 160 0
 154 0030 0D4A     		ldr	r2, .L5+44
 155 0032 1370     		strb	r3, [r2]
 161:.\_BLE.c      ****     _BLE_restartAdvertisement = TRUE;
 156              		.loc 1 161 0
 157 0034 0122     		mov	r2, #1
 158 0036 0D4B     		ldr	r3, .L5+48
 159 0038 1A70     		strb	r2, [r3]
 162:.\_BLE.c      **** }
 160              		.loc 1 162 0
 161              		@ sp needed
 162 003a 7047     		bx	lr
 163              	.L6:
 164              		.align	2
 165              	.L5:
 166 003c 00000000 		.word	connectionHandle
 167 0040 00000000 		.word	sendDataNotifications
 168 0044 00000000 		.word	sendDataIndications
 169 0048 00000000 		.word	sendStatusNotifications
 170 004c 00000000 		.word	sendStatusIndications
 171 0050 00000000 		.word	updateSensorsCCCDreq
 172 0054 00000000 		.word	updateStatusCCCDreq
 173 0058 00000000 		.word	updateControlValuesReq
 174 005c 00000000 		.word	_BLE_acquireData
 175 0060 00000000 		.word	_BLE_sendData
 176 0064 00000000 		.word	_BLE_sendStatus
 177 0068 00000000 		.word	_BLE_sendDataSynchronously
 178 006c 00000000 		.word	_BLE_restartAdvertisement
 179              		.cfi_endproc
 180              	.LFE36:
ARM GAS  C:\Users\ALEXAN~1\AppData\Local\Temp\cc386xIo.s 			page 7


 181              		.size	_BLE_Reset, .-_BLE_Reset
 182              		.section	.text._BLE_UpdateCCCD,"ax",%progbits
 183              		.align	2
 184              		.global	_BLE_UpdateCCCD
 185              		.code	16
 186              		.thumb_func
 187              		.type	_BLE_UpdateCCCD, %function
 188              	_BLE_UpdateCCCD:
 189              	.LFB38:
 163:.\_BLE.c      **** 
 164:.\_BLE.c      **** 
 165:.\_BLE.c      **** /*****************************************************************************
 166:.\_BLE.c      **** * Function Name: EventHandler()
 167:.\_BLE.c      **** ******************************************************************************
 168:.\_BLE.c      **** * Summary:
 169:.\_BLE.c      **** *   Handles the events generated by stack and take necessary actions when
 170:.\_BLE.c      **** *   event is received.
 171:.\_BLE.c      **** *
 172:.\_BLE.c      **** * Parameters:
 173:.\_BLE.c      **** *   eventCode - the event code
 174:.\_BLE.c      **** *   *event_params - the event parameters
 175:.\_BLE.c      **** *
 176:.\_BLE.c      **** * Return:
 177:.\_BLE.c      **** *   None.
 178:.\_BLE.c      **** *
 179:.\_BLE.c      **** * Note:
 180:.\_BLE.c      **** *   
 181:.\_BLE.c      **** *****************************************************************************/
 182:.\_BLE.c      **** void EventHandler(uint32 eventCode, void *eventParam)
 183:.\_BLE.c      **** {
 184:.\_BLE.c      ****     // Local variable to store the data received as part of the Write request events.
 185:.\_BLE.c      **** 	CYBLE_GATTS_WRITE_REQ_PARAM_T *wrReqParam;
 186:.\_BLE.c      ****     
 187:.\_BLE.c      ****     // Log all the events.
 188:.\_BLE.c      ****     eventCodesLog[pointer++] = eventCode;
 189:.\_BLE.c      ****     
 190:.\_BLE.c      ****     switch(eventCode)
 191:.\_BLE.c      ****     {
 192:.\_BLE.c      ****         // This event is received when the module is started.
 193:.\_BLE.c      ****         case CYBLE_EVT_STACK_ON: // eventCode == 0x01
 194:.\_BLE.c      ****         
 195:.\_BLE.c      ****             // Start fast advertisement
 196:.\_BLE.c      **** 			_BLE_restartAdvertisement = TRUE;
 197:.\_BLE.c      ****         
 198:.\_BLE.c      ****             break;
 199:.\_BLE.c      ****             
 200:.\_BLE.c      ****         
 201:.\_BLE.c      ****         // This event is received when there is a timeout and application  
 202:.\_BLE.c      ****         // needs to handle the event. Timeout reason is defined by 
 203:.\_BLE.c      ****         // CYBLE_TO_REASON_CODE_T.
 204:.\_BLE.c      ****         case CYBLE_EVT_TIMEOUT: // eventCode == 0x02
 205:.\_BLE.c      ****             
 206:.\_BLE.c      ****             // If triggered by the advertisement timeout.
 207:.\_BLE.c      ****             if( *(CYBLE_TO_REASON_CODE_T *)eventParam == CYBLE_GAP_ADV_MODE_TO ) {
 208:.\_BLE.c      ****             }
 209:.\_BLE.c      ****             
 210:.\_BLE.c      ****             break;
ARM GAS  C:\Users\ALEXAN~1\AppData\Local\Temp\cc386xIo.s 			page 8


 211:.\_BLE.c      ****             
 212:.\_BLE.c      ****         
 213:.\_BLE.c      ****         // This event is generated when the internal stack buffer is full 
 214:.\_BLE.c      **** 		// and no more data can be accepted or the stack has buffer available 
 215:.\_BLE.c      **** 		// and can accept data. This event is used by application to prevent 
 216:.\_BLE.c      ****         // pushing lot of data to stack.
 217:.\_BLE.c      ****         case CYBLE_EVT_STACK_BUSY_STATUS: // eventCode == 0x05
 218:.\_BLE.c      **** 			
 219:.\_BLE.c      **** 			// Extract the present stack status.
 220:.\_BLE.c      ****             _BLE_busyStatus = *(uint8*)eventParam;
 221:.\_BLE.c      ****             
 222:.\_BLE.c      ****             break;
 223:.\_BLE.c      ****             
 224:.\_BLE.c      ****         
 225:.\_BLE.c      ****         // Authentication process failed between two devices. The return value 
 226:.\_BLE.c      ****         // of type CYBLE_GAP_AUTH_FAILED_REASON_T indicates the reason for failure.
 227:.\_BLE.c      ****         case CYBLE_EVT_GAP_AUTH_FAILED: // eventCode == 0x25
 228:.\_BLE.c      ****             
 229:.\_BLE.c      ****             break;
 230:.\_BLE.c      ****                 
 231:.\_BLE.c      ****             
 232:.\_BLE.c      ****         // If the current BLE state is Disconnected, then the Advertisement
 233:.\_BLE.c      ****     	// Start_Stop event implies that advertisement has stopped.
 234:.\_BLE.c      ****         case CYBLE_EVT_GAPP_ADVERTISEMENT_START_STOP: // eventCode == 0x26
 235:.\_BLE.c      ****             
 236:.\_BLE.c      ****             // Restart fast advertisement
 237:.\_BLE.c      ****             if(CyBle_GetState() != CYBLE_STATE_ADVERTISING)
 238:.\_BLE.c      ****                 _BLE_restartAdvertisement = TRUE;
 239:.\_BLE.c      ****             
 240:.\_BLE.c      ****             break;
 241:.\_BLE.c      ****             
 242:.\_BLE.c      ****             
 243:.\_BLE.c      ****         // This event is generated at the GAP Peripheral end after 
 244:.\_BLE.c      ****         // connection is completed with peer Centra  device.
 245:.\_BLE.c      ****         case CYBLE_EVT_GAP_DEVICE_CONNECTED: // eventCode == 0x27
 246:.\_BLE.c      ****             
 247:.\_BLE.c      ****             break;
 248:.\_BLE.c      **** 
 249:.\_BLE.c      ****         
 250:.\_BLE.c      ****         // Disconnected from remote device or failed to establish
 251:.\_BLE.c      ****         // connection. Parameter returned with the event contains pointer to 
 252:.\_BLE.c      ****         // the reason for disconnection.
 253:.\_BLE.c      ****         case CYBLE_EVT_GAP_DEVICE_DISCONNECTED: // eventCode == 0x28
 254:.\_BLE.c      ****             
 255:.\_BLE.c      ****             break;
 256:.\_BLE.c      ****             
 257:.\_BLE.c      ****             
 258:.\_BLE.c      ****         // This event is generated at the GAP Central and the Peripheral end
 259:.\_BLE.c      ****         // after connection parameter update is requested from the host to 
 260:.\_BLE.c      ****         // the controller. Event parameter is a pointer to a structure of type
 261:.\_BLE.c      ****         // CYBLE_GAP_CONN_PARAM_UPDATED_IN_CONTROLLER_T.
 262:.\_BLE.c      ****         case CYBLE_EVT_GAP_CONNECTION_UPDATE_COMPLETE: // eventCode == 0x2A
 263:.\_BLE.c      ****             
 264:.\_BLE.c      ****             break;
 265:.\_BLE.c      ****             
 266:.\_BLE.c      ****                 
 267:.\_BLE.c      ****         // This event is received when device is connected at GATT level.
ARM GAS  C:\Users\ALEXAN~1\AppData\Local\Temp\cc386xIo.s 			page 9


 268:.\_BLE.c      ****         case CYBLE_EVT_GATT_CONNECT_IND: // eventCode == 0x41
 269:.\_BLE.c      ****         
 270:.\_BLE.c      **** 			// Update attribute handle on GATT Connection.
 271:.\_BLE.c      ****             connectionHandle = *(CYBLE_CONN_HANDLE_T *)eventParam;
 272:.\_BLE.c      ****             
 273:.\_BLE.c      ****             // Set the connection status flag.
 274:.\_BLE.c      ****             _BLE_deviceConnected = TRUE;
 275:.\_BLE.c      ****             
 276:.\_BLE.c      ****             // Set all the flags for the current connection.
 277:.\_BLE.c      ****             _BLE_UpdateCCCD();
 278:.\_BLE.c      ****             _BLE_UpdateControl();
 279:.\_BLE.c      ****             _BLE_writeStatusFlags();
 280:.\_BLE.c      ****             
 281:.\_BLE.c      ****             break;
 282:.\_BLE.c      ****         
 283:.\_BLE.c      ****         
 284:.\_BLE.c      ****         // This event is received when device is disconnected at GATT level.
 285:.\_BLE.c      ****         case CYBLE_EVT_GATT_DISCONNECT_IND: // eventCode == 0x42
 286:.\_BLE.c      ****             
 287:.\_BLE.c      ****             // Reset the connection status flag.
 288:.\_BLE.c      ****             _BLE_deviceConnected = FALSE;
 289:.\_BLE.c      ****             
 290:.\_BLE.c      ****             // Reset the connection status flag.
 291:.\_BLE.c      ****             _BLE_resetNeeded = TRUE;
 292:.\_BLE.c      ****             
 293:.\_BLE.c      ****             break;
 294:.\_BLE.c      ****             
 295:.\_BLE.c      ****             
 296:.\_BLE.c      ****         // 'MTU  Exchange  Request'  received  from  GATT  client  device. 
 297:.\_BLE.c      ****         // Event parameter contains the MTU size of type CYBLE_GATT_XCHG_MTU_PARAM_T. 
 298:.\_BLE.c      ****         case CYBLE_EVT_GATTS_XCNHG_MTU_REQ: // eventCode == 0x43
 299:.\_BLE.c      ****             
 300:.\_BLE.c      ****             // Get the MTU size.
 301:.\_BLE.c      ****             CyBle_GattGetMtuSize(&currentMTU);
 302:.\_BLE.c      ****             
 303:.\_BLE.c      ****             // Send the MTU size to the client.
 304:.\_BLE.c      ****             CyBle_GattsExchangeMtuRsp(connectionHandle, currentMTU);
 305:.\_BLE.c      ****             
 306:.\_BLE.c      ****             break;
 307:.\_BLE.c      ****             
 308:.\_BLE.c      ****         
 309:.\_BLE.c      ****         // This event is received when Central device sends a Write command
 310:.\_BLE.c      ****         // on an Attribute.
 311:.\_BLE.c      ****         case CYBLE_EVT_GATTS_WRITE_REQ: // eventCode == 0x4C
 312:.\_BLE.c      ****             
 313:.\_BLE.c      ****             wrReqParam = (CYBLE_GATTS_WRITE_REQ_PARAM_T *) eventParam;
 314:.\_BLE.c      ****             
 315:.\_BLE.c      **** 			// The peripheral has received a write command on the Sensors
 316:.\_BLE.c      ****             // Characteristic CCCD.
 317:.\_BLE.c      ****             if(CYBLE_CAPSENSE_SENSORS_CLIENT_CHARACTERISTIC_CONFIGURATION_DESC_HANDLE ==
 318:.\_BLE.c      ****                 wrReqParam->handleValPair.attrHandle)
 319:.\_BLE.c      ****             {
 320:.\_BLE.c      ****                 // Extract the Write value sent by the Client CCCD.
 321:.\_BLE.c      ****                 if( wrReqParam->handleValPair.value.val[CYBLE_CAPSENSE_SENSORS_CLIENT_CHARACTERISTI
 322:.\_BLE.c      ****                     sendDataNotifications = TRUE;
 323:.\_BLE.c      ****                 else
 324:.\_BLE.c      ****                     sendDataNotifications = FALSE;
ARM GAS  C:\Users\ALEXAN~1\AppData\Local\Temp\cc386xIo.s 			page 10


 325:.\_BLE.c      ****                 
 326:.\_BLE.c      ****                 if( wrReqParam->handleValPair.value.val[CYBLE_CAPSENSE_SENSORS_CLIENT_CHARACTERISTI
 327:.\_BLE.c      **** 				    sendDataIndications = TRUE;
 328:.\_BLE.c      ****                 else
 329:.\_BLE.c      ****                     sendDataIndications = FALSE;
 330:.\_BLE.c      ****                 
 331:.\_BLE.c      ****                 // Set flag to allow CCCD to be updated.
 332:.\_BLE.c      **** 				updateSensorsCCCDreq = TRUE;
 333:.\_BLE.c      ****             }
 334:.\_BLE.c      ****             
 335:.\_BLE.c      ****             // The peripheral has received a write command on the Control
 336:.\_BLE.c      ****             // Characteristic.
 337:.\_BLE.c      ****             else if(CYBLE_CAPSENSE_CONTROL_CHAR_HANDLE ==
 338:.\_BLE.c      ****                 wrReqParam->handleValPair.attrHandle)
 339:.\_BLE.c      ****             {
 340:.\_BLE.c      ****                 // Update 'acquireData' flag:
 341:.\_BLE.c      ****                     // FALSE only if 'Status_Acquiring' is TRUE;
 342:.\_BLE.c      ****                     // TRUE only if 'Status_Ready' is also TRUE.
 343:.\_BLE.c      ****                 if ( Status_Acquiring && !wrReqParam->handleValPair.value.val[CONTROL_ACQUIRE_DATA_
 344:.\_BLE.c      ****                     _BLE_acquireData = FALSE;
 345:.\_BLE.c      ****                 else if ( Status_Ready && wrReqParam->handleValPair.value.val[CONTROL_ACQUIRE_DATA_
 346:.\_BLE.c      ****                     _BLE_acquireData = TRUE;
 347:.\_BLE.c      ****                 
 348:.\_BLE.c      ****                 // Update 'sendData' flag:
 349:.\_BLE.c      ****                     // FALSE only if 'Status_NoMoreData' is TRUE;
 350:.\_BLE.c      ****                     // TRUE only if 'Status_DataAcquired' is also TRUE.
 351:.\_BLE.c      ****                 if ( !wrReqParam->handleValPair.value.val[CONTROL_SEND_DATA_BYTE_MASK] && Status_No
 352:.\_BLE.c      ****                     _BLE_sendData = FALSE;
 353:.\_BLE.c      ****                 else if ( wrReqParam->handleValPair.value.val[CONTROL_SEND_DATA_BYTE_MASK] && Statu
 354:.\_BLE.c      ****                     _BLE_sendData = TRUE;
 355:.\_BLE.c      ****                 
 356:.\_BLE.c      ****                 // Update 'sendDataSyncronously' flag:
 357:.\_BLE.c      ****                     // FALSE only if 'Status_Acquiring' OR 'Status_Ready' is TRUE;
 358:.\_BLE.c      ****                     // TRUE only if 'Status_Ready' is also TRUE.
 359:.\_BLE.c      ****                 if ( (Status_Acquiring || Status_Ready) && !wrReqParam->handleValPair.value.val[CON
 360:.\_BLE.c      ****                     _BLE_sendDataSynchronously = FALSE;
 361:.\_BLE.c      ****                 else if ( Status_Ready && wrReqParam->handleValPair.value.val[CONTROL_SEND_DATA_SYN
 362:.\_BLE.c      ****                     _BLE_sendDataSynchronously = TRUE;
 363:.\_BLE.c      **** 
 364:.\_BLE.c      ****                 
 365:.\_BLE.c      ****                 // Set the flag to allow the control values to be updated.
 366:.\_BLE.c      ****                 updateControlValuesReq = TRUE;
 367:.\_BLE.c      ****             }
 368:.\_BLE.c      ****             
 369:.\_BLE.c      ****             // The peripheral has received a write command on the Status
 370:.\_BLE.c      ****             // Characteristic CCCD.
 371:.\_BLE.c      ****             else if(CYBLE_CAPSENSE_STATUS_CLIENT_CHARACTERISTIC_CONFIGURATION_DESC_HANDLE ==
 372:.\_BLE.c      ****                 wrReqParam->handleValPair.attrHandle)
 373:.\_BLE.c      ****             {
 374:.\_BLE.c      ****                 // Extract the Write value sent by the Client CCCD.
 375:.\_BLE.c      ****                 if( wrReqParam->handleValPair.value.val[CYBLE_CAPSENSE_STATUS_CLIENT_CHARACTERISTIC
 376:.\_BLE.c      ****                     sendStatusNotifications = TRUE;
 377:.\_BLE.c      ****                 else
 378:.\_BLE.c      ****                     sendStatusNotifications = FALSE;
 379:.\_BLE.c      ****                 
 380:.\_BLE.c      ****                 if( wrReqParam->handleValPair.value.val[CYBLE_CAPSENSE_STATUS_CLIENT_CHARACTERISTIC
 381:.\_BLE.c      **** 				    sendStatusIndications = TRUE;
ARM GAS  C:\Users\ALEXAN~1\AppData\Local\Temp\cc386xIo.s 			page 11


 382:.\_BLE.c      ****                 else
 383:.\_BLE.c      ****                     sendStatusIndications = FALSE;
 384:.\_BLE.c      ****                 
 385:.\_BLE.c      ****                 // Set flag to allow CCCD to be updated.
 386:.\_BLE.c      **** 				updateStatusCCCDreq = TRUE;
 387:.\_BLE.c      ****             }
 388:.\_BLE.c      ****             
 389:.\_BLE.c      ****             // Update control flags
 390:.\_BLE.c      ****             _BLE_sendStatus = sendStatusNotifications | sendStatusIndications;
 391:.\_BLE.c      ****             
 392:.\_BLE.c      ****             // Send the response to the write request received.
 393:.\_BLE.c      **** 			CyBle_GattsWriteRsp(connectionHandle);
 394:.\_BLE.c      ****             
 395:.\_BLE.c      ****             break;
 396:.\_BLE.c      ****             
 397:.\_BLE.c      ****             
 398:.\_BLE.c      ****         // Confirmation to indication response from client device. Event
 399:.\_BLE.c      ****         // parameter is a pointer to a structure of type CYBLE_CONN_HANDLE_T. 
 400:.\_BLE.c      ****         case CYBLE_EVT_GATTS_HANDLE_VALUE_CNF: // eventCode == 0x54
 401:.\_BLE.c      ****             
 402:.\_BLE.c      ****             break;
 403:.\_BLE.c      ****             
 404:.\_BLE.c      ****             
 405:.\_BLE.c      ****         // Event parameters for characteristic read value access event 
 406:.\_BLE.c      ****         // generated by BLE Stack upon an access of Characteristic value read  
 407:.\_BLE.c      ****         // for the characteristic definition which has
 408:.\_BLE.c      ****         // CYBLE_GATT_DB_ATTR_CHAR_VAL_RD_EVENT property set.
 409:.\_BLE.c      ****         case CYBLE_EVT_GATTS_READ_CHAR_VAL_ACCESS_REQ: // eventCode == 0x57
 410:.\_BLE.c      ****             
 411:.\_BLE.c      ****             // Make sure all the flags are updated.
 412:.\_BLE.c      ****             _BLE_writeStatusFlags();
 413:.\_BLE.c      ****             
 414:.\_BLE.c      ****             break;
 415:.\_BLE.c      ****     }
 416:.\_BLE.c      ****     
 417:.\_BLE.c      **** }
 418:.\_BLE.c      **** 
 419:.\_BLE.c      **** 
 420:.\_BLE.c      **** /*****************************************************************************
 421:.\_BLE.c      **** * Function Name: _BLE_UpdateCCCD()
 422:.\_BLE.c      **** ******************************************************************************
 423:.\_BLE.c      **** * Summary:
 424:.\_BLE.c      **** *   Update the data handle for notification status and report it to BLE 
 425:.\_BLE.c      **** *	component so that it can be read by Central device.
 426:.\_BLE.c      **** *
 427:.\_BLE.c      **** * Parameters:
 428:.\_BLE.c      **** *   None.
 429:.\_BLE.c      **** *
 430:.\_BLE.c      **** * Return:
 431:.\_BLE.c      **** *   None.
 432:.\_BLE.c      **** *
 433:.\_BLE.c      **** * Note:
 434:.\_BLE.c      **** *   
 435:.\_BLE.c      **** *****************************************************************************/
 436:.\_BLE.c      **** void _BLE_UpdateCCCD(void)
 437:.\_BLE.c      **** {
 190              		.loc 1 437 0
ARM GAS  C:\Users\ALEXAN~1\AppData\Local\Temp\cc386xIo.s 			page 12


 191              		.cfi_startproc
 192 0000 00B5     		push	{lr}
 193              		.cfi_def_cfa_offset 4
 194              		.cfi_offset 14, -4
 195 0002 85B0     		sub	sp, sp, #20
 196              		.cfi_def_cfa_offset 24
 438:.\_BLE.c      **** 	// Local variable to store the wanted CCCD value.
 439:.\_BLE.c      **** 	uint8 CCCDvalue[CCC_DATA_LEN];
 440:.\_BLE.c      ****     
 441:.\_BLE.c      ****     // Handle value to update the CCCD.
 442:.\_BLE.c      ****     CYBLE_GATT_HANDLE_VALUE_PAIR_T CCCDhandle;
 443:.\_BLE.c      **** 
 444:.\_BLE.c      ****     // Update sensors notification/indication attribute only when there has 
 445:.\_BLE.c      ****     // been a write request.
 446:.\_BLE.c      ****     if(updateSensorsCCCDreq && _BLE_deviceConnected)
 197              		.loc 1 446 0
 198 0004 1E4B     		ldr	r3, .L10
 199 0006 1B78     		ldrb	r3, [r3]
 200 0008 002B     		cmp	r3, #0
 201 000a 19D0     		beq	.L8
 202              		.loc 1 446 0 is_stmt 0 discriminator 1
 203 000c 1D4B     		ldr	r3, .L10+4
 204 000e 1B78     		ldrb	r3, [r3]
 205 0010 002B     		cmp	r3, #0
 206 0012 15D0     		beq	.L8
 447:.\_BLE.c      **** 	{
 448:.\_BLE.c      **** 		// Reset the flag.
 449:.\_BLE.c      **** 		updateSensorsCCCDreq = FALSE;
 207              		.loc 1 449 0 is_stmt 1
 208 0014 0022     		mov	r2, #0
 209 0016 1A4B     		ldr	r3, .L10
 210 0018 1A70     		strb	r2, [r3]
 450:.\_BLE.c      **** 	
 451:.\_BLE.c      **** 		// Write the present notification/indication status to the local variable.
 452:.\_BLE.c      **** 		CCCDvalue[0] = sendDataNotifications;
 211              		.loc 1 452 0
 212 001a 03AB     		add	r3, sp, #12
 213 001c 1A4A     		ldr	r2, .L10+8
 214 001e 1278     		ldrb	r2, [r2]
 215 0020 1A70     		strb	r2, [r3]
 453:.\_BLE.c      **** 		CCCDvalue[1] = sendDataIndications;
 216              		.loc 1 453 0
 217 0022 1A4A     		ldr	r2, .L10+12
 218 0024 1278     		ldrb	r2, [r2]
 219 0026 5A70     		strb	r2, [r3, #1]
 454:.\_BLE.c      **** 		
 455:.\_BLE.c      **** 		// Update CCCD handle with notification status data.
 456:.\_BLE.c      **** 		CCCDhandle.attrHandle = CYBLE_CAPSENSE_SENSORS_CLIENT_CHARACTERISTIC_CONFIGURATION_DESC_HANDLE;
 220              		.loc 1 456 0
 221 0028 0F22     		mov	r2, #15
 222 002a 6946     		mov	r1, sp
 223 002c 0A81     		strh	r2, [r1, #8]
 457:.\_BLE.c      **** 		CCCDhandle.value.val = CCCDvalue;
 224              		.loc 1 457 0
 225 002e 0093     		str	r3, [sp]
 458:.\_BLE.c      **** 		CCCDhandle.value.len = CCC_DATA_LEN;
 226              		.loc 1 458 0
ARM GAS  C:\Users\ALEXAN~1\AppData\Local\Temp\cc386xIo.s 			page 13


 227 0030 0223     		mov	r3, #2
 228 0032 8B80     		strh	r3, [r1, #4]
 459:.\_BLE.c      **** 		
 460:.\_BLE.c      **** 		// Report data to BLE component for sending data when read by Central device.
 461:.\_BLE.c      **** 		CyBle_GattsWriteAttributeValue(&CCCDhandle, 0, &connectionHandle, CYBLE_GATT_DB_LOCALLY_INITIATED
 229              		.loc 1 461 0
 230 0034 6846     		mov	r0, sp
 231 0036 0021     		mov	r1, #0
 232 0038 154A     		ldr	r2, .L10+16
 233 003a 0023     		mov	r3, #0
 234 003c FFF7FEFF 		bl	CyBle_GattsWriteAttributeValue
 235              	.LVL1:
 236              	.L8:
 462:.\_BLE.c      **** 	}
 463:.\_BLE.c      ****     
 464:.\_BLE.c      ****     // Update sensors notification/indication attribute only when there has 
 465:.\_BLE.c      ****     // been a write request.
 466:.\_BLE.c      ****     if(updateStatusCCCDreq && _BLE_deviceConnected)
 237              		.loc 1 466 0
 238 0040 144B     		ldr	r3, .L10+20
 239 0042 1B78     		ldrb	r3, [r3]
 240 0044 002B     		cmp	r3, #0
 241 0046 19D0     		beq	.L7
 242              		.loc 1 466 0 is_stmt 0 discriminator 1
 243 0048 0E4B     		ldr	r3, .L10+4
 244 004a 1B78     		ldrb	r3, [r3]
 245 004c 002B     		cmp	r3, #0
 246 004e 15D0     		beq	.L7
 467:.\_BLE.c      **** 	{
 468:.\_BLE.c      **** 		// Reset the flag.
 469:.\_BLE.c      **** 		updateStatusCCCDreq = FALSE;
 247              		.loc 1 469 0 is_stmt 1
 248 0050 0022     		mov	r2, #0
 249 0052 104B     		ldr	r3, .L10+20
 250 0054 1A70     		strb	r2, [r3]
 470:.\_BLE.c      **** 	
 471:.\_BLE.c      **** 		// Write the present notification/indication status to the local variable.
 472:.\_BLE.c      **** 		CCCDvalue[0] = sendStatusNotifications;
 251              		.loc 1 472 0
 252 0056 03AB     		add	r3, sp, #12
 253 0058 0F4A     		ldr	r2, .L10+24
 254 005a 1278     		ldrb	r2, [r2]
 255 005c 1A70     		strb	r2, [r3]
 473:.\_BLE.c      **** 		CCCDvalue[1] = sendStatusIndications;
 256              		.loc 1 473 0
 257 005e 0F4A     		ldr	r2, .L10+28
 258 0060 1278     		ldrb	r2, [r2]
 259 0062 5A70     		strb	r2, [r3, #1]
 474:.\_BLE.c      **** 		
 475:.\_BLE.c      **** 		// Update CCCD handle with notification status data.
 476:.\_BLE.c      **** 		CCCDhandle.attrHandle = CYBLE_CAPSENSE_STATUS_CLIENT_CHARACTERISTIC_CONFIGURATION_DESC_HANDLE;
 260              		.loc 1 476 0
 261 0064 1522     		mov	r2, #21
 262 0066 6946     		mov	r1, sp
 263 0068 0A81     		strh	r2, [r1, #8]
 477:.\_BLE.c      **** 		CCCDhandle.value.val = CCCDvalue;
 264              		.loc 1 477 0
ARM GAS  C:\Users\ALEXAN~1\AppData\Local\Temp\cc386xIo.s 			page 14


 265 006a 0093     		str	r3, [sp]
 478:.\_BLE.c      **** 		CCCDhandle.value.len = CCC_DATA_LEN;
 266              		.loc 1 478 0
 267 006c 0223     		mov	r3, #2
 268 006e 8B80     		strh	r3, [r1, #4]
 479:.\_BLE.c      **** 		
 480:.\_BLE.c      **** 		// Report data to BLE component for sending data when read by Central device.
 481:.\_BLE.c      **** 		CyBle_GattsWriteAttributeValue(&CCCDhandle, 0, &connectionHandle, CYBLE_GATT_DB_LOCALLY_INITIATED
 269              		.loc 1 481 0
 270 0070 6846     		mov	r0, sp
 271 0072 0021     		mov	r1, #0
 272 0074 064A     		ldr	r2, .L10+16
 273 0076 0023     		mov	r3, #0
 274 0078 FFF7FEFF 		bl	CyBle_GattsWriteAttributeValue
 275              	.LVL2:
 276              	.L7:
 482:.\_BLE.c      **** 	}	
 483:.\_BLE.c      **** }
 277              		.loc 1 483 0
 278 007c 05B0     		add	sp, sp, #20
 279              		@ sp needed
 280 007e 00BD     		pop	{pc}
 281              	.L11:
 282              		.align	2
 283              	.L10:
 284 0080 00000000 		.word	updateSensorsCCCDreq
 285 0084 00000000 		.word	_BLE_deviceConnected
 286 0088 00000000 		.word	sendDataNotifications
 287 008c 00000000 		.word	sendDataIndications
 288 0090 00000000 		.word	connectionHandle
 289 0094 00000000 		.word	updateStatusCCCDreq
 290 0098 00000000 		.word	sendStatusNotifications
 291 009c 00000000 		.word	sendStatusIndications
 292              		.cfi_endproc
 293              	.LFE38:
 294              		.size	_BLE_UpdateCCCD, .-_BLE_UpdateCCCD
 295              		.section	.text._BLE_UpdateControl,"ax",%progbits
 296              		.align	2
 297              		.global	_BLE_UpdateControl
 298              		.code	16
 299              		.thumb_func
 300              		.type	_BLE_UpdateControl, %function
 301              	_BLE_UpdateControl:
 302              	.LFB39:
 484:.\_BLE.c      **** 
 485:.\_BLE.c      **** 
 486:.\_BLE.c      **** /*****************************************************************************
 487:.\_BLE.c      **** * Function Name: _BLE_UpdateControl()
 488:.\_BLE.c      **** ******************************************************************************
 489:.\_BLE.c      **** * Summary:
 490:.\_BLE.c      **** *   Update the values of the 'Control' characteristic.
 491:.\_BLE.c      **** *
 492:.\_BLE.c      **** * Parameters:
 493:.\_BLE.c      **** *   None.
 494:.\_BLE.c      **** *
 495:.\_BLE.c      **** * Return:
 496:.\_BLE.c      **** *   None.
ARM GAS  C:\Users\ALEXAN~1\AppData\Local\Temp\cc386xIo.s 			page 15


 497:.\_BLE.c      **** *
 498:.\_BLE.c      **** * Note:
 499:.\_BLE.c      **** *   
 500:.\_BLE.c      **** *****************************************************************************/
 501:.\_BLE.c      **** void _BLE_UpdateControl(void)
 502:.\_BLE.c      **** {
 303              		.loc 1 502 0
 304              		.cfi_startproc
 305 0000 00B5     		push	{lr}
 306              		.cfi_def_cfa_offset 4
 307              		.cfi_offset 14, -4
 308 0002 85B0     		sub	sp, sp, #20
 309              		.cfi_def_cfa_offset 24
 503:.\_BLE.c      ****     // Local variable to store the wanted control values.
 504:.\_BLE.c      **** 	uint8 ControlValues[NUM_CONTROLS];
 505:.\_BLE.c      ****     
 506:.\_BLE.c      ****     // Handle value to update the control values.
 507:.\_BLE.c      ****     CYBLE_GATT_HANDLE_VALUE_PAIR_T ControlHandle;
 508:.\_BLE.c      **** 
 509:.\_BLE.c      ****     // Update control attribute only when there has been a write request.
 510:.\_BLE.c      ****     if(updateControlValuesReq && _BLE_deviceConnected)
 310              		.loc 1 510 0
 311 0004 114B     		ldr	r3, .L14
 312 0006 1B78     		ldrb	r3, [r3]
 313 0008 002B     		cmp	r3, #0
 314 000a 1CD0     		beq	.L12
 315              		.loc 1 510 0 is_stmt 0 discriminator 1
 316 000c 104B     		ldr	r3, .L14+4
 317 000e 1B78     		ldrb	r3, [r3]
 318 0010 002B     		cmp	r3, #0
 319 0012 18D0     		beq	.L12
 511:.\_BLE.c      ****     {
 512:.\_BLE.c      **** 		// Reset the flag.
 513:.\_BLE.c      **** 		updateControlValuesReq = FALSE;
 320              		.loc 1 513 0 is_stmt 1
 321 0014 0022     		mov	r2, #0
 322 0016 0D4B     		ldr	r3, .L14
 323 0018 1A70     		strb	r2, [r3]
 514:.\_BLE.c      ****         
 515:.\_BLE.c      **** 		// Write the present control values to the local variable.
 516:.\_BLE.c      **** 		ControlValues[CONTROL_ACQUIRE_DATA_BYTE_MASK] = _BLE_acquireData;
 324              		.loc 1 516 0
 325 001a 03AB     		add	r3, sp, #12
 326 001c 0D4A     		ldr	r2, .L14+8
 327 001e 1278     		ldrb	r2, [r2]
 328 0020 1A70     		strb	r2, [r3]
 517:.\_BLE.c      **** 		ControlValues[CONTROL_SEND_DATA_BYTE_MASK] = _BLE_sendData;
 329              		.loc 1 517 0
 330 0022 0D4A     		ldr	r2, .L14+12
 331 0024 1278     		ldrb	r2, [r2]
 332 0026 5A70     		strb	r2, [r3, #1]
 518:.\_BLE.c      ****         ControlValues[CONTROL_SEND_DATA_SYNCHRONOUSLY_BYTE_MASK] = _BLE_sendDataSynchronously;
 333              		.loc 1 518 0
 334 0028 0C4A     		ldr	r2, .L14+16
 335 002a 1278     		ldrb	r2, [r2]
 336 002c 9A70     		strb	r2, [r3, #2]
 519:.\_BLE.c      **** 		
ARM GAS  C:\Users\ALEXAN~1\AppData\Local\Temp\cc386xIo.s 			page 16


 520:.\_BLE.c      **** 		// Update control values handle.
 521:.\_BLE.c      **** 		ControlHandle.attrHandle = CYBLE_CAPSENSE_CONTROL_CHAR_HANDLE;
 337              		.loc 1 521 0
 338 002e 1222     		mov	r2, #18
 339 0030 6946     		mov	r1, sp
 340 0032 0A81     		strh	r2, [r1, #8]
 522:.\_BLE.c      **** 		ControlHandle.value.val = ControlValues;
 341              		.loc 1 522 0
 342 0034 0093     		str	r3, [sp]
 523:.\_BLE.c      **** 		ControlHandle.value.len = NUM_CONTROLS;
 343              		.loc 1 523 0
 344 0036 0323     		mov	r3, #3
 345 0038 8B80     		strh	r3, [r1, #4]
 524:.\_BLE.c      **** 		
 525:.\_BLE.c      **** 		// Report data to BLE component.
 526:.\_BLE.c      **** 		CyBle_GattsWriteAttributeValue(&ControlHandle, 0, &connectionHandle, CYBLE_GATT_DB_LOCALLY_INITIA
 346              		.loc 1 526 0
 347 003a 6846     		mov	r0, sp
 348 003c 0021     		mov	r1, #0
 349 003e 084A     		ldr	r2, .L14+20
 350 0040 0023     		mov	r3, #0
 351 0042 FFF7FEFF 		bl	CyBle_GattsWriteAttributeValue
 352              	.LVL3:
 353              	.L12:
 527:.\_BLE.c      ****     }
 528:.\_BLE.c      **** }
 354              		.loc 1 528 0
 355 0046 05B0     		add	sp, sp, #20
 356              		@ sp needed
 357 0048 00BD     		pop	{pc}
 358              	.L15:
 359 004a C046     		.align	2
 360              	.L14:
 361 004c 00000000 		.word	updateControlValuesReq
 362 0050 00000000 		.word	_BLE_deviceConnected
 363 0054 00000000 		.word	_BLE_acquireData
 364 0058 00000000 		.word	_BLE_sendData
 365 005c 00000000 		.word	_BLE_sendDataSynchronously
 366 0060 00000000 		.word	connectionHandle
 367              		.cfi_endproc
 368              	.LFE39:
 369              		.size	_BLE_UpdateControl, .-_BLE_UpdateControl
 370              		.section	.text._BLE_sendCapSenseData,"ax",%progbits
 371              		.align	2
 372              		.global	_BLE_sendCapSenseData
 373              		.code	16
 374              		.thumb_func
 375              		.type	_BLE_sendCapSenseData, %function
 376              	_BLE_sendCapSenseData:
 377              	.LFB40:
 529:.\_BLE.c      **** 
 530:.\_BLE.c      **** 
 531:.\_BLE.c      **** /*****************************************************************************
 532:.\_BLE.c      **** * Function Name: _BLE_sendCapSenseData()
 533:.\_BLE.c      **** ******************************************************************************
 534:.\_BLE.c      **** * Summary:
 535:.\_BLE.c      **** *   Send the whole content of the vectors through BLE notifications
ARM GAS  C:\Users\ALEXAN~1\AppData\Local\Temp\cc386xIo.s 			page 17


 536:.\_BLE.c      **** *   or indications.
 537:.\_BLE.c      **** *
 538:.\_BLE.c      **** * Parameters:
 539:.\_BLE.c      **** *   None.
 540:.\_BLE.c      **** *
 541:.\_BLE.c      **** * Return:
 542:.\_BLE.c      **** *   'SUCCESS' if it succeeded.
 543:.\_BLE.c      **** *   'NO_MORE_DATA' if the vector is empty
 544:.\_BLE.c      **** *
 545:.\_BLE.c      **** * Note:
 546:.\_BLE.c      **** *   
 547:.\_BLE.c      **** *****************************************************************************/
 548:.\_BLE.c      **** uint8 _BLE_sendCapSenseData(void)
 549:.\_BLE.c      **** {
 378              		.loc 1 549 0
 379              		.cfi_startproc
 380 0000 F0B5     		push	{r4, r5, r6, r7, lr}
 381              		.cfi_def_cfa_offset 20
 382              		.cfi_offset 4, -20
 383              		.cfi_offset 5, -16
 384              		.cfi_offset 6, -12
 385              		.cfi_offset 7, -8
 386              		.cfi_offset 14, -4
 387 0002 5F46     		mov	r7, fp
 388 0004 5646     		mov	r6, r10
 389 0006 4D46     		mov	r5, r9
 390 0008 4446     		mov	r4, r8
 391 000a F0B4     		push	{r4, r5, r6, r7}
 392              		.cfi_def_cfa_offset 36
 393              		.cfi_offset 8, -36
 394              		.cfi_offset 9, -32
 395              		.cfi_offset 10, -28
 396              		.cfi_offset 11, -24
 397 000c 91B0     		sub	sp, sp, #68
 398              		.cfi_def_cfa_offset 104
 399 000e 00AF     		add	r7, sp, #0
 400              		.cfi_def_cfa_register 7
 550:.\_BLE.c      ****     // Verify the presence of data to send.
 551:.\_BLE.c      ****     if ( vectorIsEmpty() )
 401              		.loc 1 551 0
 402 0010 FFF7FEFF 		bl	vectorIsEmpty
 403              	.LVL4:
 404 0014 0028     		cmp	r0, #0
 405 0016 00D0     		beq	.LCB311
 406 0018 8EE0     		b	.L28	@long jump
 407              	.LCB311:
 408              	.LVL5:
 552:.\_BLE.c      ****         return NO_MORE_DATA;
 553:.\_BLE.c      ****     
 554:.\_BLE.c      ****     
 555:.\_BLE.c      ****     uint16 rawData[CapSense_TOTAL_SENSOR_COUNT];
 556:.\_BLE.c      ****     uint32 encodedData[CapSense_TOTAL_SENSOR_COUNT];
 557:.\_BLE.c      ****     uint8 numBytes_OneData = sizeof(encodedData[0]);
 558:.\_BLE.c      ****     
 559:.\_BLE.c      ****     uint8 i;
 560:.\_BLE.c      ****     uint8 j;
 561:.\_BLE.c      ****     uint8 k;
ARM GAS  C:\Users\ALEXAN~1\AppData\Local\Temp\cc386xIo.s 			page 18


 562:.\_BLE.c      ****     uint16 arrayIterator = 0;
 563:.\_BLE.c      ****         
 564:.\_BLE.c      ****     CYBLE_GATTS_HANDLE_VALUE_NTF_T NotificationHandle;
 565:.\_BLE.c      ****     CYBLE_GATTS_HANDLE_VALUE_IND_T IndicationHandle;
 566:.\_BLE.c      ****     
 567:.\_BLE.c      ****     uint16 numIterations = 1;
 568:.\_BLE.c      ****     numIterations = ( (vectorSize() * numBytes_OneData * CapSense_TOTAL_SENSOR_COUNT) < BUFFER_MAX_
 409              		.loc 1 568 0
 410 001a FFF7FEFF 		bl	vectorSize
 411              	.LVL6:
 412 001e 8300     		lsl	r3, r0, #2
 413 0020 0001     		lsl	r0, r0, #4
 414 0022 C018     		add	r0, r0, r3
 415 0024 EF28     		cmp	r0, #239
 416 0026 03D8     		bhi	.L29
 417              		.loc 1 568 0 is_stmt 0 discriminator 1
 418 0028 FFF7FEFF 		bl	vectorSize
 419              	.LVL7:
 420 002c 8046     		mov	r8, r0
 421 002e 01E0     		b	.L18
 422              	.L29:
 423              		.loc 1 568 0
 424 0030 0C23     		mov	r3, #12
 425 0032 9846     		mov	r8, r3
 426              	.L18:
 427              	.LVL8:
 569:.\_BLE.c      ****                     vectorSize() : BUFFER_MAX_SIZE / numBytes_OneData / CapSense_TOTAL_SENSOR_COUNT
 570:.\_BLE.c      ****                     
 571:.\_BLE.c      ****     uint16 numBytes_AllData = numIterations * numBytes_OneData * CapSense_TOTAL_SENSOR_COUNT;
 428              		.loc 1 571 0 is_stmt 1 discriminator 4
 429 0034 4346     		mov	r3, r8
 430 0036 9A00     		lsl	r2, r3, #2
 431 0038 9300     		lsl	r3, r2, #2
 432 003a D318     		add	r3, r2, r3
 433 003c 9BB2     		uxth	r3, r3
 434 003e 9946     		mov	r9, r3
 435              	.LVL9:
 572:.\_BLE.c      ****     uint8 buffer[numBytes_AllData];
 436              		.loc 1 572 0 discriminator 4
 437 0040 0733     		add	r3, r3, #7
 438              	.LVL10:
 439 0042 DB08     		lsr	r3, r3, #3
 440 0044 DB00     		lsl	r3, r3, #3
 441 0046 6A46     		mov	r2, sp
 442 0048 D31A     		sub	r3, r2, r3
 443 004a 9D46     		mov	sp, r3
 444 004c EB46     		mov	fp, sp
 445              	.LVL11:
 562:.\_BLE.c      ****         
 446              		.loc 1 562 0 discriminator 4
 447 004e 0024     		mov	r4, #0
 573:.\_BLE.c      **** 
 574:.\_BLE.c      ****     for( k = 0; k < numIterations; k++) {
 448              		.loc 1 574 0 discriminator 4
 449 0050 0023     		mov	r3, #0
 450              	.LVL12:
 451 0052 9A46     		mov	r10, r3
ARM GAS  C:\Users\ALEXAN~1\AppData\Local\Temp\cc386xIo.s 			page 19


 452 0054 3AE0     		b	.L19
 453              	.LVL13:
 454              	.L25:
 575:.\_BLE.c      ****         // Retrieve the front data in the vectors.
 576:.\_BLE.c      ****         popOutVector(rawData);
 455              		.loc 1 576 0
 456 0056 2C23     		mov	r3, #44
 457 0058 0822     		mov	r2, #8
 458 005a BA18     		add	r2, r7, r2
 459 005c D018     		add	r0, r2, r3
 460 005e FFF7FEFF 		bl	popOutVector
 461              	.LVL14:
 577:.\_BLE.c      ****         
 578:.\_BLE.c      ****         // Encode the data with CRC.
 579:.\_BLE.c      ****         for (i = 0; i < CapSense_TOTAL_SENSOR_COUNT; i++)
 462              		.loc 1 579 0
 463 0062 0026     		mov	r6, #0
 464 0064 11E0     		b	.L20
 465              	.LVL15:
 466              	.L21:
 580:.\_BLE.c      ****             //encodedData[i] = encodeCRC( rawData[i] );
 581:.\_BLE.c      ****             encodedData[i] = encodeCRC(rawData[i]);
 467              		.loc 1 581 0 discriminator 3
 468 0066 7200     		lsl	r2, r6, #1
 469 0068 2C23     		mov	r3, #44
 470 006a 0821     		mov	r1, #8
 471 006c 8C46     		mov	ip, r1
 472 006e BC44     		add	ip, ip, r7
 473 0070 6344     		add	r3, r3, ip
 474 0072 D05A     		ldrh	r0, [r2, r3]
 475 0074 FFF7FEFF 		bl	encodeCRC
 476              	.LVL16:
 477 0078 B200     		lsl	r2, r6, #2
 478 007a 1823     		mov	r3, #24
 479 007c 0821     		mov	r1, #8
 480 007e 8C46     		mov	ip, r1
 481 0080 BC44     		add	ip, ip, r7
 482 0082 6344     		add	r3, r3, ip
 483 0084 D050     		str	r0, [r2, r3]
 579:.\_BLE.c      ****             //encodedData[i] = encodeCRC( rawData[i] );
 484              		.loc 1 579 0 discriminator 3
 485 0086 731C     		add	r3, r6, #1
 486 0088 DEB2     		uxtb	r6, r3
 487              	.LVL17:
 488              	.L20:
 579:.\_BLE.c      ****             //encodedData[i] = encodeCRC( rawData[i] );
 489              		.loc 1 579 0 is_stmt 0 discriminator 1
 490 008a 042E     		cmp	r6, #4
 491 008c EBD9     		bls	.L21
 492 008e 0021     		mov	r1, #0
 493 0090 16E0     		b	.L22
 494              	.LVL18:
 495              	.L23:
 582:.\_BLE.c      ****         
 583:.\_BLE.c      ****         // Transfer the encoded sensors values into an uint8 array.
 584:.\_BLE.c      ****         for (i = 0; i < CapSense_TOTAL_SENSOR_COUNT; i++)
 585:.\_BLE.c      ****             for (j = 0; j < numBytes_OneData; j++)
ARM GAS  C:\Users\ALEXAN~1\AppData\Local\Temp\cc386xIo.s 			page 20


 586:.\_BLE.c      ****                 buffer[arrayIterator++] = encodedData[i] >> ((numBytes_OneData - 1 - j) * 8) & 0xFF
 496              		.loc 1 586 0 is_stmt 1 discriminator 3
 497 0092 601C     		add	r0, r4, #1
 498              	.LVL19:
 499 0094 8A00     		lsl	r2, r1, #2
 500 0096 1826     		mov	r6, #24
 501 0098 0825     		mov	r5, #8
 502 009a AC46     		mov	ip, r5
 503 009c BC44     		add	ip, ip, r7
 504 009e 6644     		add	r6, r6, ip
 505 00a0 9659     		ldr	r6, [r2, r6]
 506 00a2 0322     		mov	r2, #3
 507 00a4 D21A     		sub	r2, r2, r3
 508 00a6 D200     		lsl	r2, r2, #3
 509 00a8 D640     		lsr	r6, r6, r2
 510 00aa 5D46     		mov	r5, fp
 511 00ac 2E55     		strb	r6, [r5, r4]
 585:.\_BLE.c      ****                 buffer[arrayIterator++] = encodedData[i] >> ((numBytes_OneData - 1 - j) * 8) & 0xFF
 512              		.loc 1 585 0 discriminator 3
 513 00ae 0133     		add	r3, r3, #1
 514              	.LVL20:
 515 00b0 DBB2     		uxtb	r3, r3
 516              	.LVL21:
 517              		.loc 1 586 0 discriminator 3
 518 00b2 84B2     		uxth	r4, r0
 519 00b4 00E0     		b	.L24
 520              	.LVL22:
 521              	.L30:
 522 00b6 0023     		mov	r3, #0
 523              	.LVL23:
 524              	.L24:
 585:.\_BLE.c      ****                 buffer[arrayIterator++] = encodedData[i] >> ((numBytes_OneData - 1 - j) * 8) & 0xFF
 525              		.loc 1 585 0 discriminator 1
 526 00b8 032B     		cmp	r3, #3
 527 00ba EAD9     		bls	.L23
 584:.\_BLE.c      ****             for (j = 0; j < numBytes_OneData; j++)
 528              		.loc 1 584 0 discriminator 2
 529 00bc 0131     		add	r1, r1, #1
 530              	.LVL24:
 531 00be C9B2     		uxtb	r1, r1
 532              	.LVL25:
 533              	.L22:
 584:.\_BLE.c      ****             for (j = 0; j < numBytes_OneData; j++)
 534              		.loc 1 584 0 is_stmt 0 discriminator 1
 535 00c0 0429     		cmp	r1, #4
 536 00c2 F8D9     		bls	.L30
 574:.\_BLE.c      ****         // Retrieve the front data in the vectors.
 537              		.loc 1 574 0 is_stmt 1 discriminator 2
 538 00c4 5646     		mov	r6, r10
 539 00c6 0136     		add	r6, r6, #1
 540 00c8 F3B2     		uxtb	r3, r6
 541 00ca 9A46     		mov	r10, r3
 542              	.LVL26:
 543              	.L19:
 574:.\_BLE.c      ****         // Retrieve the front data in the vectors.
 544              		.loc 1 574 0 is_stmt 0 discriminator 1
 545 00cc 5346     		mov	r3, r10
ARM GAS  C:\Users\ALEXAN~1\AppData\Local\Temp\cc386xIo.s 			page 21


 546 00ce FB80     		strh	r3, [r7, #6]
 547 00d0 9BB2     		uxth	r3, r3
 548 00d2 9845     		cmp	r8, r3
 549 00d4 BFD8     		bhi	.L25
 587:.\_BLE.c      ****     }
 588:.\_BLE.c      ****     
 589:.\_BLE.c      ****     // Wait for the stack to be ready.
 590:.\_BLE.c      **** //	while(CyBle_GattGetBusyStatus() == CYBLE_STACK_STATE_BUSY) {
 591:.\_BLE.c      ****         CyBle_ProcessEvents();
 550              		.loc 1 591 0 is_stmt 1
 551 00d6 FFF7FEFF 		bl	CyBle_ProcessEvents
 552              	.LVL27:
 592:.\_BLE.c      **** //    }
 593:.\_BLE.c      ****     
 594:.\_BLE.c      ****     // Send the CapSense characteristic values to BLE client.
 595:.\_BLE.c      ****     if (sendDataNotifications) {
 553              		.loc 1 595 0
 554 00da 1C4B     		ldr	r3, .L31
 555 00dc 1B78     		ldrb	r3, [r3]
 556 00de 002B     		cmp	r3, #0
 557 00e0 11D0     		beq	.L26
 596:.\_BLE.c      ****         NotificationHandle.attrHandle = CYBLE_CAPSENSE_SENSORS_CHAR_HANDLE;
 558              		.loc 1 596 0
 559 00e2 0E23     		mov	r3, #14
 560 00e4 BB83     		strh	r3, [r7, #28]
 597:.\_BLE.c      ****         NotificationHandle.value.val = buffer;
 561              		.loc 1 597 0
 562 00e6 5B46     		mov	r3, fp
 563 00e8 7B61     		str	r3, [r7, #20]
 598:.\_BLE.c      ****         NotificationHandle.value.len = numBytes_AllData;
 564              		.loc 1 598 0
 565 00ea 4B46     		mov	r3, r9
 566 00ec 3B83     		strh	r3, [r7, #24]
 599:.\_BLE.c      ****         CyBle_GattsNotification(connectionHandle, &NotificationHandle);
 567              		.loc 1 599 0
 568 00ee 184A     		ldr	r2, .L31+4
 569 00f0 1378     		ldrb	r3, [r2]
 570 00f2 5078     		ldrb	r0, [r2, #1]
 571 00f4 0002     		lsl	r0, r0, #8
 572 00f6 1843     		orr	r0, r3
 573 00f8 0C23     		mov	r3, #12
 574 00fa 0822     		mov	r2, #8
 575 00fc BA18     		add	r2, r7, r2
 576 00fe D118     		add	r1, r2, r3
 577 0100 FFF7FEFF 		bl	CyBle_GattsNotification
 578              	.LVL28:
 579 0104 12E0     		b	.L27
 580              	.L26:
 600:.\_BLE.c      ****     }
 601:.\_BLE.c      ****     else if (sendDataIndications) {        
 581              		.loc 1 601 0
 582 0106 134B     		ldr	r3, .L31+8
 583 0108 1B78     		ldrb	r3, [r3]
 584 010a 002B     		cmp	r3, #0
 585 010c 0ED0     		beq	.L27
 602:.\_BLE.c      ****         IndicationHandle.attrHandle = CYBLE_CAPSENSE_SENSORS_CHAR_HANDLE;
 586              		.loc 1 602 0
ARM GAS  C:\Users\ALEXAN~1\AppData\Local\Temp\cc386xIo.s 			page 22


 587 010e 0E23     		mov	r3, #14
 588 0110 3B82     		strh	r3, [r7, #16]
 603:.\_BLE.c      ****         IndicationHandle.value.val = buffer;
 589              		.loc 1 603 0
 590 0112 5B46     		mov	r3, fp
 591 0114 BB60     		str	r3, [r7, #8]
 604:.\_BLE.c      ****         IndicationHandle.value.len = numBytes_AllData;
 592              		.loc 1 604 0
 593 0116 4B46     		mov	r3, r9
 594 0118 BB81     		strh	r3, [r7, #12]
 605:.\_BLE.c      ****         CyBle_GattsIndication(connectionHandle, &IndicationHandle);
 595              		.loc 1 605 0
 596 011a 0D4A     		ldr	r2, .L31+4
 597 011c 1378     		ldrb	r3, [r2]
 598 011e 5078     		ldrb	r0, [r2, #1]
 599 0120 0002     		lsl	r0, r0, #8
 600 0122 1843     		orr	r0, r3
 601 0124 0823     		mov	r3, #8
 602 0126 F918     		add	r1, r7, r3
 603 0128 FFF7FEFF 		bl	CyBle_GattsIndication
 604              	.LVL29:
 605              	.L27:
 606:.\_BLE.c      ****     }
 607:.\_BLE.c      ****     
 608:.\_BLE.c      ****     
 609:.\_BLE.c      ****     // Verify if the vector is now empty.
 610:.\_BLE.c      ****     if ( vectorIsEmpty() )
 606              		.loc 1 610 0
 607 012c FFF7FEFF 		bl	vectorIsEmpty
 608              	.LVL30:
 609 0130 0028     		cmp	r0, #0
 610 0132 02D0     		beq	.L17
 611:.\_BLE.c      ****         return NO_MORE_DATA;
 611              		.loc 1 611 0
 612 0134 0220     		mov	r0, #2
 613 0136 00E0     		b	.L17
 614              	.LVL31:
 615              	.L28:
 552:.\_BLE.c      ****     
 616              		.loc 1 552 0
 617 0138 0220     		mov	r0, #2
 618              	.L17:
 612:.\_BLE.c      ****     
 613:.\_BLE.c      ****     
 614:.\_BLE.c      ****     return SUCCESS;
 615:.\_BLE.c      **** }
 619              		.loc 1 615 0
 620 013a BD46     		mov	sp, r7
 621 013c 11B0     		add	sp, sp, #68
 622              		@ sp needed
 623 013e 3CBC     		pop	{r2, r3, r4, r5}
 624 0140 9046     		mov	r8, r2
 625 0142 9946     		mov	r9, r3
 626 0144 A246     		mov	r10, r4
 627 0146 AB46     		mov	fp, r5
 628 0148 F0BD     		pop	{r4, r5, r6, r7, pc}
 629              	.L32:
ARM GAS  C:\Users\ALEXAN~1\AppData\Local\Temp\cc386xIo.s 			page 23


 630 014a C046     		.align	2
 631              	.L31:
 632 014c 00000000 		.word	sendDataNotifications
 633 0150 00000000 		.word	connectionHandle
 634 0154 00000000 		.word	sendDataIndications
 635              		.cfi_endproc
 636              	.LFE40:
 637              		.size	_BLE_sendCapSenseData, .-_BLE_sendCapSenseData
 638              		.section	.text._BLE_sendStatusFlags,"ax",%progbits
 639              		.align	2
 640              		.global	_BLE_sendStatusFlags
 641              		.code	16
 642              		.thumb_func
 643              		.type	_BLE_sendStatusFlags, %function
 644              	_BLE_sendStatusFlags:
 645              	.LFB41:
 616:.\_BLE.c      **** 
 617:.\_BLE.c      **** 
 618:.\_BLE.c      **** /*****************************************************************************
 619:.\_BLE.c      **** * Function Name: _BLE_sendStatusFlags()
 620:.\_BLE.c      **** ******************************************************************************
 621:.\_BLE.c      **** * Summary:
 622:.\_BLE.c      **** *   Send all the status flags.
 623:.\_BLE.c      **** *
 624:.\_BLE.c      **** * Parameters:
 625:.\_BLE.c      **** *   None.
 626:.\_BLE.c      **** *
 627:.\_BLE.c      **** * Return:
 628:.\_BLE.c      **** *   None.
 629:.\_BLE.c      **** *
 630:.\_BLE.c      **** * Note:
 631:.\_BLE.c      **** *   
 632:.\_BLE.c      **** *****************************************************************************/
 633:.\_BLE.c      **** void _BLE_sendStatusFlags(void)
 634:.\_BLE.c      **** {
 646              		.loc 1 634 0
 647              		.cfi_startproc
 648 0000 00B5     		push	{lr}
 649              		.cfi_def_cfa_offset 4
 650              		.cfi_offset 14, -4
 651 0002 89B0     		sub	sp, sp, #36
 652              		.cfi_def_cfa_offset 40
 635:.\_BLE.c      ****     static uint8 Previous_Status_Ready = 0xFF;
 636:.\_BLE.c      ****     static uint8 Previous_Status_Acquiring = 0xFF;
 637:.\_BLE.c      ****     static uint8 Previous_Status_NoMoreSpace = 0xFF;
 638:.\_BLE.c      ****     static uint8 Previous_Status_DataAcquired = 0xFF;
 639:.\_BLE.c      ****     static uint8 Previous_Status_Sending = 0xFF;
 640:.\_BLE.c      ****     static uint8 Previous_Status_NoMoreData = 0xFF;
 641:.\_BLE.c      ****     
 642:.\_BLE.c      ****     uint8 StatusArray[NUM_STATUS];
 643:.\_BLE.c      ****         
 644:.\_BLE.c      ****     CYBLE_GATTS_HANDLE_VALUE_NTF_T NotificationHandle;
 645:.\_BLE.c      ****     CYBLE_GATTS_HANDLE_VALUE_IND_T IndicationHandle;
 646:.\_BLE.c      **** 
 647:.\_BLE.c      ****     // Verify if the status changed since the last notification.
 648:.\_BLE.c      ****     // If so, send all the current status.
 649:.\_BLE.c      ****     if( Previous_Status_Ready != Status_Ready ||
ARM GAS  C:\Users\ALEXAN~1\AppData\Local\Temp\cc386xIo.s 			page 24


 653              		.loc 1 649 0
 654 0004 384B     		ldr	r3, .L38
 655 0006 1B78     		ldrb	r3, [r3]
 656 0008 384A     		ldr	r2, .L38+4
 657 000a 1278     		ldrb	r2, [r2]
 658 000c 9342     		cmp	r3, r2
 659 000e 1DD1     		bne	.L34
 650:.\_BLE.c      ****         Previous_Status_Acquiring != Status_Acquiring ||
 660              		.loc 1 650 0 discriminator 1
 661 0010 354B     		ldr	r3, .L38
 662 0012 5978     		ldrb	r1, [r3, #1]
 663 0014 364B     		ldr	r3, .L38+8
 664 0016 1B78     		ldrb	r3, [r3]
 649:.\_BLE.c      ****         Previous_Status_Acquiring != Status_Acquiring ||
 665              		.loc 1 649 0 discriminator 1
 666 0018 9942     		cmp	r1, r3
 667 001a 17D1     		bne	.L34
 651:.\_BLE.c      ****         Previous_Status_NoMoreSpace != Status_NoMoreSpace ||
 668              		.loc 1 651 0
 669 001c 324B     		ldr	r3, .L38
 670 001e 9978     		ldrb	r1, [r3, #2]
 671 0020 344B     		ldr	r3, .L38+12
 672 0022 1B78     		ldrb	r3, [r3]
 650:.\_BLE.c      ****         Previous_Status_Acquiring != Status_Acquiring ||
 673              		.loc 1 650 0
 674 0024 9942     		cmp	r1, r3
 675 0026 11D1     		bne	.L34
 652:.\_BLE.c      ****         Previous_Status_DataAcquired != Status_DataAcquired ||
 676              		.loc 1 652 0
 677 0028 2F4B     		ldr	r3, .L38
 678 002a D978     		ldrb	r1, [r3, #3]
 679 002c 324B     		ldr	r3, .L38+16
 680 002e 1B78     		ldrb	r3, [r3]
 651:.\_BLE.c      ****         Previous_Status_NoMoreSpace != Status_NoMoreSpace ||
 681              		.loc 1 651 0
 682 0030 9942     		cmp	r1, r3
 683 0032 0BD1     		bne	.L34
 653:.\_BLE.c      ****         Previous_Status_Sending != Status_Sending ||
 684              		.loc 1 653 0
 685 0034 2C4B     		ldr	r3, .L38
 686 0036 1979     		ldrb	r1, [r3, #4]
 687 0038 304B     		ldr	r3, .L38+20
 688 003a 1B78     		ldrb	r3, [r3]
 652:.\_BLE.c      ****         Previous_Status_DataAcquired != Status_DataAcquired ||
 689              		.loc 1 652 0
 690 003c 9942     		cmp	r1, r3
 691 003e 05D1     		bne	.L34
 654:.\_BLE.c      ****         Previous_Status_NoMoreData != Status_NoMoreData )
 692              		.loc 1 654 0
 693 0040 294B     		ldr	r3, .L38
 694 0042 5979     		ldrb	r1, [r3, #5]
 695 0044 2E4B     		ldr	r3, .L38+24
 696 0046 1B78     		ldrb	r3, [r3]
 653:.\_BLE.c      ****         Previous_Status_Sending != Status_Sending ||
 697              		.loc 1 653 0
 698 0048 9942     		cmp	r1, r3
 699 004a 4BD0     		beq	.L33
ARM GAS  C:\Users\ALEXAN~1\AppData\Local\Temp\cc386xIo.s 			page 25


 700              	.L34:
 655:.\_BLE.c      ****     {
 656:.\_BLE.c      ****         // Fill the 'StatusArray' with the current status values.
 657:.\_BLE.c      ****         StatusArray[STATUS_READY_BYTE_MASK] = Status_Ready;
 701              		.loc 1 657 0
 702 004c 06AB     		add	r3, sp, #24
 703 004e 1A70     		strb	r2, [r3]
 658:.\_BLE.c      ****         StatusArray[STATUS_ACQUIRING_BYTE_MASK] = Status_Acquiring;
 704              		.loc 1 658 0
 705 0050 274A     		ldr	r2, .L38+8
 706 0052 1278     		ldrb	r2, [r2]
 707 0054 5A70     		strb	r2, [r3, #1]
 659:.\_BLE.c      ****         StatusArray[STATUS_NO_MORE_SPACE_BYTE_MASK] = Status_NoMoreSpace;
 708              		.loc 1 659 0
 709 0056 274A     		ldr	r2, .L38+12
 710 0058 1278     		ldrb	r2, [r2]
 711 005a 9A70     		strb	r2, [r3, #2]
 660:.\_BLE.c      ****         StatusArray[STATUS_DATA_ACQUIRED_BYTE_MASK] = Status_DataAcquired;
 712              		.loc 1 660 0
 713 005c 264A     		ldr	r2, .L38+16
 714 005e 1278     		ldrb	r2, [r2]
 715 0060 DA70     		strb	r2, [r3, #3]
 661:.\_BLE.c      ****         StatusArray[STATUS_SENDING_BYTE_MASK] = Status_Sending;
 716              		.loc 1 661 0
 717 0062 264A     		ldr	r2, .L38+20
 718 0064 1278     		ldrb	r2, [r2]
 719 0066 1A71     		strb	r2, [r3, #4]
 662:.\_BLE.c      ****         StatusArray[STATUS_NO_MORE_DATA_BYTE_MASK] = Status_NoMoreData;
 720              		.loc 1 662 0
 721 0068 254A     		ldr	r2, .L38+24
 722 006a 1278     		ldrb	r2, [r2]
 723 006c 5A71     		strb	r2, [r3, #5]
 663:.\_BLE.c      ****         
 664:.\_BLE.c      ****         // Wait for the stack to be ready.
 665:.\_BLE.c      **** //    	while(CyBle_GattGetBusyStatus() == CYBLE_STACK_STATE_BUSY) {
 666:.\_BLE.c      ****             CyBle_ProcessEvents();
 724              		.loc 1 666 0
 725 006e FFF7FEFF 		bl	CyBle_ProcessEvents
 726              	.LVL32:
 667:.\_BLE.c      **** //        }
 668:.\_BLE.c      ****         
 669:.\_BLE.c      ****         // Send the Status characteristic values to BLE client.
 670:.\_BLE.c      ****         if (sendStatusNotifications) {
 727              		.loc 1 670 0
 728 0072 244B     		ldr	r3, .L38+28
 729 0074 1B78     		ldrb	r3, [r3]
 730 0076 002B     		cmp	r3, #0
 731 0078 0ED0     		beq	.L36
 671:.\_BLE.c      ****             NotificationHandle.attrHandle = CYBLE_CAPSENSE_STATUS_CHAR_HANDLE;
 732              		.loc 1 671 0
 733 007a 03A9     		add	r1, sp, #12
 734 007c 1423     		mov	r3, #20
 735 007e 0B81     		strh	r3, [r1, #8]
 672:.\_BLE.c      ****             NotificationHandle.value.val = StatusArray;
 736              		.loc 1 672 0
 737 0080 06AB     		add	r3, sp, #24
 738 0082 0393     		str	r3, [sp, #12]
ARM GAS  C:\Users\ALEXAN~1\AppData\Local\Temp\cc386xIo.s 			page 26


 673:.\_BLE.c      ****             NotificationHandle.value.len = NUM_STATUS;
 739              		.loc 1 673 0
 740 0084 0623     		mov	r3, #6
 741 0086 8B80     		strh	r3, [r1, #4]
 674:.\_BLE.c      ****             CyBle_GattsNotification(connectionHandle, &NotificationHandle);
 742              		.loc 1 674 0
 743 0088 1F4A     		ldr	r2, .L38+32
 744 008a 1378     		ldrb	r3, [r2]
 745 008c 5078     		ldrb	r0, [r2, #1]
 746 008e 0002     		lsl	r0, r0, #8
 747 0090 1843     		orr	r0, r3
 748 0092 FFF7FEFF 		bl	CyBle_GattsNotification
 749              	.LVL33:
 750 0096 12E0     		b	.L37
 751              	.L36:
 675:.\_BLE.c      ****         }
 676:.\_BLE.c      ****         else if (sendStatusIndications) {        
 752              		.loc 1 676 0
 753 0098 1C4B     		ldr	r3, .L38+36
 754 009a 1B78     		ldrb	r3, [r3]
 755 009c 002B     		cmp	r3, #0
 756 009e 0ED0     		beq	.L37
 677:.\_BLE.c      ****             IndicationHandle.attrHandle = CYBLE_CAPSENSE_STATUS_CHAR_HANDLE;
 757              		.loc 1 677 0
 758 00a0 1423     		mov	r3, #20
 759 00a2 6A46     		mov	r2, sp
 760 00a4 1381     		strh	r3, [r2, #8]
 678:.\_BLE.c      ****             IndicationHandle.value.val = StatusArray;
 761              		.loc 1 678 0
 762 00a6 06AB     		add	r3, sp, #24
 763 00a8 0093     		str	r3, [sp]
 679:.\_BLE.c      ****             IndicationHandle.value.len = NUM_STATUS;
 764              		.loc 1 679 0
 765 00aa 0623     		mov	r3, #6
 766 00ac 9380     		strh	r3, [r2, #4]
 680:.\_BLE.c      ****             CyBle_GattsIndication(connectionHandle, &IndicationHandle);
 767              		.loc 1 680 0
 768 00ae 164A     		ldr	r2, .L38+32
 769 00b0 1378     		ldrb	r3, [r2]
 770 00b2 5078     		ldrb	r0, [r2, #1]
 771 00b4 0002     		lsl	r0, r0, #8
 772 00b6 1843     		orr	r0, r3
 773 00b8 6946     		mov	r1, sp
 774 00ba FFF7FEFF 		bl	CyBle_GattsIndication
 775              	.LVL34:
 776              	.L37:
 681:.\_BLE.c      ****         }
 682:.\_BLE.c      ****         
 683:.\_BLE.c      ****         // Set the 'Previous_*' static variables to the current status values.
 684:.\_BLE.c      ****         Previous_Status_Ready = Status_Ready;
 777              		.loc 1 684 0
 778 00be 0A4B     		ldr	r3, .L38
 779 00c0 0A4A     		ldr	r2, .L38+4
 780 00c2 1278     		ldrb	r2, [r2]
 781 00c4 1A70     		strb	r2, [r3]
 685:.\_BLE.c      ****         Previous_Status_Acquiring = Status_Acquiring;
 782              		.loc 1 685 0
ARM GAS  C:\Users\ALEXAN~1\AppData\Local\Temp\cc386xIo.s 			page 27


 783 00c6 0A4A     		ldr	r2, .L38+8
 784 00c8 1278     		ldrb	r2, [r2]
 785 00ca 5A70     		strb	r2, [r3, #1]
 686:.\_BLE.c      ****         Previous_Status_NoMoreSpace = Status_NoMoreSpace;
 786              		.loc 1 686 0
 787 00cc 094A     		ldr	r2, .L38+12
 788 00ce 1278     		ldrb	r2, [r2]
 789 00d0 9A70     		strb	r2, [r3, #2]
 687:.\_BLE.c      ****         Previous_Status_DataAcquired = Status_DataAcquired;
 790              		.loc 1 687 0
 791 00d2 094A     		ldr	r2, .L38+16
 792 00d4 1278     		ldrb	r2, [r2]
 793 00d6 DA70     		strb	r2, [r3, #3]
 688:.\_BLE.c      ****         Previous_Status_Sending = Status_Sending;
 794              		.loc 1 688 0
 795 00d8 084A     		ldr	r2, .L38+20
 796 00da 1278     		ldrb	r2, [r2]
 797 00dc 1A71     		strb	r2, [r3, #4]
 689:.\_BLE.c      ****         Previous_Status_NoMoreData = Status_NoMoreData;
 798              		.loc 1 689 0
 799 00de 084A     		ldr	r2, .L38+24
 800 00e0 1278     		ldrb	r2, [r2]
 801 00e2 5A71     		strb	r2, [r3, #5]
 802              	.L33:
 690:.\_BLE.c      ****     }
 691:.\_BLE.c      **** }
 803              		.loc 1 691 0
 804 00e4 09B0     		add	sp, sp, #36
 805              		@ sp needed
 806 00e6 00BD     		pop	{pc}
 807              	.L39:
 808              		.align	2
 809              	.L38:
 810 00e8 00000000 		.word	.LANCHOR0
 811 00ec 00000000 		.word	Status_Ready
 812 00f0 00000000 		.word	Status_Acquiring
 813 00f4 00000000 		.word	Status_NoMoreSpace
 814 00f8 00000000 		.word	Status_DataAcquired
 815 00fc 00000000 		.word	Status_Sending
 816 0100 00000000 		.word	Status_NoMoreData
 817 0104 00000000 		.word	sendStatusNotifications
 818 0108 00000000 		.word	connectionHandle
 819 010c 00000000 		.word	sendStatusIndications
 820              		.cfi_endproc
 821              	.LFE41:
 822              		.size	_BLE_sendStatusFlags, .-_BLE_sendStatusFlags
 823              		.section	.text._BLE_writeStatusFlags,"ax",%progbits
 824              		.align	2
 825              		.global	_BLE_writeStatusFlags
 826              		.code	16
 827              		.thumb_func
 828              		.type	_BLE_writeStatusFlags, %function
 829              	_BLE_writeStatusFlags:
 830              	.LFB42:
 692:.\_BLE.c      **** 
 693:.\_BLE.c      **** 
 694:.\_BLE.c      **** /*****************************************************************************
ARM GAS  C:\Users\ALEXAN~1\AppData\Local\Temp\cc386xIo.s 			page 28


 695:.\_BLE.c      **** * Function Name: _BLE_writeStatusFlags()
 696:.\_BLE.c      **** ******************************************************************************
 697:.\_BLE.c      **** * Summary:
 698:.\_BLE.c      **** *   Write the actual value of all the status flags into the characteristic.
 699:.\_BLE.c      **** *
 700:.\_BLE.c      **** * Parameters:
 701:.\_BLE.c      **** *   None.
 702:.\_BLE.c      **** *
 703:.\_BLE.c      **** * Return:
 704:.\_BLE.c      **** *   None.
 705:.\_BLE.c      **** *
 706:.\_BLE.c      **** * Note:
 707:.\_BLE.c      **** *   
 708:.\_BLE.c      **** *****************************************************************************/
 709:.\_BLE.c      **** void _BLE_writeStatusFlags(void)
 710:.\_BLE.c      **** {
 831              		.loc 1 710 0
 832              		.cfi_startproc
 833 0000 00B5     		push	{lr}
 834              		.cfi_def_cfa_offset 4
 835              		.cfi_offset 14, -4
 836 0002 87B0     		sub	sp, sp, #28
 837              		.cfi_def_cfa_offset 32
 711:.\_BLE.c      ****     uint8 StatusArray[NUM_STATUS];
 712:.\_BLE.c      ****         
 713:.\_BLE.c      ****     CYBLE_GATT_HANDLE_VALUE_PAIR_T FlagsHandle;
 714:.\_BLE.c      **** 
 715:.\_BLE.c      ****     // Fill the 'StatusArray' with the current status values.
 716:.\_BLE.c      ****     StatusArray[STATUS_READY_BYTE_MASK] = Status_Ready;
 838              		.loc 1 716 0
 839 0004 04AB     		add	r3, sp, #16
 840 0006 0F4A     		ldr	r2, .L41
 841 0008 1278     		ldrb	r2, [r2]
 842 000a 1A70     		strb	r2, [r3]
 717:.\_BLE.c      ****     StatusArray[STATUS_ACQUIRING_BYTE_MASK] = Status_Acquiring;
 843              		.loc 1 717 0
 844 000c 0E4A     		ldr	r2, .L41+4
 845 000e 1278     		ldrb	r2, [r2]
 846 0010 5A70     		strb	r2, [r3, #1]
 718:.\_BLE.c      ****     StatusArray[STATUS_NO_MORE_SPACE_BYTE_MASK] = Status_NoMoreSpace;
 847              		.loc 1 718 0
 848 0012 0E4A     		ldr	r2, .L41+8
 849 0014 1278     		ldrb	r2, [r2]
 850 0016 9A70     		strb	r2, [r3, #2]
 719:.\_BLE.c      ****     StatusArray[STATUS_DATA_ACQUIRED_BYTE_MASK] = Status_DataAcquired;
 851              		.loc 1 719 0
 852 0018 0D4A     		ldr	r2, .L41+12
 853 001a 1278     		ldrb	r2, [r2]
 854 001c DA70     		strb	r2, [r3, #3]
 720:.\_BLE.c      ****     StatusArray[STATUS_SENDING_BYTE_MASK] = Status_Sending;
 855              		.loc 1 720 0
 856 001e 0D4A     		ldr	r2, .L41+16
 857 0020 1278     		ldrb	r2, [r2]
 858 0022 1A71     		strb	r2, [r3, #4]
 721:.\_BLE.c      ****     StatusArray[STATUS_NO_MORE_DATA_BYTE_MASK] = Status_NoMoreData;
 859              		.loc 1 721 0
 860 0024 0C4A     		ldr	r2, .L41+20
ARM GAS  C:\Users\ALEXAN~1\AppData\Local\Temp\cc386xIo.s 			page 29


 861 0026 1278     		ldrb	r2, [r2]
 862 0028 5A71     		strb	r2, [r3, #5]
 722:.\_BLE.c      ****     
 723:.\_BLE.c      ****     // Write the Status values into the characteristic.
 724:.\_BLE.c      ****     FlagsHandle.attrHandle = CYBLE_CAPSENSE_STATUS_CHAR_HANDLE;
 863              		.loc 1 724 0
 864 002a 01A8     		add	r0, sp, #4
 865 002c 1422     		mov	r2, #20
 866 002e 0281     		strh	r2, [r0, #8]
 725:.\_BLE.c      ****     FlagsHandle.value.val = StatusArray;
 867              		.loc 1 725 0
 868 0030 0193     		str	r3, [sp, #4]
 726:.\_BLE.c      ****     FlagsHandle.value.len = NUM_STATUS;
 869              		.loc 1 726 0
 870 0032 0623     		mov	r3, #6
 871 0034 8380     		strh	r3, [r0, #4]
 727:.\_BLE.c      ****     CyBle_GattsWriteAttributeValue(&FlagsHandle, 0, &connectionHandle, CYBLE_GATT_DB_LOCALLY_INITIA
 872              		.loc 1 727 0
 873 0036 0021     		mov	r1, #0
 874 0038 084A     		ldr	r2, .L41+24
 875 003a 0023     		mov	r3, #0
 876 003c FFF7FEFF 		bl	CyBle_GattsWriteAttributeValue
 877              	.LVL35:
 728:.\_BLE.c      **** }
 878              		.loc 1 728 0
 879 0040 07B0     		add	sp, sp, #28
 880              		@ sp needed
 881 0042 00BD     		pop	{pc}
 882              	.L42:
 883              		.align	2
 884              	.L41:
 885 0044 00000000 		.word	Status_Ready
 886 0048 00000000 		.word	Status_Acquiring
 887 004c 00000000 		.word	Status_NoMoreSpace
 888 0050 00000000 		.word	Status_DataAcquired
 889 0054 00000000 		.word	Status_Sending
 890 0058 00000000 		.word	Status_NoMoreData
 891 005c 00000000 		.word	connectionHandle
 892              		.cfi_endproc
 893              	.LFE42:
 894              		.size	_BLE_writeStatusFlags, .-_BLE_writeStatusFlags
 895              		.section	.text.EventHandler,"ax",%progbits
 896              		.align	2
 897              		.global	EventHandler
 898              		.code	16
 899              		.thumb_func
 900              		.type	EventHandler, %function
 901              	EventHandler:
 902              	.LFB37:
 183:.\_BLE.c      ****     // Local variable to store the data received as part of the Write request events.
 903              		.loc 1 183 0
 904              		.cfi_startproc
 905              	.LVL36:
 906 0000 10B5     		push	{r4, lr}
 907              		.cfi_def_cfa_offset 8
 908              		.cfi_offset 4, -8
 909              		.cfi_offset 14, -4
ARM GAS  C:\Users\ALEXAN~1\AppData\Local\Temp\cc386xIo.s 			page 30


 188:.\_BLE.c      ****     
 910              		.loc 1 188 0
 911 0002 6F4A     		ldr	r2, .L72
 912 0004 1378     		ldrb	r3, [r2]
 913 0006 5C1C     		add	r4, r3, #1
 914 0008 1470     		strb	r4, [r2]
 915 000a 9B00     		lsl	r3, r3, #2
 916 000c 6D4A     		ldr	r2, .L72+4
 917 000e 9850     		str	r0, [r3, r2]
 190:.\_BLE.c      ****     {
 918              		.loc 1 190 0
 919 0010 4128     		cmp	r0, #65
 920 0012 22D0     		beq	.L45
 921 0014 07D8     		bhi	.L46
 922 0016 0528     		cmp	r0, #5
 923 0018 12D0     		beq	.L47
 924 001a 2628     		cmp	r0, #38
 925 001c 14D0     		beq	.L48
 926 001e 0128     		cmp	r0, #1
 927 0020 00D0     		beq	.LCB818
 928 0022 CBE0     		b	.L43	@long jump
 929              	.LCB818:
 930 0024 08E0     		b	.L49
 931              	.L46:
 932 0026 4328     		cmp	r0, #67
 933 0028 2CD0     		beq	.L50
 934 002a 24D3     		bcc	.L51
 935 002c 4C28     		cmp	r0, #76
 936 002e 36D0     		beq	.L52
 937 0030 5728     		cmp	r0, #87
 938 0032 00D1     		bne	.LCB830
 939 0034 C0E0     		b	.L53	@long jump
 940              	.LCB830:
 941 0036 C1E0     		b	.L43
 942              	.L49:
 196:.\_BLE.c      ****         
 943              		.loc 1 196 0
 944 0038 0122     		mov	r2, #1
 945 003a 634B     		ldr	r3, .L72+8
 946 003c 1A70     		strb	r2, [r3]
 198:.\_BLE.c      ****             
 947              		.loc 1 198 0
 948 003e BDE0     		b	.L43
 949              	.L47:
 220:.\_BLE.c      ****             
 950              		.loc 1 220 0
 951 0040 0A78     		ldrb	r2, [r1]
 952 0042 624B     		ldr	r3, .L72+12
 953 0044 1A70     		strb	r2, [r3]
 222:.\_BLE.c      ****             
 954              		.loc 1 222 0
 955 0046 B9E0     		b	.L43
 956              	.L48:
 237:.\_BLE.c      ****                 _BLE_restartAdvertisement = TRUE;
 957              		.loc 1 237 0
 958 0048 614B     		ldr	r3, .L72+16
 959 004a 1B78     		ldrb	r3, [r3]
ARM GAS  C:\Users\ALEXAN~1\AppData\Local\Temp\cc386xIo.s 			page 31


 960 004c 032B     		cmp	r3, #3
 961 004e 00D1     		bne	.LCB853
 962 0050 B4E0     		b	.L43	@long jump
 963              	.LCB853:
 238:.\_BLE.c      ****             
 964              		.loc 1 238 0
 965 0052 0122     		mov	r2, #1
 966 0054 5C4B     		ldr	r3, .L72+8
 967 0056 1A70     		strb	r2, [r3]
 968 0058 B0E0     		b	.L43
 969              	.L45:
 271:.\_BLE.c      ****             
 970              		.loc 1 271 0
 971 005a 5E48     		ldr	r0, .L72+20
 972              	.LVL37:
 973 005c 0222     		mov	r2, #2
 974              	.LVL38:
 975 005e FFF7FEFF 		bl	memcpy
 976              	.LVL39:
 274:.\_BLE.c      ****             
 977              		.loc 1 274 0
 978 0062 0122     		mov	r2, #1
 979 0064 5C4B     		ldr	r3, .L72+24
 980 0066 1A70     		strb	r2, [r3]
 277:.\_BLE.c      ****             _BLE_UpdateControl();
 981              		.loc 1 277 0
 982 0068 FFF7FEFF 		bl	_BLE_UpdateCCCD
 983              	.LVL40:
 278:.\_BLE.c      ****             _BLE_writeStatusFlags();
 984              		.loc 1 278 0
 985 006c FFF7FEFF 		bl	_BLE_UpdateControl
 986              	.LVL41:
 279:.\_BLE.c      ****             
 987              		.loc 1 279 0
 988 0070 FFF7FEFF 		bl	_BLE_writeStatusFlags
 989              	.LVL42:
 281:.\_BLE.c      ****         
 990              		.loc 1 281 0
 991 0074 A2E0     		b	.L43
 992              	.LVL43:
 993              	.L51:
 288:.\_BLE.c      ****             
 994              		.loc 1 288 0
 995 0076 0022     		mov	r2, #0
 996 0078 574B     		ldr	r3, .L72+24
 997 007a 1A70     		strb	r2, [r3]
 291:.\_BLE.c      ****             
 998              		.loc 1 291 0
 999 007c 0132     		add	r2, r2, #1
 1000 007e 574B     		ldr	r3, .L72+28
 1001 0080 1A70     		strb	r2, [r3]
 293:.\_BLE.c      ****             
 1002              		.loc 1 293 0
 1003 0082 9BE0     		b	.L43
 1004              	.L50:
 301:.\_BLE.c      ****             
 1005              		.loc 1 301 0
ARM GAS  C:\Users\ALEXAN~1\AppData\Local\Temp\cc386xIo.s 			page 32


 1006 0084 564C     		ldr	r4, .L72+32
 1007 0086 201C     		mov	r0, r4
 1008              	.LVL44:
 1009 0088 FFF7FEFF 		bl	CyBle_GattGetMtuSize
 1010              	.LVL45:
 304:.\_BLE.c      ****             
 1011              		.loc 1 304 0
 1012 008c 514A     		ldr	r2, .L72+20
 1013 008e 2188     		ldrh	r1, [r4]
 1014 0090 1378     		ldrb	r3, [r2]
 1015 0092 5078     		ldrb	r0, [r2, #1]
 1016 0094 0002     		lsl	r0, r0, #8
 1017 0096 1843     		orr	r0, r3
 1018 0098 FFF7FEFF 		bl	CyBle_GattsExchangeMtuRsp
 1019              	.LVL46:
 306:.\_BLE.c      ****             
 1020              		.loc 1 306 0
 1021 009c 8EE0     		b	.L43
 1022              	.LVL47:
 1023              	.L52:
 318:.\_BLE.c      ****             {
 1024              		.loc 1 318 0
 1025 009e 8B89     		ldrh	r3, [r1, #12]
 317:.\_BLE.c      ****                 wrReqParam->handleValPair.attrHandle)
 1026              		.loc 1 317 0
 1027 00a0 0F2B     		cmp	r3, #15
 1028 00a2 18D1     		bne	.L54
 321:.\_BLE.c      ****                     sendDataNotifications = TRUE;
 1029              		.loc 1 321 0
 1030 00a4 4B68     		ldr	r3, [r1, #4]
 1031 00a6 1A78     		ldrb	r2, [r3]
 1032 00a8 D207     		lsl	r2, r2, #31
 1033 00aa 03D5     		bpl	.L55
 322:.\_BLE.c      ****                 else
 1034              		.loc 1 322 0
 1035 00ac 0121     		mov	r1, #1
 1036              	.LVL48:
 1037 00ae 4D4A     		ldr	r2, .L72+36
 1038 00b0 1170     		strb	r1, [r2]
 1039 00b2 02E0     		b	.L56
 1040              	.LVL49:
 1041              	.L55:
 324:.\_BLE.c      ****                 
 1042              		.loc 1 324 0
 1043 00b4 0021     		mov	r1, #0
 1044              	.LVL50:
 1045 00b6 4B4A     		ldr	r2, .L72+36
 1046 00b8 1170     		strb	r1, [r2]
 1047              	.L56:
 326:.\_BLE.c      **** 				    sendDataIndications = TRUE;
 1048              		.loc 1 326 0
 1049 00ba 1B78     		ldrb	r3, [r3]
 1050 00bc 9B07     		lsl	r3, r3, #30
 1051 00be 03D5     		bpl	.L57
 327:.\_BLE.c      ****                 else
 1052              		.loc 1 327 0
 1053 00c0 0122     		mov	r2, #1
ARM GAS  C:\Users\ALEXAN~1\AppData\Local\Temp\cc386xIo.s 			page 33


 1054 00c2 494B     		ldr	r3, .L72+40
 1055 00c4 1A70     		strb	r2, [r3]
 1056 00c6 02E0     		b	.L58
 1057              	.L57:
 329:.\_BLE.c      ****                 
 1058              		.loc 1 329 0
 1059 00c8 0022     		mov	r2, #0
 1060 00ca 474B     		ldr	r3, .L72+40
 1061 00cc 1A70     		strb	r2, [r3]
 1062              	.L58:
 332:.\_BLE.c      ****             }
 1063              		.loc 1 332 0
 1064 00ce 0122     		mov	r2, #1
 1065 00d0 464B     		ldr	r3, .L72+44
 1066 00d2 1A70     		strb	r2, [r3]
 1067 00d4 61E0     		b	.L59
 1068              	.LVL51:
 1069              	.L54:
 337:.\_BLE.c      ****                 wrReqParam->handleValPair.attrHandle)
 1070              		.loc 1 337 0
 1071 00d6 122B     		cmp	r3, #18
 1072 00d8 45D1     		bne	.L60
 343:.\_BLE.c      ****                     _BLE_acquireData = FALSE;
 1073              		.loc 1 343 0
 1074 00da 454B     		ldr	r3, .L72+48
 1075 00dc 1A78     		ldrb	r2, [r3]
 1076 00de 002A     		cmp	r2, #0
 1077 00e0 07D0     		beq	.L61
 343:.\_BLE.c      ****                     _BLE_acquireData = FALSE;
 1078              		.loc 1 343 0 is_stmt 0 discriminator 1
 1079 00e2 4B68     		ldr	r3, [r1, #4]
 1080 00e4 1B78     		ldrb	r3, [r3]
 1081 00e6 002B     		cmp	r3, #0
 1082 00e8 03D1     		bne	.L61
 344:.\_BLE.c      ****                 else if ( Status_Ready && wrReqParam->handleValPair.value.val[CONTROL_ACQUIRE_DATA_
 1083              		.loc 1 344 0 is_stmt 1
 1084 00ea 0020     		mov	r0, #0
 1085              	.LVL52:
 1086 00ec 414B     		ldr	r3, .L72+52
 1087 00ee 1870     		strb	r0, [r3]
 1088 00f0 0AE0     		b	.L62
 1089              	.LVL53:
 1090              	.L61:
 345:.\_BLE.c      ****                     _BLE_acquireData = TRUE;
 1091              		.loc 1 345 0
 1092 00f2 414B     		ldr	r3, .L72+56
 1093 00f4 1B78     		ldrb	r3, [r3]
 1094 00f6 002B     		cmp	r3, #0
 1095 00f8 06D0     		beq	.L62
 345:.\_BLE.c      ****                     _BLE_acquireData = TRUE;
 1096              		.loc 1 345 0 is_stmt 0 discriminator 1
 1097 00fa 4B68     		ldr	r3, [r1, #4]
 1098 00fc 1B78     		ldrb	r3, [r3]
 1099 00fe 002B     		cmp	r3, #0
 1100 0100 02D0     		beq	.L62
 346:.\_BLE.c      ****                 
 1101              		.loc 1 346 0 is_stmt 1
ARM GAS  C:\Users\ALEXAN~1\AppData\Local\Temp\cc386xIo.s 			page 34


 1102 0102 0120     		mov	r0, #1
 1103              	.LVL54:
 1104 0104 3B4B     		ldr	r3, .L72+52
 1105 0106 1870     		strb	r0, [r3]
 1106              	.L62:
 351:.\_BLE.c      ****                     _BLE_sendData = FALSE;
 1107              		.loc 1 351 0
 1108 0108 4B68     		ldr	r3, [r1, #4]
 1109 010a 5978     		ldrb	r1, [r3, #1]
 1110              	.LVL55:
 1111 010c 0029     		cmp	r1, #0
 1112 010e 07D1     		bne	.L63
 351:.\_BLE.c      ****                     _BLE_sendData = FALSE;
 1113              		.loc 1 351 0 is_stmt 0 discriminator 1
 1114 0110 3A48     		ldr	r0, .L72+60
 1115 0112 0078     		ldrb	r0, [r0]
 1116 0114 0028     		cmp	r0, #0
 1117 0116 03D0     		beq	.L63
 352:.\_BLE.c      ****                 else if ( wrReqParam->handleValPair.value.val[CONTROL_SEND_DATA_BYTE_MASK] && Statu
 1118              		.loc 1 352 0 is_stmt 1
 1119 0118 0020     		mov	r0, #0
 1120 011a 3949     		ldr	r1, .L72+64
 1121 011c 0870     		strb	r0, [r1]
 1122 011e 08E0     		b	.L64
 1123              	.L63:
 353:.\_BLE.c      ****                     _BLE_sendData = TRUE;
 1124              		.loc 1 353 0
 1125 0120 0029     		cmp	r1, #0
 1126 0122 06D0     		beq	.L64
 353:.\_BLE.c      ****                     _BLE_sendData = TRUE;
 1127              		.loc 1 353 0 is_stmt 0 discriminator 1
 1128 0124 3749     		ldr	r1, .L72+68
 1129 0126 0978     		ldrb	r1, [r1]
 1130 0128 0029     		cmp	r1, #0
 1131 012a 02D0     		beq	.L64
 354:.\_BLE.c      ****                 
 1132              		.loc 1 354 0 is_stmt 1
 1133 012c 0120     		mov	r0, #1
 1134 012e 3449     		ldr	r1, .L72+64
 1135 0130 0870     		strb	r0, [r1]
 1136              	.L64:
 359:.\_BLE.c      ****                     _BLE_sendDataSynchronously = FALSE;
 1137              		.loc 1 359 0
 1138 0132 002A     		cmp	r2, #0
 1139 0134 03D1     		bne	.L65
 359:.\_BLE.c      ****                     _BLE_sendDataSynchronously = FALSE;
 1140              		.loc 1 359 0 is_stmt 0 discriminator 2
 1141 0136 304A     		ldr	r2, .L72+56
 1142 0138 1278     		ldrb	r2, [r2]
 1143 013a 002A     		cmp	r2, #0
 1144 013c 05D0     		beq	.L66
 1145              	.L65:
 359:.\_BLE.c      ****                     _BLE_sendDataSynchronously = FALSE;
 1146              		.loc 1 359 0 discriminator 3
 1147 013e 9A78     		ldrb	r2, [r3, #2]
 1148 0140 002A     		cmp	r2, #0
 1149 0142 02D1     		bne	.L66
ARM GAS  C:\Users\ALEXAN~1\AppData\Local\Temp\cc386xIo.s 			page 35


 360:.\_BLE.c      ****                 else if ( Status_Ready && wrReqParam->handleValPair.value.val[CONTROL_SEND_DATA_SYN
 1150              		.loc 1 360 0 is_stmt 1
 1151 0144 304B     		ldr	r3, .L72+72
 1152 0146 1A70     		strb	r2, [r3]
 1153 0148 09E0     		b	.L67
 1154              	.L66:
 361:.\_BLE.c      ****                     _BLE_sendDataSynchronously = TRUE;
 1155              		.loc 1 361 0
 1156 014a 2B4A     		ldr	r2, .L72+56
 1157 014c 1278     		ldrb	r2, [r2]
 1158 014e 002A     		cmp	r2, #0
 1159 0150 05D0     		beq	.L67
 361:.\_BLE.c      ****                     _BLE_sendDataSynchronously = TRUE;
 1160              		.loc 1 361 0 is_stmt 0 discriminator 1
 1161 0152 9B78     		ldrb	r3, [r3, #2]
 1162 0154 002B     		cmp	r3, #0
 1163 0156 02D0     		beq	.L67
 362:.\_BLE.c      **** 
 1164              		.loc 1 362 0 is_stmt 1
 1165 0158 0122     		mov	r2, #1
 1166 015a 2B4B     		ldr	r3, .L72+72
 1167 015c 1A70     		strb	r2, [r3]
 1168              	.L67:
 366:.\_BLE.c      ****             }
 1169              		.loc 1 366 0
 1170 015e 0122     		mov	r2, #1
 1171 0160 2A4B     		ldr	r3, .L72+76
 1172 0162 1A70     		strb	r2, [r3]
 1173 0164 19E0     		b	.L59
 1174              	.LVL56:
 1175              	.L60:
 371:.\_BLE.c      ****                 wrReqParam->handleValPair.attrHandle)
 1176              		.loc 1 371 0
 1177 0166 152B     		cmp	r3, #21
 1178 0168 17D1     		bne	.L59
 375:.\_BLE.c      ****                     sendStatusNotifications = TRUE;
 1179              		.loc 1 375 0
 1180 016a 4B68     		ldr	r3, [r1, #4]
 1181 016c 1A78     		ldrb	r2, [r3]
 1182 016e D207     		lsl	r2, r2, #31
 1183 0170 03D5     		bpl	.L68
 376:.\_BLE.c      ****                 else
 1184              		.loc 1 376 0
 1185 0172 0121     		mov	r1, #1
 1186              	.LVL57:
 1187 0174 264A     		ldr	r2, .L72+80
 1188 0176 1170     		strb	r1, [r2]
 1189 0178 02E0     		b	.L69
 1190              	.LVL58:
 1191              	.L68:
 378:.\_BLE.c      ****                 
 1192              		.loc 1 378 0
 1193 017a 0021     		mov	r1, #0
 1194              	.LVL59:
 1195 017c 244A     		ldr	r2, .L72+80
 1196 017e 1170     		strb	r1, [r2]
 1197              	.L69:
ARM GAS  C:\Users\ALEXAN~1\AppData\Local\Temp\cc386xIo.s 			page 36


 380:.\_BLE.c      **** 				    sendStatusIndications = TRUE;
 1198              		.loc 1 380 0
 1199 0180 1B78     		ldrb	r3, [r3]
 1200 0182 9B07     		lsl	r3, r3, #30
 1201 0184 03D5     		bpl	.L70
 381:.\_BLE.c      ****                 else
 1202              		.loc 1 381 0
 1203 0186 0122     		mov	r2, #1
 1204 0188 224B     		ldr	r3, .L72+84
 1205 018a 1A70     		strb	r2, [r3]
 1206 018c 02E0     		b	.L71
 1207              	.L70:
 383:.\_BLE.c      ****                 
 1208              		.loc 1 383 0
 1209 018e 0022     		mov	r2, #0
 1210 0190 204B     		ldr	r3, .L72+84
 1211 0192 1A70     		strb	r2, [r3]
 1212              	.L71:
 386:.\_BLE.c      ****             }
 1213              		.loc 1 386 0
 1214 0194 0122     		mov	r2, #1
 1215 0196 204B     		ldr	r3, .L72+88
 1216 0198 1A70     		strb	r2, [r3]
 1217              	.LVL60:
 1218              	.L59:
 390:.\_BLE.c      ****             
 1219              		.loc 1 390 0
 1220 019a 1D4B     		ldr	r3, .L72+80
 1221 019c 1A78     		ldrb	r2, [r3]
 1222 019e 1D4B     		ldr	r3, .L72+84
 1223 01a0 1B78     		ldrb	r3, [r3]
 1224 01a2 1343     		orr	r3, r2
 1225 01a4 1D4A     		ldr	r2, .L72+92
 1226 01a6 1370     		strb	r3, [r2]
 393:.\_BLE.c      ****             
 1227              		.loc 1 393 0
 1228 01a8 0A4A     		ldr	r2, .L72+20
 1229 01aa 1378     		ldrb	r3, [r2]
 1230 01ac 5078     		ldrb	r0, [r2, #1]
 1231 01ae 0002     		lsl	r0, r0, #8
 1232 01b0 1843     		orr	r0, r3
 1233 01b2 FFF7FEFF 		bl	CyBle_GattsWriteRsp
 1234              	.LVL61:
 395:.\_BLE.c      ****             
 1235              		.loc 1 395 0
 1236 01b6 01E0     		b	.L43
 1237              	.LVL62:
 1238              	.L53:
 412:.\_BLE.c      ****             
 1239              		.loc 1 412 0
 1240 01b8 FFF7FEFF 		bl	_BLE_writeStatusFlags
 1241              	.LVL63:
 1242              	.L43:
 417:.\_BLE.c      **** 
 1243              		.loc 1 417 0
 1244              		@ sp needed
 1245 01bc 10BD     		pop	{r4, pc}
ARM GAS  C:\Users\ALEXAN~1\AppData\Local\Temp\cc386xIo.s 			page 37


 1246              	.L73:
 1247 01be C046     		.align	2
 1248              	.L72:
 1249 01c0 00000000 		.word	.LANCHOR1
 1250 01c4 00000000 		.word	eventCodesLog
 1251 01c8 00000000 		.word	_BLE_restartAdvertisement
 1252 01cc 00000000 		.word	_BLE_busyStatus
 1253 01d0 00000000 		.word	cyBle_state
 1254 01d4 00000000 		.word	connectionHandle
 1255 01d8 00000000 		.word	_BLE_deviceConnected
 1256 01dc 00000000 		.word	_BLE_resetNeeded
 1257 01e0 00000000 		.word	currentMTU
 1258 01e4 00000000 		.word	sendDataNotifications
 1259 01e8 00000000 		.word	sendDataIndications
 1260 01ec 00000000 		.word	updateSensorsCCCDreq
 1261 01f0 00000000 		.word	Status_Acquiring
 1262 01f4 00000000 		.word	_BLE_acquireData
 1263 01f8 00000000 		.word	Status_Ready
 1264 01fc 00000000 		.word	Status_NoMoreData
 1265 0200 00000000 		.word	_BLE_sendData
 1266 0204 00000000 		.word	Status_DataAcquired
 1267 0208 00000000 		.word	_BLE_sendDataSynchronously
 1268 020c 00000000 		.word	updateControlValuesReq
 1269 0210 00000000 		.word	sendStatusNotifications
 1270 0214 00000000 		.word	sendStatusIndications
 1271 0218 00000000 		.word	updateStatusCCCDreq
 1272 021c 00000000 		.word	_BLE_sendStatus
 1273              		.cfi_endproc
 1274              	.LFE37:
 1275              		.size	EventHandler, .-EventHandler
 1276              		.global	pointer
 1277              		.comm	eventCodesLog,1024,4
 1278              		.comm	updateControlValuesReq,1,1
 1279              		.comm	updateStatusCCCDreq,1,1
 1280              		.comm	updateSensorsCCCDreq,1,1
 1281              		.comm	_BLE_resetNeeded,1,1
 1282              		.comm	_BLE_restartAdvertisement,1,1
 1283              		.comm	_BLE_sendDataSynchronously,1,1
 1284              		.comm	_BLE_sendStatus,1,1
 1285              		.comm	_BLE_sendData,1,1
 1286              		.comm	_BLE_acquireData,1,1
 1287              		.comm	sendStatusIndications,1,1
 1288              		.comm	sendStatusNotifications,1,1
 1289              		.comm	sendDataIndications,1,1
 1290              		.comm	sendDataNotifications,1,1
 1291              		.comm	currentMTU,2,2
 1292              		.comm	connectionParameters,8,4
 1293              		.comm	_BLE_deviceConnected,1,1
 1294              		.comm	_BLE_busyStatus,1,1
 1295              		.comm	connectionHandle,2,4
 1296              		.data
 1297              		.set	.LANCHOR0,. + 0
 1298              		.type	Previous_Status_Ready.6970, %object
 1299              		.size	Previous_Status_Ready.6970, 1
 1300              	Previous_Status_Ready.6970:
 1301 0000 FF       		.byte	-1
 1302              		.type	Previous_Status_Acquiring.6971, %object
ARM GAS  C:\Users\ALEXAN~1\AppData\Local\Temp\cc386xIo.s 			page 38


 1303              		.size	Previous_Status_Acquiring.6971, 1
 1304              	Previous_Status_Acquiring.6971:
 1305 0001 FF       		.byte	-1
 1306              		.type	Previous_Status_NoMoreSpace.6972, %object
 1307              		.size	Previous_Status_NoMoreSpace.6972, 1
 1308              	Previous_Status_NoMoreSpace.6972:
 1309 0002 FF       		.byte	-1
 1310              		.type	Previous_Status_DataAcquired.6973, %object
 1311              		.size	Previous_Status_DataAcquired.6973, 1
 1312              	Previous_Status_DataAcquired.6973:
 1313 0003 FF       		.byte	-1
 1314              		.type	Previous_Status_Sending.6974, %object
 1315              		.size	Previous_Status_Sending.6974, 1
 1316              	Previous_Status_Sending.6974:
 1317 0004 FF       		.byte	-1
 1318              		.type	Previous_Status_NoMoreData.6975, %object
 1319              		.size	Previous_Status_NoMoreData.6975, 1
 1320              	Previous_Status_NoMoreData.6975:
 1321 0005 FF       		.byte	-1
 1322              		.bss
 1323              		.set	.LANCHOR1,. + 0
 1324              		.type	pointer, %object
 1325              		.size	pointer, 1
 1326              	pointer:
 1327 0000 00       		.space	1
 1328              		.text
 1329              	.Letext0:
 1330              		.file 2 "Generated_Source\\PSoC4/cytypes.h"
 1331              		.file 3 "Generated_Source\\PSoC4/BLE_Stack.h"
 1332              		.file 4 "Generated_Source\\PSoC4/BLE_StackHostMain.h"
 1333              		.file 5 "Generated_Source\\PSoC4/BLE_StackGap.h"
 1334              		.file 6 "Generated_Source\\PSoC4/BLE_StackGatt.h"
 1335              		.file 7 "Generated_Source\\PSoC4/BLE_StackGattServer.h"
 1336              		.file 8 "Generated_Source\\PSoC4/BLE.h"
 1337              		.file 9 "Generated_Source\\PSoC4/BLE_eventHandler.h"
 1338              		.file 10 ".\\main.h"
 1339              		.file 11 "Generated_Source\\PSoC4/BLE_StackGattDb.h"
 1340              		.file 12 ".\\vector.h"
 1341              		.file 13 ".\\crc.h"