ARM GAS  C:\Users\ALEXAN~1\AppData\Local\Temp\cc2y7Z1O.s 			page 1


   1              		.cpu cortex-m0
   2              		.fpu softvfp
   3              		.eabi_attribute 20, 1
   4              		.eabi_attribute 21, 1
   5              		.eabi_attribute 23, 3
   6              		.eabi_attribute 24, 1
   7              		.eabi_attribute 25, 1
   8              		.eabi_attribute 26, 1
   9              		.eabi_attribute 30, 1
  10              		.eabi_attribute 34, 0
  11              		.eabi_attribute 18, 4
  12              		.code	16
  13              		.file	"_CapSense.c"
  14              		.text
  15              	.Ltext0:
  16              		.cfi_sections	.debug_frame
  17              		.section	.text._CapSense_Init,"ax",%progbits
  18              		.align	2
  19              		.global	_CapSense_Init
  20              		.code	16
  21              		.thumb_func
  22              		.type	_CapSense_Init, %function
  23              	_CapSense_Init:
  24              	.LFB35:
  25              		.file 1 ".\\_CapSense.c"
   1:.\_CapSense.c **** /****************************************************************************
   2:.\_CapSense.c **** *
   3:.\_CapSense.c **** * Project Name		: PSoC CapSense 2 BLE
   4:.\_CapSense.c **** *
   5:.\_CapSense.c **** * File Name			: _CapSense.c
   6:.\_CapSense.c **** * Version 			: 1.0
   7:.\_CapSense.c **** *
   8:.\_CapSense.c **** * Device Used		: CY8C4247LQI-BL483
   9:.\_CapSense.c **** * Software Used		: PSoC Creator 3.3
  10:.\_CapSense.c **** * Compiler    		: ARM GCC 4.8.4, ARM MDK Generic
  11:.\_CapSense.c **** * Related Hardware	: CY8CKIT-042-BLE Bluetooth Low Energy Pioneer Kit 
  12:.\_CapSense.c **** *
  13:.\_CapSense.c **** * Owner             : A. BERNIER
  14:.\_CapSense.c **** *
  15:.\_CapSense.c **** *****************************************************************************/
  16:.\_CapSense.c **** 
  17:.\_CapSense.c **** 
  18:.\_CapSense.c **** /*****************************************************************************
  19:.\_CapSense.c **** * Included headers
  20:.\_CapSense.c **** *****************************************************************************/
  21:.\_CapSense.c **** #include "_CapSense.h"
  22:.\_CapSense.c **** #include "crc.h"
  23:.\_CapSense.c **** 
  24:.\_CapSense.c **** 
  25:.\_CapSense.c **** /*****************************************************************************
  26:.\_CapSense.c **** * Function Name: _CapSense_Init()
  27:.\_CapSense.c **** ******************************************************************************
  28:.\_CapSense.c **** * Summary:
  29:.\_CapSense.c **** *   Initialize the CapSense module.
  30:.\_CapSense.c **** *
  31:.\_CapSense.c **** * Parameters:
  32:.\_CapSense.c **** *   None.
ARM GAS  C:\Users\ALEXAN~1\AppData\Local\Temp\cc2y7Z1O.s 			page 2


  33:.\_CapSense.c **** *
  34:.\_CapSense.c **** * Return:
  35:.\_CapSense.c **** *   None.
  36:.\_CapSense.c **** *
  37:.\_CapSense.c **** * Note:
  38:.\_CapSense.c **** *
  39:.\_CapSense.c **** *****************************************************************************/
  40:.\_CapSense.c **** void _CapSense_Init(void)
  41:.\_CapSense.c **** {
  26              		.loc 1 41 0
  27              		.cfi_startproc
  28 0000 08B5     		push	{r3, lr}
  29              		.cfi_def_cfa_offset 8
  30              		.cfi_offset 3, -8
  31              		.cfi_offset 14, -4
  42:.\_CapSense.c ****     // Initialize and enables all the sensors.
  43:.\_CapSense.c ****     CapSense_Start();
  32              		.loc 1 43 0
  33 0002 FFF7FEFF 		bl	CapSense_Start
  34              	.LVL0:
  44:.\_CapSense.c ****     
  45:.\_CapSense.c ****     // Initialize all CapSense Baseline.
  46:.\_CapSense.c **** 	CapSense_InitializeAllBaselines();
  35              		.loc 1 46 0
  36 0006 FFF7FEFF 		bl	CapSense_InitializeAllBaselines
  37              	.LVL1:
  47:.\_CapSense.c **** }
  38              		.loc 1 47 0
  39              		@ sp needed
  40 000a 08BD     		pop	{r3, pc}
  41              		.cfi_endproc
  42              	.LFE35:
  43              		.size	_CapSense_Init, .-_CapSense_Init
  44              		.section	.text._CapSense_Scan,"ax",%progbits
  45              		.align	2
  46              		.global	_CapSense_Scan
  47              		.code	16
  48              		.thumb_func
  49              		.type	_CapSense_Scan, %function
  50              	_CapSense_Scan:
  51              	.LFB36:
  48:.\_CapSense.c **** 
  49:.\_CapSense.c **** 
  50:.\_CapSense.c **** /*****************************************************************************
  51:.\_CapSense.c **** * Function Name: _CapSense_Scan()
  52:.\_CapSense.c **** ******************************************************************************
  53:.\_CapSense.c **** * Summary:
  54:.\_CapSense.c **** *   Scan the CapSense module.
  55:.\_CapSense.c **** *
  56:.\_CapSense.c **** * Parameters:
  57:.\_CapSense.c **** *   None.
  58:.\_CapSense.c **** *
  59:.\_CapSense.c **** * Return:
  60:.\_CapSense.c **** *   None.
  61:.\_CapSense.c **** *
  62:.\_CapSense.c **** * Note:
  63:.\_CapSense.c **** *
ARM GAS  C:\Users\ALEXAN~1\AppData\Local\Temp\cc2y7Z1O.s 			page 3


  64:.\_CapSense.c **** *****************************************************************************/
  65:.\_CapSense.c **** void _CapSense_Scan(void)
  66:.\_CapSense.c **** {
  52              		.loc 1 66 0
  53              		.cfi_startproc
  54 0000 08B5     		push	{r3, lr}
  55              		.cfi_def_cfa_offset 8
  56              		.cfi_offset 3, -8
  57              		.cfi_offset 14, -4
  67:.\_CapSense.c ****     if (!vectorIsFull())
  58              		.loc 1 67 0
  59 0002 FFF7FEFF 		bl	vectorIsFull
  60              	.LVL2:
  61 0006 0028     		cmp	r0, #0
  62 0008 0DD1     		bne	.L2
  68:.\_CapSense.c ****     {
  69:.\_CapSense.c ****         // Scan the Widgets.
  70:.\_CapSense.c ****         CapSense_ScanEnabledWidgets();
  63              		.loc 1 70 0
  64 000a FFF7FEFF 		bl	CapSense_ScanEnabledWidgets
  65              	.LVL3:
  71:.\_CapSense.c ****         
  72:.\_CapSense.c ****         // Wait for CapSense scanning to be complete.
  73:.\_CapSense.c ****     	while(CapSense_IsBusy())
  66              		.loc 1 73 0
  67 000e 01E0     		b	.L4
  68              	.L5:
  74:.\_CapSense.c ****     		CySysPmSleep();
  69              		.loc 1 74 0
  70 0010 FFF7FEFF 		bl	CySysPmSleep
  71              	.LVL4:
  72              	.L4:
  73:.\_CapSense.c ****     		CySysPmSleep();
  73              		.loc 1 73 0
  74 0014 FFF7FEFF 		bl	CapSense_IsBusy
  75              	.LVL5:
  76 0018 0028     		cmp	r0, #0
  77 001a F9D1     		bne	.L5
  75:.\_CapSense.c ****         
  76:.\_CapSense.c ****         // Update CapSense Baseline.
  77:.\_CapSense.c ****         CapSense_UpdateEnabledBaselines();
  78              		.loc 1 77 0
  79 001c FFF7FEFF 		bl	CapSense_UpdateEnabledBaselines
  80              	.LVL6:
  78:.\_CapSense.c ****             
  79:.\_CapSense.c ****         // Store the sensors values into the vectors.
  80:.\_CapSense.c ****         pushInVector(CapSense_sensorRaw);
  81              		.loc 1 80 0
  82 0020 0148     		ldr	r0, .L6
  83 0022 FFF7FEFF 		bl	pushInVector
  84              	.LVL7:
  85              	.L2:
  81:.\_CapSense.c ****     }
  82:.\_CapSense.c **** }
  86              		.loc 1 82 0
  87              		@ sp needed
  88 0026 08BD     		pop	{r3, pc}
ARM GAS  C:\Users\ALEXAN~1\AppData\Local\Temp\cc2y7Z1O.s 			page 4


  89              	.L7:
  90              		.align	2
  91              	.L6:
  92 0028 00000000 		.word	CapSense_sensorRaw
  93              		.cfi_endproc
  94              	.LFE36:
  95              		.size	_CapSense_Scan, .-_CapSense_Scan
  96              		.text
  97              	.Letext0:
  98              		.file 2 "Generated_Source\\PSoC4/cytypes.h"
  99              		.file 3 "Generated_Source\\PSoC4/CapSense.h"
 100              		.file 4 "Generated_Source\\PSoC4/CapSense_CSHL.h"
 101              		.file 5 "Generated_Source\\PSoC4/cyPm.h"
 102              		.file 6 ".\\vector.h"