ARM GAS  C:\Users\ALEXAN~1\AppData\Local\Temp\cc6cf1Oa.s 			page 1


   1              		.cpu cortex-m0
   2              		.fpu softvfp
   3              		.eabi_attribute 20, 1
   4              		.eabi_attribute 21, 1
   5              		.eabi_attribute 23, 3
   6              		.eabi_attribute 24, 1
   7              		.eabi_attribute 25, 1
   8              		.eabi_attribute 26, 1
   9              		.eabi_attribute 30, 1
  10              		.eabi_attribute 34, 0
  11              		.eabi_attribute 18, 4
  12              		.code	16
  13              		.file	"_LED.c"
  14              		.text
  15              	.Ltext0:
  16              		.cfi_sections	.debug_frame
  17              		.section	.text._LED_Init,"ax",%progbits
  18              		.align	2
  19              		.global	_LED_Init
  20              		.code	16
  21              		.thumb_func
  22              		.type	_LED_Init, %function
  23              	_LED_Init:
  24              	.LFB35:
  25              		.file 1 ".\\_LED.c"
   1:.\_LED.c      **** /****************************************************************************
   2:.\_LED.c      **** *
   3:.\_LED.c      **** * Project Name		: PSoC CapSense 2 BLE
   4:.\_LED.c      **** *
   5:.\_LED.c      **** * File Name			: _LED.c
   6:.\_LED.c      **** * Version 			: 1.0
   7:.\_LED.c      **** *
   8:.\_LED.c      **** * Device Used		: CY8C4247LQI-BL483
   9:.\_LED.c      **** * Software Used		: PSoC Creator 3.3
  10:.\_LED.c      **** * Compiler    		: ARM GCC 4.8.4, ARM MDK Generic
  11:.\_LED.c      **** * Related Hardware	: CY8CKIT-042-BLE Bluetooth Low Energy Pioneer Kit 
  12:.\_LED.c      **** *
  13:.\_LED.c      **** * Owner             : A. BERNIER
  14:.\_LED.c      **** *
  15:.\_LED.c      **** *****************************************************************************/
  16:.\_LED.c      **** 
  17:.\_LED.c      **** 
  18:.\_LED.c      **** /*****************************************************************************
  19:.\_LED.c      **** * Included headers
  20:.\_LED.c      **** *****************************************************************************/
  21:.\_LED.c      **** #include "_LED.h"
  22:.\_LED.c      **** 
  23:.\_LED.c      **** 
  24:.\_LED.c      **** /*****************************************************************************
  25:.\_LED.c      **** * Local global variables
  26:.\_LED.c      **** *****************************************************************************/
  27:.\_LED.c      **** // Flags that indicate the current state of each LEDs.
  28:.\_LED.c      **** uint8 _LED_Green_On;
  29:.\_LED.c      **** 
  30:.\_LED.c      **** 
  31:.\_LED.c      **** /*****************************************************************************
  32:.\_LED.c      **** * Function Name: _LED_Init()
ARM GAS  C:\Users\ALEXAN~1\AppData\Local\Temp\cc6cf1Oa.s 			page 2


  33:.\_LED.c      **** ******************************************************************************
  34:.\_LED.c      **** * Summary:
  35:.\_LED.c      **** *   Initialize the PrISM modules.
  36:.\_LED.c      **** *
  37:.\_LED.c      **** * Parameters:
  38:.\_LED.c      **** *   None.
  39:.\_LED.c      **** *
  40:.\_LED.c      **** * Return:
  41:.\_LED.c      **** *   None.
  42:.\_LED.c      **** *
  43:.\_LED.c      **** * Note:
  44:.\_LED.c      **** *
  45:.\_LED.c      **** *****************************************************************************/
  46:.\_LED.c      **** void _LED_Init(void)
  47:.\_LED.c      **** {
  26              		.loc 1 47 0
  27              		.cfi_startproc
  28 0000 08B5     		push	{r3, lr}
  29              		.cfi_def_cfa_offset 8
  30              		.cfi_offset 3, -8
  31              		.cfi_offset 14, -4
  48:.\_LED.c      **** 	// Set Drive mode of output pins to Strong.
  49:.\_LED.c      **** 	GREEN_SetDriveMode(GREEN_DM_STRONG);
  32              		.loc 1 49 0
  33 0002 0620     		mov	r0, #6
  34 0004 FFF7FEFF 		bl	GREEN_SetDriveMode
  35              	.LVL0:
  50:.\_LED.c      ****     
  51:.\_LED.c      ****     // Reset the flags.
  52:.\_LED.c      ****     _LED_Green_On = FALSE;
  36              		.loc 1 52 0
  37 0008 0022     		mov	r2, #0
  38 000a 014B     		ldr	r3, .L2
  39 000c 1A70     		strb	r2, [r3]
  53:.\_LED.c      **** }
  40              		.loc 1 53 0
  41              		@ sp needed
  42 000e 08BD     		pop	{r3, pc}
  43              	.L3:
  44              		.align	2
  45              	.L2:
  46 0010 00000000 		.word	_LED_Green_On
  47              		.cfi_endproc
  48              	.LFE35:
  49              		.size	_LED_Init, .-_LED_Init
  50              		.section	.text._LED_TurnOnLED,"ax",%progbits
  51              		.align	2
  52              		.global	_LED_TurnOnLED
  53              		.code	16
  54              		.thumb_func
  55              		.type	_LED_TurnOnLED, %function
  56              	_LED_TurnOnLED:
  57              	.LFB36:
  54:.\_LED.c      **** 
  55:.\_LED.c      **** 
  56:.\_LED.c      **** /*****************************************************************************
  57:.\_LED.c      **** * Function Name: _LED_TurnOnLED()
ARM GAS  C:\Users\ALEXAN~1\AppData\Local\Temp\cc6cf1Oa.s 			page 3


  58:.\_LED.c      **** ******************************************************************************
  59:.\_LED.c      **** * Summary:
  60:.\_LED.c      **** *   Turns ON the selected LED.
  61:.\_LED.c      **** *
  62:.\_LED.c      **** * Parameters:
  63:.\_LED.c      **** *   LEDs to turn ON.
  64:.\_LED.c      **** *
  65:.\_LED.c      **** * Return:
  66:.\_LED.c      **** *   None.
  67:.\_LED.c      **** *
  68:.\_LED.c      **** * Note:
  69:.\_LED.c      **** *
  70:.\_LED.c      **** *****************************************************************************/
  71:.\_LED.c      **** void _LED_TurnOnLED(uint8 Green)
  72:.\_LED.c      **** {
  58              		.loc 1 72 0
  59              		.cfi_startproc
  60              	.LVL1:
  61 0000 08B5     		push	{r3, lr}
  62              		.cfi_def_cfa_offset 8
  63              		.cfi_offset 3, -8
  64              		.cfi_offset 14, -4
  73:.\_LED.c      ****     if(Green) {
  65              		.loc 1 73 0
  66 0002 0028     		cmp	r0, #0
  67 0004 05D0     		beq	.L4
  74:.\_LED.c      ****         // Turn Green LED on.
  75:.\_LED.c      ****         GREEN_Write(RGB_LED_ON);
  68              		.loc 1 75 0
  69 0006 0020     		mov	r0, #0
  70              	.LVL2:
  71 0008 FFF7FEFF 		bl	GREEN_Write
  72              	.LVL3:
  76:.\_LED.c      ****         
  77:.\_LED.c      ****         // Set the flag.
  78:.\_LED.c      ****         _LED_Green_On = TRUE;
  73              		.loc 1 78 0
  74 000c 0122     		mov	r2, #1
  75 000e 014B     		ldr	r3, .L6
  76 0010 1A70     		strb	r2, [r3]
  77              	.L4:
  79:.\_LED.c      ****     }
  80:.\_LED.c      **** }
  78              		.loc 1 80 0
  79              		@ sp needed
  80 0012 08BD     		pop	{r3, pc}
  81              	.L7:
  82              		.align	2
  83              	.L6:
  84 0014 00000000 		.word	_LED_Green_On
  85              		.cfi_endproc
  86              	.LFE36:
  87              		.size	_LED_TurnOnLED, .-_LED_TurnOnLED
  88              		.section	.text._LED_TurnOffLED,"ax",%progbits
  89              		.align	2
  90              		.global	_LED_TurnOffLED
  91              		.code	16
ARM GAS  C:\Users\ALEXAN~1\AppData\Local\Temp\cc6cf1Oa.s 			page 4


  92              		.thumb_func
  93              		.type	_LED_TurnOffLED, %function
  94              	_LED_TurnOffLED:
  95              	.LFB37:
  81:.\_LED.c      **** 
  82:.\_LED.c      **** 
  83:.\_LED.c      **** /*****************************************************************************
  84:.\_LED.c      **** * Function Name: _LED_TurnOffLED()
  85:.\_LED.c      **** ******************************************************************************
  86:.\_LED.c      **** * Summary:
  87:.\_LED.c      **** *   Turns OFF the selected LED.
  88:.\_LED.c      **** *
  89:.\_LED.c      **** * Parameters:
  90:.\_LED.c      **** *   LEDs to turn OFF.
  91:.\_LED.c      **** *
  92:.\_LED.c      **** * Return:
  93:.\_LED.c      **** *   None.
  94:.\_LED.c      **** *
  95:.\_LED.c      **** * Note:
  96:.\_LED.c      **** *
  97:.\_LED.c      **** *****************************************************************************/
  98:.\_LED.c      **** void _LED_TurnOffLED(uint8 Green)
  99:.\_LED.c      **** {
  96              		.loc 1 99 0
  97              		.cfi_startproc
  98              	.LVL4:
  99 0000 08B5     		push	{r3, lr}
 100              		.cfi_def_cfa_offset 8
 101              		.cfi_offset 3, -8
 102              		.cfi_offset 14, -4
 100:.\_LED.c      ****     if(Green) {
 103              		.loc 1 100 0
 104 0002 0028     		cmp	r0, #0
 105 0004 05D0     		beq	.L8
 101:.\_LED.c      ****         // Turn Green LED off.
 102:.\_LED.c      ****         GREEN_Write(RGB_LED_OFF);
 106              		.loc 1 102 0
 107 0006 FF20     		mov	r0, #255
 108              	.LVL5:
 109 0008 FFF7FEFF 		bl	GREEN_Write
 110              	.LVL6:
 103:.\_LED.c      ****         
 104:.\_LED.c      ****         // Reset the flag.
 105:.\_LED.c      ****         _LED_Green_On = FALSE;
 111              		.loc 1 105 0
 112 000c 0022     		mov	r2, #0
 113 000e 014B     		ldr	r3, .L10
 114 0010 1A70     		strb	r2, [r3]
 115              	.L8:
 106:.\_LED.c      ****     }
 107:.\_LED.c      **** }
 116              		.loc 1 107 0
 117              		@ sp needed
 118 0012 08BD     		pop	{r3, pc}
 119              	.L11:
 120              		.align	2
 121              	.L10:
ARM GAS  C:\Users\ALEXAN~1\AppData\Local\Temp\cc6cf1Oa.s 			page 5


 122 0014 00000000 		.word	_LED_Green_On
 123              		.cfi_endproc
 124              	.LFE37:
 125              		.size	_LED_TurnOffLED, .-_LED_TurnOffLED
 126              		.comm	_LED_Green_On,1,1
 127              		.text
 128              	.Letext0:
 129              		.file 2 "Generated_Source\\PSoC4/cytypes.h"
 130              		.file 3 "Generated_Source\\PSoC4/BLE_Stack.h"
 131              		.file 4 "Generated_Source\\PSoC4/GREEN.h"