ARM GAS  C:\Users\ALEXAN~1\AppData\Local\Temp\ccJFdV2j.s 			page 1


   1              		.cpu cortex-m0
   2              		.fpu softvfp
   3              		.eabi_attribute 20, 1
   4              		.eabi_attribute 21, 1
   5              		.eabi_attribute 23, 3
   6              		.eabi_attribute 24, 1
   7              		.eabi_attribute 25, 1
   8              		.eabi_attribute 26, 1
   9              		.eabi_attribute 30, 1
  10              		.eabi_attribute 34, 0
  11              		.eabi_attribute 18, 4
  12              		.code	16
  13              		.file	"_PrISM.c"
  14              		.text
  15              	.Ltext0:
  16              		.cfi_sections	.debug_frame
  17              		.section	.text._PrISM_Init,"ax",%progbits
  18              		.align	2
  19              		.global	_PrISM_Init
  20              		.code	16
  21              		.thumb_func
  22              		.type	_PrISM_Init, %function
  23              	_PrISM_Init:
  24              	.LFB35:
  25              		.file 1 ".\\_PrISM.c"
   1:.\_PrISM.c    **** /****************************************************************************
   2:.\_PrISM.c    **** *
   3:.\_PrISM.c    **** * Project Name		: PSoC CapSense 2 BLE
   4:.\_PrISM.c    **** *
   5:.\_PrISM.c    **** * File Name			: _PrISM.c
   6:.\_PrISM.c    **** * Version 			: 1.0
   7:.\_PrISM.c    **** *
   8:.\_PrISM.c    **** * Device Used		: CY8C4247LQI-BL483
   9:.\_PrISM.c    **** * Software Used		: PSoC Creator 3.3
  10:.\_PrISM.c    **** * Compiler    		: ARM GCC 4.8.4, ARM MDK Generic
  11:.\_PrISM.c    **** * Related Hardware	: CY8CKIT-042-BLE Bluetooth Low Energy Pioneer Kit 
  12:.\_PrISM.c    **** *
  13:.\_PrISM.c    **** * Owner             : A. BERNIER
  14:.\_PrISM.c    **** *
  15:.\_PrISM.c    **** *****************************************************************************/
  16:.\_PrISM.c    **** 
  17:.\_PrISM.c    **** 
  18:.\_PrISM.c    **** /*****************************************************************************
  19:.\_PrISM.c    **** * Included headers
  20:.\_PrISM.c    **** *****************************************************************************/
  21:.\_PrISM.c    **** #include "_PrISM.h"
  22:.\_PrISM.c    **** 
  23:.\_PrISM.c    **** 
  24:.\_PrISM.c    **** /*****************************************************************************
  25:.\_PrISM.c    **** * Local global variables
  26:.\_PrISM.c    **** *****************************************************************************/
  27:.\_PrISM.c    **** // Flags that indicate the current state of each LEDs.
  28:.\_PrISM.c    **** uint8 _PrISM_Red_On;
  29:.\_PrISM.c    **** uint8 _PrISM_Green_On;
  30:.\_PrISM.c    **** uint8 _PrISM_Blue_On;
  31:.\_PrISM.c    **** 
  32:.\_PrISM.c    **** 
ARM GAS  C:\Users\ALEXAN~1\AppData\Local\Temp\ccJFdV2j.s 			page 2


  33:.\_PrISM.c    **** /*****************************************************************************
  34:.\_PrISM.c    **** * Function Name: _PrISM_Init()
  35:.\_PrISM.c    **** ******************************************************************************
  36:.\_PrISM.c    **** * Summary:
  37:.\_PrISM.c    **** *   Initialize the PrISM modules.
  38:.\_PrISM.c    **** *
  39:.\_PrISM.c    **** * Parameters:
  40:.\_PrISM.c    **** *   None.
  41:.\_PrISM.c    **** *
  42:.\_PrISM.c    **** * Return:
  43:.\_PrISM.c    **** *   None.
  44:.\_PrISM.c    **** *
  45:.\_PrISM.c    **** * Note:
  46:.\_PrISM.c    **** *
  47:.\_PrISM.c    **** *****************************************************************************/
  48:.\_PrISM.c    **** void _PrISM_Init(void)
  49:.\_PrISM.c    **** {
  26              		.loc 1 49 0
  27              		.cfi_startproc
  28 0000 08B5     		push	{r3, lr}
  29              		.cfi_def_cfa_offset 8
  30              		.cfi_offset 3, -8
  31              		.cfi_offset 14, -4
  50:.\_PrISM.c    ****     // Start the PrISM component for LED control.
  51:.\_PrISM.c    ****     PrISM_1_Start();
  32              		.loc 1 51 0
  33 0002 FFF7FEFF 		bl	PrISM_1_Start
  34              	.LVL0:
  52:.\_PrISM.c    ****     PrISM_2_Start();
  35              		.loc 1 52 0
  36 0006 FFF7FEFF 		bl	PrISM_2_Start
  37              	.LVL1:
  53:.\_PrISM.c    ****     
  54:.\_PrISM.c    ****     // The RGB LED on BLE Pioneer kit are active low. Drive HIGH on 
  55:.\_PrISM.c    **** 	// pin for OFF and drive LOW on pin for ON.
  56:.\_PrISM.c    **** 	PrISM_1_WritePulse0(RGB_LED_OFF);
  38              		.loc 1 56 0
  39 000a FF20     		mov	r0, #255
  40 000c FFF7FEFF 		bl	PrISM_1_WritePulse0
  41              	.LVL2:
  57:.\_PrISM.c    **** 	PrISM_1_WritePulse1(RGB_LED_OFF);
  42              		.loc 1 57 0
  43 0010 FF20     		mov	r0, #255
  44 0012 FFF7FEFF 		bl	PrISM_1_WritePulse1
  45              	.LVL3:
  58:.\_PrISM.c    **** 	PrISM_2_WritePulse0(RGB_LED_OFF);
  46              		.loc 1 58 0
  47 0016 FF20     		mov	r0, #255
  48 0018 FFF7FEFF 		bl	PrISM_2_WritePulse0
  49              	.LVL4:
  59:.\_PrISM.c    **** 	
  60:.\_PrISM.c    **** 	// Set Drive mode of output pins from HiZ to Strong.
  61:.\_PrISM.c    **** 	RED_SetDriveMode(RED_DM_STRONG);
  50              		.loc 1 61 0
  51 001c 0620     		mov	r0, #6
  52 001e FFF7FEFF 		bl	RED_SetDriveMode
  53              	.LVL5:
ARM GAS  C:\Users\ALEXAN~1\AppData\Local\Temp\ccJFdV2j.s 			page 3


  62:.\_PrISM.c    **** 	GREEN_SetDriveMode(GREEN_DM_STRONG);
  54              		.loc 1 62 0
  55 0022 0620     		mov	r0, #6
  56 0024 FFF7FEFF 		bl	GREEN_SetDriveMode
  57              	.LVL6:
  63:.\_PrISM.c    **** 	BLUE_SetDriveMode(BLUE_DM_STRONG);
  58              		.loc 1 63 0
  59 0028 0620     		mov	r0, #6
  60 002a FFF7FEFF 		bl	BLUE_SetDriveMode
  61              	.LVL7:
  64:.\_PrISM.c    ****     
  65:.\_PrISM.c    ****     // Reset the flags.
  66:.\_PrISM.c    ****     _PrISM_Red_On = FALSE;
  62              		.loc 1 66 0
  63 002e 0023     		mov	r3, #0
  64 0030 034A     		ldr	r2, .L2
  65 0032 1370     		strb	r3, [r2]
  67:.\_PrISM.c    ****     _PrISM_Green_On = FALSE;
  66              		.loc 1 67 0
  67 0034 034A     		ldr	r2, .L2+4
  68 0036 1370     		strb	r3, [r2]
  68:.\_PrISM.c    ****     _PrISM_Blue_On = FALSE;
  69              		.loc 1 68 0
  70 0038 034A     		ldr	r2, .L2+8
  71 003a 1370     		strb	r3, [r2]
  69:.\_PrISM.c    **** }
  72              		.loc 1 69 0
  73              		@ sp needed
  74 003c 08BD     		pop	{r3, pc}
  75              	.L3:
  76 003e C046     		.align	2
  77              	.L2:
  78 0040 00000000 		.word	_PrISM_Red_On
  79 0044 00000000 		.word	_PrISM_Green_On
  80 0048 00000000 		.word	_PrISM_Blue_On
  81              		.cfi_endproc
  82              	.LFE35:
  83              		.size	_PrISM_Init, .-_PrISM_Init
  84              		.section	.text._PrISM_TurnOnLED,"ax",%progbits
  85              		.align	2
  86              		.global	_PrISM_TurnOnLED
  87              		.code	16
  88              		.thumb_func
  89              		.type	_PrISM_TurnOnLED, %function
  90              	_PrISM_TurnOnLED:
  91              	.LFB36:
  70:.\_PrISM.c    **** 
  71:.\_PrISM.c    **** 
  72:.\_PrISM.c    **** /*****************************************************************************
  73:.\_PrISM.c    **** * Function Name: _PrISM_TurnOnLED()
  74:.\_PrISM.c    **** ******************************************************************************
  75:.\_PrISM.c    **** * Summary:
  76:.\_PrISM.c    **** *   Turns ON the selected LED.
  77:.\_PrISM.c    **** *
  78:.\_PrISM.c    **** * Parameters:
  79:.\_PrISM.c    **** *   LEDs to turn ON.
  80:.\_PrISM.c    **** *
ARM GAS  C:\Users\ALEXAN~1\AppData\Local\Temp\ccJFdV2j.s 			page 4


  81:.\_PrISM.c    **** * Return:
  82:.\_PrISM.c    **** *   None.
  83:.\_PrISM.c    **** *
  84:.\_PrISM.c    **** * Note:
  85:.\_PrISM.c    **** *
  86:.\_PrISM.c    **** *****************************************************************************/
  87:.\_PrISM.c    **** void _PrISM_TurnOnLED(uint8 Red, uint8 Green, uint8 Blue)
  88:.\_PrISM.c    **** {
  92              		.loc 1 88 0
  93              		.cfi_startproc
  94              	.LVL8:
  95 0000 38B5     		push	{r3, r4, r5, lr}
  96              		.cfi_def_cfa_offset 16
  97              		.cfi_offset 3, -16
  98              		.cfi_offset 4, -12
  99              		.cfi_offset 5, -8
 100              		.cfi_offset 14, -4
 101 0002 0D1C     		mov	r5, r1
 102 0004 141C     		mov	r4, r2
  89:.\_PrISM.c    ****     if(Red) {
 103              		.loc 1 89 0
 104 0006 0028     		cmp	r0, #0
 105 0008 05D0     		beq	.L5
  90:.\_PrISM.c    ****         // Turn Red LED on.
  91:.\_PrISM.c    **** //        PrISM_1_WritePulse0(RGB_LED_ON);
  92:.\_PrISM.c    ****         RED_Write(RGB_LED_ON);
 106              		.loc 1 92 0
 107 000a 0020     		mov	r0, #0
 108              	.LVL9:
 109 000c FFF7FEFF 		bl	RED_Write
 110              	.LVL10:
  93:.\_PrISM.c    ****         
  94:.\_PrISM.c    ****         // Set the flag.
  95:.\_PrISM.c    ****         _PrISM_Red_On = TRUE;
 111              		.loc 1 95 0
 112 0010 0122     		mov	r2, #1
 113 0012 094B     		ldr	r3, .L8
 114 0014 1A70     		strb	r2, [r3]
 115              	.L5:
  96:.\_PrISM.c    ****     }
  97:.\_PrISM.c    ****     
  98:.\_PrISM.c    ****     if(Green) {
 116              		.loc 1 98 0
 117 0016 002D     		cmp	r5, #0
 118 0018 05D0     		beq	.L6
  99:.\_PrISM.c    ****         // Turn Green LED on.
 100:.\_PrISM.c    ****         PrISM_1_WritePulse1(RGB_LED_ON);
 119              		.loc 1 100 0
 120 001a 0020     		mov	r0, #0
 121 001c FFF7FEFF 		bl	PrISM_1_WritePulse1
 122              	.LVL11:
 101:.\_PrISM.c    ****         
 102:.\_PrISM.c    ****         // Set the flag.
 103:.\_PrISM.c    ****         _PrISM_Green_On = TRUE;
 123              		.loc 1 103 0
 124 0020 0122     		mov	r2, #1
 125 0022 064B     		ldr	r3, .L8+4
ARM GAS  C:\Users\ALEXAN~1\AppData\Local\Temp\ccJFdV2j.s 			page 5


 126 0024 1A70     		strb	r2, [r3]
 127              	.L6:
 104:.\_PrISM.c    ****     }
 105:.\_PrISM.c    ****     
 106:.\_PrISM.c    ****     if(Blue) {
 128              		.loc 1 106 0
 129 0026 002C     		cmp	r4, #0
 130 0028 05D0     		beq	.L4
 107:.\_PrISM.c    ****         // Turn Blue LED on.
 108:.\_PrISM.c    ****         PrISM_2_WritePulse0(RGB_LED_ON);
 131              		.loc 1 108 0
 132 002a 0020     		mov	r0, #0
 133 002c FFF7FEFF 		bl	PrISM_2_WritePulse0
 134              	.LVL12:
 109:.\_PrISM.c    ****         
 110:.\_PrISM.c    ****         // Set the flag.
 111:.\_PrISM.c    ****         _PrISM_Blue_On = TRUE;
 135              		.loc 1 111 0
 136 0030 0122     		mov	r2, #1
 137 0032 034B     		ldr	r3, .L8+8
 138 0034 1A70     		strb	r2, [r3]
 139              	.L4:
 112:.\_PrISM.c    ****     }
 113:.\_PrISM.c    **** }
 140              		.loc 1 113 0
 141              		@ sp needed
 142 0036 38BD     		pop	{r3, r4, r5, pc}
 143              	.L9:
 144              		.align	2
 145              	.L8:
 146 0038 00000000 		.word	_PrISM_Red_On
 147 003c 00000000 		.word	_PrISM_Green_On
 148 0040 00000000 		.word	_PrISM_Blue_On
 149              		.cfi_endproc
 150              	.LFE36:
 151              		.size	_PrISM_TurnOnLED, .-_PrISM_TurnOnLED
 152              		.section	.text._PrISM_TurnOffLED,"ax",%progbits
 153              		.align	2
 154              		.global	_PrISM_TurnOffLED
 155              		.code	16
 156              		.thumb_func
 157              		.type	_PrISM_TurnOffLED, %function
 158              	_PrISM_TurnOffLED:
 159              	.LFB37:
 114:.\_PrISM.c    **** 
 115:.\_PrISM.c    **** 
 116:.\_PrISM.c    **** /*****************************************************************************
 117:.\_PrISM.c    **** * Function Name: _PrISM_TurnOffLED()
 118:.\_PrISM.c    **** ******************************************************************************
 119:.\_PrISM.c    **** * Summary:
 120:.\_PrISM.c    **** *   Turns OFF the selected LED.
 121:.\_PrISM.c    **** *
 122:.\_PrISM.c    **** * Parameters:
 123:.\_PrISM.c    **** *   LEDs to turn OFF.
 124:.\_PrISM.c    **** *
 125:.\_PrISM.c    **** * Return:
 126:.\_PrISM.c    **** *   None.
ARM GAS  C:\Users\ALEXAN~1\AppData\Local\Temp\ccJFdV2j.s 			page 6


 127:.\_PrISM.c    **** *
 128:.\_PrISM.c    **** * Note:
 129:.\_PrISM.c    **** *
 130:.\_PrISM.c    **** *****************************************************************************/
 131:.\_PrISM.c    **** void _PrISM_TurnOffLED(uint8 Red, uint8 Green, uint8 Blue)
 132:.\_PrISM.c    **** {
 160              		.loc 1 132 0
 161              		.cfi_startproc
 162              	.LVL13:
 163 0000 38B5     		push	{r3, r4, r5, lr}
 164              		.cfi_def_cfa_offset 16
 165              		.cfi_offset 3, -16
 166              		.cfi_offset 4, -12
 167              		.cfi_offset 5, -8
 168              		.cfi_offset 14, -4
 169 0002 0D1C     		mov	r5, r1
 170 0004 141C     		mov	r4, r2
 133:.\_PrISM.c    ****     if(Red) {
 171              		.loc 1 133 0
 172 0006 0028     		cmp	r0, #0
 173 0008 05D0     		beq	.L11
 134:.\_PrISM.c    ****         // Turn Red LED off.
 135:.\_PrISM.c    **** //        PrISM_1_WritePulse0(RGB_LED_OFF);
 136:.\_PrISM.c    ****         RED_Write(RGB_LED_OFF);
 174              		.loc 1 136 0
 175 000a FF20     		mov	r0, #255
 176              	.LVL14:
 177 000c FFF7FEFF 		bl	RED_Write
 178              	.LVL15:
 137:.\_PrISM.c    ****         
 138:.\_PrISM.c    ****         // Reset the flag.
 139:.\_PrISM.c    ****         _PrISM_Red_On = FALSE;
 179              		.loc 1 139 0
 180 0010 0022     		mov	r2, #0
 181 0012 094B     		ldr	r3, .L14
 182 0014 1A70     		strb	r2, [r3]
 183              	.L11:
 140:.\_PrISM.c    ****     }
 141:.\_PrISM.c    ****     
 142:.\_PrISM.c    ****     if(Green) {
 184              		.loc 1 142 0
 185 0016 002D     		cmp	r5, #0
 186 0018 05D0     		beq	.L12
 143:.\_PrISM.c    ****         // Turn Green LED off.
 144:.\_PrISM.c    ****         PrISM_1_WritePulse1(RGB_LED_OFF);
 187              		.loc 1 144 0
 188 001a FF20     		mov	r0, #255
 189 001c FFF7FEFF 		bl	PrISM_1_WritePulse1
 190              	.LVL16:
 145:.\_PrISM.c    ****         
 146:.\_PrISM.c    ****         // Reset the flag.
 147:.\_PrISM.c    ****         _PrISM_Green_On = FALSE;
 191              		.loc 1 147 0
 192 0020 0022     		mov	r2, #0
 193 0022 064B     		ldr	r3, .L14+4
 194 0024 1A70     		strb	r2, [r3]
 195              	.L12:
ARM GAS  C:\Users\ALEXAN~1\AppData\Local\Temp\ccJFdV2j.s 			page 7


 148:.\_PrISM.c    ****     }
 149:.\_PrISM.c    ****     
 150:.\_PrISM.c    ****     if(Blue) {
 196              		.loc 1 150 0
 197 0026 002C     		cmp	r4, #0
 198 0028 05D0     		beq	.L10
 151:.\_PrISM.c    ****         // Turn Blue LED off.
 152:.\_PrISM.c    ****         PrISM_2_WritePulse0(RGB_LED_OFF);
 199              		.loc 1 152 0
 200 002a FF20     		mov	r0, #255
 201 002c FFF7FEFF 		bl	PrISM_2_WritePulse0
 202              	.LVL17:
 153:.\_PrISM.c    ****         
 154:.\_PrISM.c    ****         // Reset the flag.
 155:.\_PrISM.c    ****         _PrISM_Blue_On = FALSE;
 203              		.loc 1 155 0
 204 0030 0022     		mov	r2, #0
 205 0032 034B     		ldr	r3, .L14+8
 206 0034 1A70     		strb	r2, [r3]
 207              	.L10:
 156:.\_PrISM.c    ****     }
 157:.\_PrISM.c    **** }
 208              		.loc 1 157 0
 209              		@ sp needed
 210 0036 38BD     		pop	{r3, r4, r5, pc}
 211              	.L15:
 212              		.align	2
 213              	.L14:
 214 0038 00000000 		.word	_PrISM_Red_On
 215 003c 00000000 		.word	_PrISM_Green_On
 216 0040 00000000 		.word	_PrISM_Blue_On
 217              		.cfi_endproc
 218              	.LFE37:
 219              		.size	_PrISM_TurnOffLED, .-_PrISM_TurnOffLED
 220              		.comm	_PrISM_Blue_On,1,1
 221              		.comm	_PrISM_Green_On,1,1
 222              		.comm	_PrISM_Red_On,1,1
 223              		.text
 224              	.Letext0:
 225              		.file 2 "Generated_Source\\PSoC4/PrISM_1.h"
 226              		.file 3 "Generated_Source\\PSoC4/PrISM_2.h"
 227              		.file 4 "Generated_Source\\PSoC4/RED.h"
 228              		.file 5 "Generated_Source\\PSoC4/GREEN.h"
 229              		.file 6 "Generated_Source\\PSoC4/BLUE.h"
 230              		.file 7 "Generated_Source\\PSoC4/cytypes.h"
 231              		.file 8 "Generated_Source\\PSoC4/BLE_Stack.h"