ARM GAS  C:\Users\ALEXAN~1\AppData\Local\Temp\ccbGxP14.s 			page 1


   1              		.cpu cortex-m0
   2              		.fpu softvfp
   3              		.eabi_attribute 20, 1
   4              		.eabi_attribute 21, 1
   5              		.eabi_attribute 23, 3
   6              		.eabi_attribute 24, 1
   7              		.eabi_attribute 25, 1
   8              		.eabi_attribute 26, 1
   9              		.eabi_attribute 30, 1
  10              		.eabi_attribute 34, 0
  11              		.eabi_attribute 18, 4
  12              		.code	16
  13              		.file	"_Timer.c"
  14              		.text
  15              	.Ltext0:
  16              		.cfi_sections	.debug_frame
  17              		.section	.text.Delay,"ax",%progbits
  18              		.align	2
  19              		.global	Delay
  20              		.code	16
  21              		.thumb_func
  22              		.type	Delay, %function
  23              	Delay:
  24              	.LFB36:
  25              		.file 1 ".\\_Timer.c"
   1:.\_Timer.c    **** /****************************************************************************
   2:.\_Timer.c    **** *
   3:.\_Timer.c    **** * Project Name		: PSoC CapSense 2 BLE
   4:.\_Timer.c    **** *
   5:.\_Timer.c    **** * File Name			: _Timer.c
   6:.\_Timer.c    **** * Version 			: 1.0
   7:.\_Timer.c    **** *
   8:.\_Timer.c    **** * Device Used		: CY8C4247LQI-BL483
   9:.\_Timer.c    **** * Software Used		: PSoC Creator 3.3
  10:.\_Timer.c    **** * Compiler    		: ARM GCC 4.8.4, ARM MDK Generic
  11:.\_Timer.c    **** * Related Hardware	: CY8CKIT-042-BLE Bluetooth Low Energy Pioneer Kit 
  12:.\_Timer.c    **** *
  13:.\_Timer.c    **** * Owner             : A. BERNIER
  14:.\_Timer.c    **** *
  15:.\_Timer.c    **** *****************************************************************************/
  16:.\_Timer.c    **** 
  17:.\_Timer.c    **** 
  18:.\_Timer.c    **** /*****************************************************************************
  19:.\_Timer.c    **** * Included headers
  20:.\_Timer.c    **** *****************************************************************************/
  21:.\_Timer.c    **** #include "_Timer.h"
  22:.\_Timer.c    **** 
  23:.\_Timer.c    **** 
  24:.\_Timer.c    **** /*****************************************************************************
  25:.\_Timer.c    **** * Local global variables
  26:.\_Timer.c    **** *****************************************************************************/
  27:.\_Timer.c    **** uint8 _Timer_DelayDone = FALSE;
  28:.\_Timer.c    **** 
  29:.\_Timer.c    **** 
  30:.\_Timer.c    **** /*****************************************************************************
  31:.\_Timer.c    **** * Function Name: _Timer_Init()
  32:.\_Timer.c    **** ******************************************************************************
ARM GAS  C:\Users\ALEXAN~1\AppData\Local\Temp\ccbGxP14.s 			page 2


  33:.\_Timer.c    **** * Summary:
  34:.\_Timer.c    **** *   Initialize the timer and interrupt components.
  35:.\_Timer.c    **** *
  36:.\_Timer.c    **** * Parameters:
  37:.\_Timer.c    **** *   None.
  38:.\_Timer.c    **** *
  39:.\_Timer.c    **** * Return:
  40:.\_Timer.c    **** *   None.
  41:.\_Timer.c    **** *
  42:.\_Timer.c    **** * Note:
  43:.\_Timer.c    **** *
  44:.\_Timer.c    **** *****************************************************************************/
  45:.\_Timer.c    **** void _Timer_Init(void)
  46:.\_Timer.c    **** {
  47:.\_Timer.c    ****     // Set the callback function of the TimerDelay interrupt.
  48:.\_Timer.c    ****     TimerDelay_Interrupt_StartEx(Delay);
  49:.\_Timer.c    **** }
  50:.\_Timer.c    **** 
  51:.\_Timer.c    **** 
  52:.\_Timer.c    **** /*****************************************************************************
  53:.\_Timer.c    **** * Interrupt Name: Delay
  54:.\_Timer.c    **** ******************************************************************************
  55:.\_Timer.c    **** * Summary:
  56:.\_Timer.c    **** *   Can block the progression of the program if TimerDelay is started.
  57:.\_Timer.c    **** *
  58:.\_Timer.c    **** * Parameters:
  59:.\_Timer.c    **** *   None.
  60:.\_Timer.c    **** *
  61:.\_Timer.c    **** * Return:
  62:.\_Timer.c    **** *   None.
  63:.\_Timer.c    **** *
  64:.\_Timer.c    **** * Note:
  65:.\_Timer.c    **** *   The timer's period is currently: 1ms
  66:.\_Timer.c    **** *****************************************************************************/
  67:.\_Timer.c    **** CY_ISR(Delay)
  68:.\_Timer.c    **** {
  26              		.loc 1 68 0
  27              		.cfi_startproc
  28 0000 08B5     		push	{r3, lr}
  29              		.cfi_def_cfa_offset 8
  30              		.cfi_offset 3, -8
  31              		.cfi_offset 14, -4
  69:.\_Timer.c    ****     // Allows to wait longer (by multiples of TimerDelay's period).
  70:.\_Timer.c    ****     static uint8 counter = 0;
  71:.\_Timer.c    ****     
  72:.\_Timer.c    ****     // Clear pending interrupt.
  73:.\_Timer.c    ****     TimerDelay_Interrupt_ClearPending();
  32              		.loc 1 73 0
  33 0002 FFF7FEFF 		bl	TimerDelay_Interrupt_ClearPending
  34              	.LVL0:
  74:.\_Timer.c    ****     
  75:.\_Timer.c    ****     if (counter >= 15) {
  35              		.loc 1 75 0
  36 0006 084B     		ldr	r3, .L4
  37 0008 1B78     		ldrb	r3, [r3]
  38 000a 0E2B     		cmp	r3, #14
  39 000c 07D9     		bls	.L2
ARM GAS  C:\Users\ALEXAN~1\AppData\Local\Temp\ccbGxP14.s 			page 3


  76:.\_Timer.c    ****         // Stop the timer.
  77:.\_Timer.c    ****         TimerDelay_Stop();
  40              		.loc 1 77 0
  41 000e FFF7FEFF 		bl	TimerDelay_Stop
  42              	.LVL1:
  78:.\_Timer.c    ****         
  79:.\_Timer.c    ****         // Set the TimerDelay_Done variable
  80:.\_Timer.c    ****         _Timer_DelayDone = TRUE;
  43              		.loc 1 80 0
  44 0012 054B     		ldr	r3, .L4
  45 0014 0122     		mov	r2, #1
  46 0016 5A70     		strb	r2, [r3, #1]
  81:.\_Timer.c    ****         
  82:.\_Timer.c    ****         // Reset the counter
  83:.\_Timer.c    ****         counter = 0;
  47              		.loc 1 83 0
  48 0018 0022     		mov	r2, #0
  49 001a 1A70     		strb	r2, [r3]
  50 001c 02E0     		b	.L1
  51              	.L2:
  84:.\_Timer.c    ****     }
  85:.\_Timer.c    ****     else
  86:.\_Timer.c    ****         counter++;
  52              		.loc 1 86 0
  53 001e 0133     		add	r3, r3, #1
  54 0020 014A     		ldr	r2, .L4
  55 0022 1370     		strb	r3, [r2]
  56              	.L1:
  87:.\_Timer.c    **** }
  57              		.loc 1 87 0
  58              		@ sp needed
  59 0024 08BD     		pop	{r3, pc}
  60              	.L5:
  61 0026 C046     		.align	2
  62              	.L4:
  63 0028 00000000 		.word	.LANCHOR0
  64              		.cfi_endproc
  65              	.LFE36:
  66              		.size	Delay, .-Delay
  67              		.section	.text._Timer_Init,"ax",%progbits
  68              		.align	2
  69              		.global	_Timer_Init
  70              		.code	16
  71              		.thumb_func
  72              		.type	_Timer_Init, %function
  73              	_Timer_Init:
  74              	.LFB35:
  46:.\_Timer.c    ****     // Set the callback function of the TimerDelay interrupt.
  75              		.loc 1 46 0
  76              		.cfi_startproc
  77 0000 08B5     		push	{r3, lr}
  78              		.cfi_def_cfa_offset 8
  79              		.cfi_offset 3, -8
  80              		.cfi_offset 14, -4
  48:.\_Timer.c    **** }
  81              		.loc 1 48 0
  82 0002 0248     		ldr	r0, .L7
ARM GAS  C:\Users\ALEXAN~1\AppData\Local\Temp\ccbGxP14.s 			page 4


  83 0004 FFF7FEFF 		bl	TimerDelay_Interrupt_StartEx
  84              	.LVL2:
  49:.\_Timer.c    **** 
  85              		.loc 1 49 0
  86              		@ sp needed
  87 0008 08BD     		pop	{r3, pc}
  88              	.L8:
  89 000a C046     		.align	2
  90              	.L7:
  91 000c 00000000 		.word	Delay
  92              		.cfi_endproc
  93              	.LFE35:
  94              		.size	_Timer_Init, .-_Timer_Init
  95              		.global	_Timer_DelayDone
  96              		.bss
  97              		.set	.LANCHOR0,. + 0
  98              		.type	counter.6861, %object
  99              		.size	counter.6861, 1
 100              	counter.6861:
 101 0000 00       		.space	1
 102              		.type	_Timer_DelayDone, %object
 103              		.size	_Timer_DelayDone, 1
 104              	_Timer_DelayDone:
 105 0001 00       		.space	1
 106              		.text
 107              	.Letext0:
 108              		.file 2 "Generated_Source\\PSoC4/cytypes.h"
 109              		.file 3 "Generated_Source\\PSoC4/TimerDelay_Interrupt.h"
 110              		.file 4 "Generated_Source\\PSoC4/TimerDelay.h"
 111              		.file 5 "Generated_Source\\PSoC4/BLE_Stack.h"