ARM GAS  C:\Users\ALEXAN~1\AppData\Local\Temp\ccVZayfn.s 			page 1


   1              		.cpu cortex-m0
   2              		.fpu softvfp
   3              		.eabi_attribute 20, 1
   4              		.eabi_attribute 21, 1
   5              		.eabi_attribute 23, 3
   6              		.eabi_attribute 24, 1
   7              		.eabi_attribute 25, 1
   8              		.eabi_attribute 26, 1
   9              		.eabi_attribute 30, 1
  10              		.eabi_attribute 34, 0
  11              		.eabi_attribute 18, 4
  12              		.code	16
  13              		.file	"_Watchdog.c"
  14              		.text
  15              	.Ltext0:
  16              		.cfi_sections	.debug_frame
  17              		.section	.text._Watchdog_Handler,"ax",%progbits
  18              		.align	2
  19              		.global	_Watchdog_Handler
  20              		.code	16
  21              		.thumb_func
  22              		.type	_Watchdog_Handler, %function
  23              	_Watchdog_Handler:
  24              	.LFB36:
  25              		.file 1 ".\\_Watchdog.c"
   1:.\_Watchdog.c **** /****************************************************************************
   2:.\_Watchdog.c **** *
   3:.\_Watchdog.c **** * Project Name		: PSoC CapSense 2 BLE
   4:.\_Watchdog.c **** *
   5:.\_Watchdog.c **** * File Name			: _Watchdog.c
   6:.\_Watchdog.c **** * Version 			: 1.0
   7:.\_Watchdog.c **** *
   8:.\_Watchdog.c **** * Device Used		: CY8C4247LQI-BL483
   9:.\_Watchdog.c **** * Software Used		: PSoC Creator 3.3
  10:.\_Watchdog.c **** * Compiler    		: ARM GCC 4.8.4, ARM MDK Generic
  11:.\_Watchdog.c **** * Related Hardware	: CY8CKIT-042-BLE Bluetooth Low Energy Pioneer Kit 
  12:.\_Watchdog.c **** *
  13:.\_Watchdog.c **** * Owner             : A. BERNIER
  14:.\_Watchdog.c **** *
  15:.\_Watchdog.c **** *****************************************************************************/
  16:.\_Watchdog.c **** 
  17:.\_Watchdog.c **** 
  18:.\_Watchdog.c **** /*****************************************************************************
  19:.\_Watchdog.c **** * Included headers
  20:.\_Watchdog.c **** *****************************************************************************/
  21:.\_Watchdog.c **** #include "_Watchdog.h"
  22:.\_Watchdog.c **** #include "_BLE.h"
  23:.\_Watchdog.c **** #include "_PrISM.h"
  24:.\_Watchdog.c **** 
  25:.\_Watchdog.c **** 
  26:.\_Watchdog.c **** /*****************************************************************************
  27:.\_Watchdog.c **** * Function Name: _Watchdog_Init()
  28:.\_Watchdog.c **** ******************************************************************************
  29:.\_Watchdog.c **** * Summary:
  30:.\_Watchdog.c **** *   Initialize the watchdog.
  31:.\_Watchdog.c **** *
  32:.\_Watchdog.c **** * Parameters:
ARM GAS  C:\Users\ALEXAN~1\AppData\Local\Temp\ccVZayfn.s 			page 2


  33:.\_Watchdog.c **** *   None.
  34:.\_Watchdog.c **** *
  35:.\_Watchdog.c **** * Return:
  36:.\_Watchdog.c **** *   None.
  37:.\_Watchdog.c **** *
  38:.\_Watchdog.c **** * Note:
  39:.\_Watchdog.c **** *
  40:.\_Watchdog.c **** *****************************************************************************/
  41:.\_Watchdog.c **** void _Watchdog_Init(void)
  42:.\_Watchdog.c **** {
  43:.\_Watchdog.c ****     // Unlock the WDT registers for modification.
  44:.\_Watchdog.c **** 	CySysWdtUnlock();
  45:.\_Watchdog.c ****     
  46:.\_Watchdog.c ****     // Write Mode for Counters as Interrupt on Match.
  47:.\_Watchdog.c ****     CySysWdtWriteMode(CY_SYS_WDT_COUNTER0, CY_SYS_WDT_MODE_INT);
  48:.\_Watchdog.c ****     CySysWdtWriteMode(CY_SYS_WDT_COUNTER1, CY_SYS_WDT_MODE_INT);
  49:.\_Watchdog.c ****     
  50:.\_Watchdog.c ****     // Set Clear on Match for Counters.
  51:.\_Watchdog.c **** 	CySysWdtWriteClearOnMatch(CY_SYS_WDT_COUNTER0, TRUE);
  52:.\_Watchdog.c ****     CySysWdtWriteClearOnMatch(CY_SYS_WDT_COUNTER1, TRUE);
  53:.\_Watchdog.c ****     
  54:.\_Watchdog.c ****     // Set Watchdog interrupt to lower priority.
  55:.\_Watchdog.c **** 	CyIntSetPriority(WATCHDOG_INT_VEC_NUM, WATCHDOG_INT_VEC_PRIORITY);
  56:.\_Watchdog.c ****     
  57:.\_Watchdog.c ****     // Enable Watchdog Interrupt using Interrupt number.
  58:.\_Watchdog.c ****     CyIntEnable(WATCHDOG_INT_VEC_NUM);
  59:.\_Watchdog.c ****     
  60:.\_Watchdog.c ****     // Write the match value in Counters.
  61:.\_Watchdog.c **** 	CySysWdtWriteMatch(CY_SYS_WDT_COUNTER0, WATCHDOG_COUNTER0_PERIOD);
  62:.\_Watchdog.c ****     CySysWdtWriteMatch(CY_SYS_WDT_COUNTER1, WATCHDOG_COUNTER1_PERIOD);
  63:.\_Watchdog.c ****     
  64:.\_Watchdog.c ****     // Enable Counters.
  65:.\_Watchdog.c ****     CySysWdtEnable(CY_SYS_WDT_COUNTER0_MASK);
  66:.\_Watchdog.c ****     CySysWdtEnable(CY_SYS_WDT_COUNTER1_MASK);
  67:.\_Watchdog.c **** 	
  68:.\_Watchdog.c **** 	// Lock Watchdog to prevent further changes.
  69:.\_Watchdog.c ****     CySysWdtLock();
  70:.\_Watchdog.c ****     
  71:.\_Watchdog.c ****     // Set the Watchdog Interrupt vector to the address of Interrupt routine 
  72:.\_Watchdog.c **** 	// _Watchdog_Handler.
  73:.\_Watchdog.c **** 	CyIntSetVector(WATCHDOG_INT_VEC_NUM, &_Watchdog_Handler);
  74:.\_Watchdog.c **** }
  75:.\_Watchdog.c **** 
  76:.\_Watchdog.c **** 
  77:.\_Watchdog.c **** /*****************************************************************************
  78:.\_Watchdog.c **** * Function Name: _Watchdog_Handler()
  79:.\_Watchdog.c **** ******************************************************************************
  80:.\_Watchdog.c **** * Summary:
  81:.\_Watchdog.c **** *   Watchdog interrupt routine.
  82:.\_Watchdog.c **** *
  83:.\_Watchdog.c **** * Parameters:
  84:.\_Watchdog.c **** *   None.
  85:.\_Watchdog.c **** *
  86:.\_Watchdog.c **** * Return:
  87:.\_Watchdog.c **** *   None.
  88:.\_Watchdog.c **** *
  89:.\_Watchdog.c **** * Note:
ARM GAS  C:\Users\ALEXAN~1\AppData\Local\Temp\ccVZayfn.s 			page 3


  90:.\_Watchdog.c **** *
  91:.\_Watchdog.c **** *****************************************************************************/
  92:.\_Watchdog.c **** void _Watchdog_Handler(void)
  93:.\_Watchdog.c **** {
  26              		.loc 1 93 0
  27              		.cfi_startproc
  28 0000 10B5     		push	{r4, lr}
  29              		.cfi_def_cfa_offset 8
  30              		.cfi_offset 4, -8
  31              		.cfi_offset 14, -4
  94:.\_Watchdog.c ****     // If the Interrupt source is Counter 0 match, then process.
  95:.\_Watchdog.c **** 	if(CySysWdtGetInterruptSource() & CY_SYS_WDT_COUNTER0_INT)
  32              		.loc 1 95 0
  33 0002 FFF7FEFF 		bl	CySysWdtGetInterruptSource
  34              	.LVL0:
  35 0006 4307     		lsl	r3, r0, #29
  36 0008 21D5     		bpl	.L2
  96:.\_Watchdog.c **** 	{
  97:.\_Watchdog.c ****         // Clear Watchdog Interrupt from Counter 0.
  98:.\_Watchdog.c **** 		CySysWdtClearInterrupt(CY_SYS_WDT_COUNTER0_INT);
  37              		.loc 1 98 0
  38 000a 0420     		mov	r0, #4
  39 000c FFF7FEFF 		bl	CySysWdtClearInterrupt
  40              	.LVL1:
  99:.\_Watchdog.c ****         
 100:.\_Watchdog.c ****         /********************************************************************/
 101:.\_Watchdog.c ****         
 102:.\_Watchdog.c ****         // Process all the events in the stack.
 103:.\_Watchdog.c ****         if(CyBle_GattGetBusyStatus() == CYBLE_STACK_STATE_BUSY)
  41              		.loc 1 103 0
  42 0010 3E4B     		ldr	r3, .L10
  43 0012 1B78     		ldrb	r3, [r3]
  44 0014 012B     		cmp	r3, #1
  45 0016 01D1     		bne	.L3
 104:.\_Watchdog.c ****             CyBle_ProcessEvents();
  46              		.loc 1 104 0
  47 0018 FFF7FEFF 		bl	CyBle_ProcessEvents
  48              	.LVL2:
  49              	.L3:
 105:.\_Watchdog.c ****         
 106:.\_Watchdog.c ****         /********************************************************************/
 107:.\_Watchdog.c ****         
 108:.\_Watchdog.c ****         // Unlock the WDT registers for modification.
 109:.\_Watchdog.c **** 		CySysWdtUnlock();
  50              		.loc 1 109 0
  51 001c FFF7FEFF 		bl	CySysWdtUnlock
  52              	.LVL3:
 110:.\_Watchdog.c **** 		
 111:.\_Watchdog.c **** 		// Disable Counter 0 to allow modifications.
 112:.\_Watchdog.c **** 		CySysWdtDisable(CY_SYS_WDT_COUNTER0_MASK);
  53              		.loc 1 112 0
  54 0020 0120     		mov	r0, #1
  55 0022 FFF7FEFF 		bl	CySysWdtDisable
  56              	.LVL4:
 113:.\_Watchdog.c **** 		
 114:.\_Watchdog.c **** 		// Reset Counter 0 and give ~3 LFCLK cycles to take effect.
 115:.\_Watchdog.c **** 		CySysWdtResetCounters(CY_SYS_WDT_COUNTER0_RESET);
ARM GAS  C:\Users\ALEXAN~1\AppData\Local\Temp\ccVZayfn.s 			page 4


  57              		.loc 1 115 0
  58 0026 0820     		mov	r0, #8
  59 0028 FFF7FEFF 		bl	CySysWdtResetCounters
  60              	.LVL5:
 116:.\_Watchdog.c **** 		CyDelayUs(WATCHDOG_REG_UPDATE_WAIT_TIME);
  61              		.loc 1 116 0
  62 002c 6420     		mov	r0, #100
  63 002e FFF7FEFF 		bl	CyDelayUs
  64              	.LVL6:
 117:.\_Watchdog.c **** 		
 118:.\_Watchdog.c **** 		// Write the Counter 0 match value for 20 millisecond and give 
 119:.\_Watchdog.c **** 		// ~3 LFCLK cycles to take effect.
 120:.\_Watchdog.c **** 		CySysWdtWriteMatch(CY_SYS_WDT_COUNTER0, WATCHDOG_COUNTER0_PERIOD);
  65              		.loc 1 120 0
  66 0032 0020     		mov	r0, #0
  67 0034 A521     		mov	r1, #165
  68 0036 4900     		lsl	r1, r1, #1
  69 0038 FFF7FEFF 		bl	CySysWdtSetMatch
  70              	.LVL7:
 121:.\_Watchdog.c **** 		CyDelayUs(WATCHDOG_REG_UPDATE_WAIT_TIME);
  71              		.loc 1 121 0
  72 003c 6420     		mov	r0, #100
  73 003e FFF7FEFF 		bl	CyDelayUs
  74              	.LVL8:
 122:.\_Watchdog.c **** 		
 123:.\_Watchdog.c **** 		// Enable Watchdog Counter 0.
 124:.\_Watchdog.c **** 		CySysWdtEnable(CY_SYS_WDT_COUNTER0_MASK);
  75              		.loc 1 124 0
  76 0042 0120     		mov	r0, #1
  77 0044 FFF7FEFF 		bl	CySysWdtEnable
  78              	.LVL9:
 125:.\_Watchdog.c **** 		
 126:.\_Watchdog.c **** 		// Lock Watchdog to prevent any further change.
 127:.\_Watchdog.c **** 	    CySysWdtLock();
  79              		.loc 1 127 0
  80 0048 FFF7FEFF 		bl	CySysWdtLock
  81              	.LVL10:
  82 004c 5DE0     		b	.L1
  83              	.L2:
 128:.\_Watchdog.c ****     }
 129:.\_Watchdog.c ****     
 130:.\_Watchdog.c ****     // If the Interrupt source is Counter 1 match, then process.
 131:.\_Watchdog.c **** 	else if(CySysWdtGetInterruptSource() & CY_SYS_WDT_COUNTER1_INT)
  84              		.loc 1 131 0
  85 004e FFF7FEFF 		bl	CySysWdtGetInterruptSource
  86              	.LVL11:
  87 0052 4305     		lsl	r3, r0, #21
  88 0054 59D5     		bpl	.L1
  89              	.LBB2:
 132:.\_Watchdog.c **** 	{
 133:.\_Watchdog.c ****         // Clear Watchdog Interrupt from Counter 0.
 134:.\_Watchdog.c **** 		CySysWdtClearInterrupt(CY_SYS_WDT_COUNTER1_INT);
  90              		.loc 1 134 0
  91 0056 8020     		mov	r0, #128
  92 0058 C000     		lsl	r0, r0, #3
  93 005a FFF7FEFF 		bl	CySysWdtClearInterrupt
  94              	.LVL12:
ARM GAS  C:\Users\ALEXAN~1\AppData\Local\Temp\ccVZayfn.s 			page 5


 135:.\_Watchdog.c ****         
 136:.\_Watchdog.c ****         /********************************************************************/
 137:.\_Watchdog.c ****         
 138:.\_Watchdog.c ****         // Stores the previous state of the BLE module.
 139:.\_Watchdog.c ****         static uint8 previousState = 0xFF;
 140:.\_Watchdog.c ****         
 141:.\_Watchdog.c ****         // If state changed, turn all the LEDs off.
 142:.\_Watchdog.c ****         if (CyBle_GetState() != previousState)
  95              		.loc 1 142 0
  96 005e 2C4B     		ldr	r3, .L10+4
  97 0060 1A78     		ldrb	r2, [r3]
  98 0062 2C4B     		ldr	r3, .L10+8
  99 0064 1B78     		ldrb	r3, [r3]
 100 0066 9A42     		cmp	r2, r3
 101 0068 04D0     		beq	.L5
 143:.\_Watchdog.c ****             _PrISM_TurnOffLED(TRUE, TRUE, TRUE);
 102              		.loc 1 143 0
 103 006a 0120     		mov	r0, #1
 104 006c 0121     		mov	r1, #1
 105 006e 0122     		mov	r2, #1
 106 0070 FFF7FEFF 		bl	_PrISM_TurnOffLED
 107              	.LVL13:
 108              	.L5:
 144:.\_Watchdog.c ****             
 145:.\_Watchdog.c ****         // If disconnected, turn all the LEDs off.
 146:.\_Watchdog.c ****         if(CyBle_GetState() == CYBLE_STATE_DISCONNECTED) {
 109              		.loc 1 146 0
 110 0074 264B     		ldr	r3, .L10+4
 111 0076 1B78     		ldrb	r3, [r3]
 112 0078 042B     		cmp	r3, #4
 113 007a 08D1     		bne	.L6
 147:.\_Watchdog.c ****             previousState = CYBLE_STATE_DISCONNECTED;
 114              		.loc 1 147 0
 115 007c 0422     		mov	r2, #4
 116 007e 254B     		ldr	r3, .L10+8
 117 0080 1A70     		strb	r2, [r3]
 148:.\_Watchdog.c ****             
 149:.\_Watchdog.c ****             _PrISM_TurnOffLED(TRUE, TRUE, TRUE);
 118              		.loc 1 149 0
 119 0082 0120     		mov	r0, #1
 120 0084 0121     		mov	r1, #1
 121 0086 033A     		sub	r2, r2, #3
 122 0088 FFF7FEFF 		bl	_PrISM_TurnOffLED
 123              	.LVL14:
 124 008c 23E0     		b	.L7
 125              	.L6:
 150:.\_Watchdog.c ****         }
 151:.\_Watchdog.c ****                 
 152:.\_Watchdog.c ****         // If in advertising mode, flash the red LED.
 153:.\_Watchdog.c ****         else if(CyBle_GetState() == CYBLE_STATE_ADVERTISING) {
 126              		.loc 1 153 0
 127 008e 032B     		cmp	r3, #3
 128 0090 12D1     		bne	.L8
 154:.\_Watchdog.c ****             previousState = CYBLE_STATE_ADVERTISING;
 129              		.loc 1 154 0
 130 0092 0322     		mov	r2, #3
 131 0094 1F4B     		ldr	r3, .L10+8
ARM GAS  C:\Users\ALEXAN~1\AppData\Local\Temp\ccVZayfn.s 			page 6


 132 0096 1A70     		strb	r2, [r3]
 155:.\_Watchdog.c ****             
 156:.\_Watchdog.c ****             if(_PrISM_Red_On)
 133              		.loc 1 156 0
 134 0098 1F4B     		ldr	r3, .L10+12
 135 009a 1B78     		ldrb	r3, [r3]
 136 009c 002B     		cmp	r3, #0
 137 009e 05D0     		beq	.L9
 157:.\_Watchdog.c ****                 _PrISM_TurnOffLED(TRUE, FALSE, FALSE);
 138              		.loc 1 157 0
 139 00a0 0120     		mov	r0, #1
 140 00a2 0021     		mov	r1, #0
 141 00a4 0022     		mov	r2, #0
 142 00a6 FFF7FEFF 		bl	_PrISM_TurnOffLED
 143              	.LVL15:
 144 00aa 14E0     		b	.L7
 145              	.L9:
 158:.\_Watchdog.c ****             else
 159:.\_Watchdog.c ****                 _PrISM_TurnOnLED(TRUE, FALSE, FALSE);
 146              		.loc 1 159 0
 147 00ac 0120     		mov	r0, #1
 148 00ae 0021     		mov	r1, #0
 149 00b0 0022     		mov	r2, #0
 150 00b2 FFF7FEFF 		bl	_PrISM_TurnOnLED
 151              	.LVL16:
 152 00b6 0EE0     		b	.L7
 153              	.L8:
 160:.\_Watchdog.c ****         }
 161:.\_Watchdog.c ****         
 162:.\_Watchdog.c ****         // If connected, turn the blue LED on.
 163:.\_Watchdog.c ****         else if(CyBle_GetState() == CYBLE_STATE_CONNECTED) {
 154              		.loc 1 163 0
 155 00b8 022B     		cmp	r3, #2
 156 00ba 0CD1     		bne	.L7
 164:.\_Watchdog.c ****             previousState = CYBLE_STATE_CONNECTED;
 157              		.loc 1 164 0
 158 00bc 0222     		mov	r2, #2
 159 00be 154B     		ldr	r3, .L10+8
 160 00c0 1A70     		strb	r2, [r3]
 165:.\_Watchdog.c ****             
 166:.\_Watchdog.c ****             _PrISM_TurnOffLED(TRUE, TRUE, TRUE);
 161              		.loc 1 166 0
 162 00c2 0120     		mov	r0, #1
 163 00c4 0121     		mov	r1, #1
 164 00c6 013A     		sub	r2, r2, #1
 165 00c8 FFF7FEFF 		bl	_PrISM_TurnOffLED
 166              	.LVL17:
 167:.\_Watchdog.c ****             _PrISM_TurnOnLED(FALSE, FALSE, TRUE);
 167              		.loc 1 167 0
 168 00cc 0020     		mov	r0, #0
 169 00ce 0021     		mov	r1, #0
 170 00d0 0122     		mov	r2, #1
 171 00d2 FFF7FEFF 		bl	_PrISM_TurnOnLED
 172              	.LVL18:
 173              	.L7:
 168:.\_Watchdog.c ****         }
 169:.\_Watchdog.c ****         
ARM GAS  C:\Users\ALEXAN~1\AppData\Local\Temp\ccVZayfn.s 			page 7


 170:.\_Watchdog.c ****         /********************************************************************/
 171:.\_Watchdog.c ****         
 172:.\_Watchdog.c ****         // Unlock the WDT registers for modification.
 173:.\_Watchdog.c **** 		CySysWdtUnlock();
 174              		.loc 1 173 0
 175 00d6 FFF7FEFF 		bl	CySysWdtUnlock
 176              	.LVL19:
 174:.\_Watchdog.c **** 		
 175:.\_Watchdog.c **** 		// Disable Counter 1 to allow modifications.
 176:.\_Watchdog.c **** 		CySysWdtDisable(CY_SYS_WDT_COUNTER1_MASK);
 177              		.loc 1 176 0
 178 00da 8024     		mov	r4, #128
 179 00dc 6400     		lsl	r4, r4, #1
 180 00de 201C     		mov	r0, r4
 181 00e0 FFF7FEFF 		bl	CySysWdtDisable
 182              	.LVL20:
 177:.\_Watchdog.c **** 		
 178:.\_Watchdog.c **** 		// Reset Counter 1 and give ~3 LFCLK cycles to take effect.
 179:.\_Watchdog.c **** 		CySysWdtResetCounters(CY_SYS_WDT_COUNTER1_RESET);
 183              		.loc 1 179 0
 184 00e4 8020     		mov	r0, #128
 185 00e6 0001     		lsl	r0, r0, #4
 186 00e8 FFF7FEFF 		bl	CySysWdtResetCounters
 187              	.LVL21:
 180:.\_Watchdog.c **** 		CyDelayUs(WATCHDOG_REG_UPDATE_WAIT_TIME);
 188              		.loc 1 180 0
 189 00ec 6420     		mov	r0, #100
 190 00ee FFF7FEFF 		bl	CyDelayUs
 191              	.LVL22:
 181:.\_Watchdog.c **** 		
 182:.\_Watchdog.c **** 		// Write the Counter 1 match value for 500 millisecond and give 
 183:.\_Watchdog.c **** 		// ~3 LFCLK cycles to take effect.
 184:.\_Watchdog.c **** 		CySysWdtWriteMatch(CY_SYS_WDT_COUNTER1, WATCHDOG_COUNTER1_PERIOD);
 192              		.loc 1 184 0
 193 00f2 0120     		mov	r0, #1
 194 00f4 0949     		ldr	r1, .L10+16
 195 00f6 FFF7FEFF 		bl	CySysWdtSetMatch
 196              	.LVL23:
 185:.\_Watchdog.c **** 		CyDelayUs(WATCHDOG_REG_UPDATE_WAIT_TIME);
 197              		.loc 1 185 0
 198 00fa 6420     		mov	r0, #100
 199 00fc FFF7FEFF 		bl	CyDelayUs
 200              	.LVL24:
 186:.\_Watchdog.c **** 		
 187:.\_Watchdog.c **** 		// Enable Watchdog Counter 1.
 188:.\_Watchdog.c **** 		CySysWdtEnable(CY_SYS_WDT_COUNTER1_MASK);
 201              		.loc 1 188 0
 202 0100 201C     		mov	r0, r4
 203 0102 FFF7FEFF 		bl	CySysWdtEnable
 204              	.LVL25:
 189:.\_Watchdog.c **** 		
 190:.\_Watchdog.c **** 		// Lock Watchdog to prevent any further change.
 191:.\_Watchdog.c **** 	    CySysWdtLock();
 205              		.loc 1 191 0
 206 0106 FFF7FEFF 		bl	CySysWdtLock
 207              	.LVL26:
 208              	.L1:
ARM GAS  C:\Users\ALEXAN~1\AppData\Local\Temp\ccVZayfn.s 			page 8


 209              	.LBE2:
 192:.\_Watchdog.c ****     }
 193:.\_Watchdog.c **** }
 210              		.loc 1 193 0
 211              		@ sp needed
 212 010a 10BD     		pop	{r4, pc}
 213              	.L11:
 214              		.align	2
 215              	.L10:
 216 010c 00000000 		.word	cyBle_busyStatus
 217 0110 00000000 		.word	cyBle_state
 218 0114 00000000 		.word	.LANCHOR0
 219 0118 00000000 		.word	_PrISM_Red_On
 220 011c 74400000 		.word	16500
 221              		.cfi_endproc
 222              	.LFE36:
 223              		.size	_Watchdog_Handler, .-_Watchdog_Handler
 224              		.section	.text._Watchdog_Init,"ax",%progbits
 225              		.align	2
 226              		.global	_Watchdog_Init
 227              		.code	16
 228              		.thumb_func
 229              		.type	_Watchdog_Init, %function
 230              	_Watchdog_Init:
 231              	.LFB35:
  42:.\_Watchdog.c ****     // Unlock the WDT registers for modification.
 232              		.loc 1 42 0
 233              		.cfi_startproc
 234 0000 08B5     		push	{r3, lr}
 235              		.cfi_def_cfa_offset 8
 236              		.cfi_offset 3, -8
 237              		.cfi_offset 14, -4
  44:.\_Watchdog.c ****     
 238              		.loc 1 44 0
 239 0002 FFF7FEFF 		bl	CySysWdtUnlock
 240              	.LVL27:
  47:.\_Watchdog.c ****     CySysWdtWriteMode(CY_SYS_WDT_COUNTER1, CY_SYS_WDT_MODE_INT);
 241              		.loc 1 47 0
 242 0006 0020     		mov	r0, #0
 243 0008 0121     		mov	r1, #1
 244 000a FFF7FEFF 		bl	CySysWdtSetMode
 245              	.LVL28:
  48:.\_Watchdog.c ****     
 246              		.loc 1 48 0
 247 000e 0120     		mov	r0, #1
 248 0010 0121     		mov	r1, #1
 249 0012 FFF7FEFF 		bl	CySysWdtSetMode
 250              	.LVL29:
  51:.\_Watchdog.c ****     CySysWdtWriteClearOnMatch(CY_SYS_WDT_COUNTER1, TRUE);
 251              		.loc 1 51 0
 252 0016 0020     		mov	r0, #0
 253 0018 0121     		mov	r1, #1
 254 001a FFF7FEFF 		bl	CySysWdtSetClearOnMatch
 255              	.LVL30:
  52:.\_Watchdog.c ****     
 256              		.loc 1 52 0
 257 001e 0120     		mov	r0, #1
ARM GAS  C:\Users\ALEXAN~1\AppData\Local\Temp\ccVZayfn.s 			page 9


 258 0020 0121     		mov	r1, #1
 259 0022 FFF7FEFF 		bl	CySysWdtSetClearOnMatch
 260              	.LVL31:
  55:.\_Watchdog.c ****     
 261              		.loc 1 55 0
 262 0026 0820     		mov	r0, #8
 263 0028 0321     		mov	r1, #3
 264 002a FFF7FEFF 		bl	CyIntSetPriority
 265              	.LVL32:
  58:.\_Watchdog.c ****     
 266              		.loc 1 58 0
 267 002e 0820     		mov	r0, #8
 268 0030 FFF7FEFF 		bl	CyIntEnable
 269              	.LVL33:
  61:.\_Watchdog.c ****     CySysWdtWriteMatch(CY_SYS_WDT_COUNTER1, WATCHDOG_COUNTER1_PERIOD);
 270              		.loc 1 61 0
 271 0034 0020     		mov	r0, #0
 272 0036 A521     		mov	r1, #165
 273 0038 4900     		lsl	r1, r1, #1
 274 003a FFF7FEFF 		bl	CySysWdtSetMatch
 275              	.LVL34:
  62:.\_Watchdog.c ****     
 276              		.loc 1 62 0
 277 003e 0120     		mov	r0, #1
 278 0040 0849     		ldr	r1, .L13
 279 0042 FFF7FEFF 		bl	CySysWdtSetMatch
 280              	.LVL35:
  65:.\_Watchdog.c ****     CySysWdtEnable(CY_SYS_WDT_COUNTER1_MASK);
 281              		.loc 1 65 0
 282 0046 0120     		mov	r0, #1
 283 0048 FFF7FEFF 		bl	CySysWdtEnable
 284              	.LVL36:
  66:.\_Watchdog.c **** 	
 285              		.loc 1 66 0
 286 004c 8020     		mov	r0, #128
 287 004e 4000     		lsl	r0, r0, #1
 288 0050 FFF7FEFF 		bl	CySysWdtEnable
 289              	.LVL37:
  69:.\_Watchdog.c ****     
 290              		.loc 1 69 0
 291 0054 FFF7FEFF 		bl	CySysWdtLock
 292              	.LVL38:
  73:.\_Watchdog.c **** }
 293              		.loc 1 73 0
 294 0058 0820     		mov	r0, #8
 295 005a 0349     		ldr	r1, .L13+4
 296 005c FFF7FEFF 		bl	CyIntSetVector
 297              	.LVL39:
  74:.\_Watchdog.c **** 
 298              		.loc 1 74 0
 299              		@ sp needed
 300 0060 08BD     		pop	{r3, pc}
 301              	.L14:
 302 0062 C046     		.align	2
 303              	.L13:
 304 0064 74400000 		.word	16500
 305 0068 00000000 		.word	_Watchdog_Handler
ARM GAS  C:\Users\ALEXAN~1\AppData\Local\Temp\ccVZayfn.s 			page 10


 306              		.cfi_endproc
 307              	.LFE35:
 308              		.size	_Watchdog_Init, .-_Watchdog_Init
 309              		.data
 310              		.set	.LANCHOR0,. + 0
 311              		.type	previousState.6896, %object
 312              		.size	previousState.6896, 1
 313              	previousState.6896:
 314 0000 FF       		.byte	-1
 315              		.text
 316              	.Letext0:
 317              		.file 2 "Generated_Source\\PSoC4/cytypes.h"
 318              		.file 3 "Generated_Source\\PSoC4/BLE_eventHandler.h"
 319              		.file 4 ".\\_PrISM.h"
 320              		.file 5 "Generated_Source\\PSoC4/CyLFClk.h"
 321              		.file 6 "Generated_Source\\PSoC4/CyLib.h"
 322              		.file 7 "Generated_Source\\PSoC4/BLE_Stack.h"