ARM GAS  C:\Users\ALEXAN~1\AppData\Local\Temp\ccazldJ5.s 			page 1


   1              		.cpu cortex-m0
   2              		.fpu softvfp
   3              		.eabi_attribute 20, 1
   4              		.eabi_attribute 21, 1
   5              		.eabi_attribute 23, 3
   6              		.eabi_attribute 24, 1
   7              		.eabi_attribute 25, 1
   8              		.eabi_attribute 26, 1
   9              		.eabi_attribute 30, 1
  10              		.eabi_attribute 34, 0
  11              		.eabi_attribute 18, 4
  12              		.code	16
  13              		.file	"CapSense.c"
  14              		.text
  15              	.Ltext0:
  16              		.cfi_sections	.debug_frame
  17              		.section	.text.CapSense_CsdHwBlockInit,"ax",%progbits
  18              		.align	2
  19              		.global	CapSense_CsdHwBlockInit
  20              		.code	16
  21              		.thumb_func
  22              		.type	CapSense_CsdHwBlockInit, %function
  23              	CapSense_CsdHwBlockInit:
  24              	.LFB36:
  25              		.file 1 ".\\Generated_Source\\PSoC4\\CapSense.c"
   1:.\Generated_Source\PSoC4/CapSense.c **** /*******************************************************************************
   2:.\Generated_Source\PSoC4/CapSense.c **** * File Name: CapSense.c
   3:.\Generated_Source\PSoC4/CapSense.c **** * Version 2.20
   4:.\Generated_Source\PSoC4/CapSense.c **** *
   5:.\Generated_Source\PSoC4/CapSense.c **** * Description:
   6:.\Generated_Source\PSoC4/CapSense.c **** *  This file provides the source code for scanning APIs for the CapSense CSD
   7:.\Generated_Source\PSoC4/CapSense.c **** *  component.
   8:.\Generated_Source\PSoC4/CapSense.c **** *
   9:.\Generated_Source\PSoC4/CapSense.c **** * Note:
  10:.\Generated_Source\PSoC4/CapSense.c **** *
  11:.\Generated_Source\PSoC4/CapSense.c **** ********************************************************************************
  12:.\Generated_Source\PSoC4/CapSense.c **** * Copyright 2013-2015, Cypress Semiconductor Corporation.  All rights reserved.
  13:.\Generated_Source\PSoC4/CapSense.c **** * You may use this file only in accordance with the license, terms, conditions,
  14:.\Generated_Source\PSoC4/CapSense.c **** * disclaimers, and limitations in the end user license agreement accompanying
  15:.\Generated_Source\PSoC4/CapSense.c **** * the software package with which this file was provided.
  16:.\Generated_Source\PSoC4/CapSense.c **** *******************************************************************************/
  17:.\Generated_Source\PSoC4/CapSense.c **** 
  18:.\Generated_Source\PSoC4/CapSense.c **** #include "CapSense.h"
  19:.\Generated_Source\PSoC4/CapSense.c **** #include "CapSense_PVT.h"
  20:.\Generated_Source\PSoC4/CapSense.c **** #include "cypins.h"
  21:.\Generated_Source\PSoC4/CapSense.c **** 
  22:.\Generated_Source\PSoC4/CapSense.c **** 
  23:.\Generated_Source\PSoC4/CapSense.c **** #if(0u != CapSense_CSHL_API_GENERATE)
  24:.\Generated_Source\PSoC4/CapSense.c ****     #include "CapSense_CSHL.h"
  25:.\Generated_Source\PSoC4/CapSense.c **** #endif /* (0u != CapSense_CSHL_API_GENERATE) */
  26:.\Generated_Source\PSoC4/CapSense.c **** 
  27:.\Generated_Source\PSoC4/CapSense.c **** /* This definition is intended to prevent unexpected linker error.
  28:.\Generated_Source\PSoC4/CapSense.c ****    For more details please see the IAR Technical Note 49981 */
  29:.\Generated_Source\PSoC4/CapSense.c **** #if defined(__ICCARM__)
  30:.\Generated_Source\PSoC4/CapSense.c ****     extern void CapSense_EnableSensor(uint32 sensor);
  31:.\Generated_Source\PSoC4/CapSense.c ****     extern void CapSense_DisableSensor(uint32 sensor);
  32:.\Generated_Source\PSoC4/CapSense.c **** #endif /* (__ICCARM__) */
ARM GAS  C:\Users\ALEXAN~1\AppData\Local\Temp\ccazldJ5.s 			page 2


  33:.\Generated_Source\PSoC4/CapSense.c **** 
  34:.\Generated_Source\PSoC4/CapSense.c **** /* SmartSense functions */
  35:.\Generated_Source\PSoC4/CapSense.c **** #if (CapSense_TUNING_METHOD == CapSense__TUNING_AUTO)
  36:.\Generated_Source\PSoC4/CapSense.c ****     uint8 CapSense_lowLevelTuningDone = 0u;
  37:.\Generated_Source\PSoC4/CapSense.c ****     uint8 CapSense_scanSpeedTbl[((CapSense_TOTAL_SENSOR_COUNT - 1u) / 8u) + 1u];
  38:.\Generated_Source\PSoC4/CapSense.c **** #endif /* (CapSense_TUNING_METHOD == CapSense__TUNING_AUTO) */
  39:.\Generated_Source\PSoC4/CapSense.c **** 
  40:.\Generated_Source\PSoC4/CapSense.c **** #if(CapSense_PRS_OPTIONS != CapSense__PRS_NONE)
  41:.\Generated_Source\PSoC4/CapSense.c ****     uint8 CapSense_prescalersTuningDone = 0u;
  42:.\Generated_Source\PSoC4/CapSense.c **** #endif /* (CapSense_PRS_OPTIONS == CapSense__PRS_NONE) */
  43:.\Generated_Source\PSoC4/CapSense.c **** 
  44:.\Generated_Source\PSoC4/CapSense.c **** /* Global software variables */
  45:.\Generated_Source\PSoC4/CapSense.c **** volatile uint8 CapSense_csdStatusVar = 0u;   /* CapSense CSD status, variable */
  46:.\Generated_Source\PSoC4/CapSense.c **** volatile uint8 CapSense_sensorIndex = 0u;    /* Index of scannig sensor */
  47:.\Generated_Source\PSoC4/CapSense.c **** 
  48:.\Generated_Source\PSoC4/CapSense.c **** /* Global array of Raw Counts */
  49:.\Generated_Source\PSoC4/CapSense.c **** uint16 CapSense_sensorRaw[CapSense_TOTAL_SENSOR_COUNT] = {0u};
  50:.\Generated_Source\PSoC4/CapSense.c **** 
  51:.\Generated_Source\PSoC4/CapSense.c **** /* Backup variables for trim registers*/
  52:.\Generated_Source\PSoC4/CapSense.c **** #if (CapSense_IDAC1_POLARITY == CapSense__IDAC_SINK)
  53:.\Generated_Source\PSoC4/CapSense.c ****     uint8 CapSense_csdTrim2;
  54:.\Generated_Source\PSoC4/CapSense.c **** #else
  55:.\Generated_Source\PSoC4/CapSense.c ****     uint8 CapSense_csdTrim1;
  56:.\Generated_Source\PSoC4/CapSense.c **** #endif /* (CapSense_IDAC1_POLARITY == CapSense__IDAC_SINK) */
  57:.\Generated_Source\PSoC4/CapSense.c **** 
  58:.\Generated_Source\PSoC4/CapSense.c **** /* Global array of un-scanned sensors state */
  59:.\Generated_Source\PSoC4/CapSense.c **** uint8 CapSense_unscannedSnsDriveMode[CapSense_TOTAL_SENSOR_COUNT];
  60:.\Generated_Source\PSoC4/CapSense.c **** 
  61:.\Generated_Source\PSoC4/CapSense.c **** /* Backup array for CapSense_sensorEnableMask */
  62:.\Generated_Source\PSoC4/CapSense.c **** uint8 CapSense_sensorEnableMaskBackup[(((CapSense_TOTAL_SENSOR_COUNT - 1u) / 8u) + 1u)];
  63:.\Generated_Source\PSoC4/CapSense.c **** 
  64:.\Generated_Source\PSoC4/CapSense.c **** /* Configured constants and arrays by Customizer */
  65:.\Generated_Source\PSoC4/CapSense.c **** uint8 CapSense_sensorEnableMask[(((CapSense_TOTAL_SENSOR_COUNT - 1u) / 8u) + 1u)] = {
  66:.\Generated_Source\PSoC4/CapSense.c **** 0xFFu, 0x3u, };
  67:.\Generated_Source\PSoC4/CapSense.c **** 
  68:.\Generated_Source\PSoC4/CapSense.c **** reg32 * CapSense_pcTable[] = {
  69:.\Generated_Source\PSoC4/CapSense.c ****     (reg32 *)CapSense_Sns__LinearSlider0_e0__LS__PC, 
  70:.\Generated_Source\PSoC4/CapSense.c ****     (reg32 *)CapSense_Sns__LinearSlider0_e1__LS__PC, 
  71:.\Generated_Source\PSoC4/CapSense.c ****     (reg32 *)CapSense_Sns__LinearSlider0_e2__LS__PC, 
  72:.\Generated_Source\PSoC4/CapSense.c ****     (reg32 *)CapSense_Sns__LinearSlider0_e3__LS__PC, 
  73:.\Generated_Source\PSoC4/CapSense.c ****     (reg32 *)CapSense_Sns__LinearSlider0_e4__LS__PC, 
  74:.\Generated_Source\PSoC4/CapSense.c ****     (reg32 *)CapSense_Sns__LinearSlider0_e5__LS__PC, 
  75:.\Generated_Source\PSoC4/CapSense.c ****     (reg32 *)CapSense_Sns__LinearSlider0_e6__LS__PC, 
  76:.\Generated_Source\PSoC4/CapSense.c ****     (reg32 *)CapSense_Sns__LinearSlider0_e7__LS__PC, 
  77:.\Generated_Source\PSoC4/CapSense.c ****     (reg32 *)CapSense_Sns__LinearSlider0_e8__LS__PC, 
  78:.\Generated_Source\PSoC4/CapSense.c ****     (reg32 *)CapSense_Sns__LinearSlider0_e9__LS__PC, 
  79:.\Generated_Source\PSoC4/CapSense.c **** };
  80:.\Generated_Source\PSoC4/CapSense.c **** 
  81:.\Generated_Source\PSoC4/CapSense.c **** const uint8 CapSense_portTable[] = {
  82:.\Generated_Source\PSoC4/CapSense.c ****     CapSense_Sns__LinearSlider0_e0__LS__PORT, 
  83:.\Generated_Source\PSoC4/CapSense.c ****     CapSense_Sns__LinearSlider0_e1__LS__PORT, 
  84:.\Generated_Source\PSoC4/CapSense.c ****     CapSense_Sns__LinearSlider0_e2__LS__PORT, 
  85:.\Generated_Source\PSoC4/CapSense.c ****     CapSense_Sns__LinearSlider0_e3__LS__PORT, 
  86:.\Generated_Source\PSoC4/CapSense.c ****     CapSense_Sns__LinearSlider0_e4__LS__PORT, 
  87:.\Generated_Source\PSoC4/CapSense.c ****     CapSense_Sns__LinearSlider0_e5__LS__PORT, 
  88:.\Generated_Source\PSoC4/CapSense.c ****     CapSense_Sns__LinearSlider0_e6__LS__PORT, 
  89:.\Generated_Source\PSoC4/CapSense.c ****     CapSense_Sns__LinearSlider0_e7__LS__PORT, 
ARM GAS  C:\Users\ALEXAN~1\AppData\Local\Temp\ccazldJ5.s 			page 3


  90:.\Generated_Source\PSoC4/CapSense.c ****     CapSense_Sns__LinearSlider0_e8__LS__PORT, 
  91:.\Generated_Source\PSoC4/CapSense.c ****     CapSense_Sns__LinearSlider0_e9__LS__PORT, 
  92:.\Generated_Source\PSoC4/CapSense.c **** };
  93:.\Generated_Source\PSoC4/CapSense.c **** 
  94:.\Generated_Source\PSoC4/CapSense.c **** const uint32 CapSense_maskTable[] = {
  95:.\Generated_Source\PSoC4/CapSense.c ****     CapSense_Sns__LinearSlider0_e0__LS__MASK, 
  96:.\Generated_Source\PSoC4/CapSense.c ****     CapSense_Sns__LinearSlider0_e1__LS__MASK, 
  97:.\Generated_Source\PSoC4/CapSense.c ****     CapSense_Sns__LinearSlider0_e2__LS__MASK, 
  98:.\Generated_Source\PSoC4/CapSense.c ****     CapSense_Sns__LinearSlider0_e3__LS__MASK, 
  99:.\Generated_Source\PSoC4/CapSense.c ****     CapSense_Sns__LinearSlider0_e4__LS__MASK, 
 100:.\Generated_Source\PSoC4/CapSense.c ****     CapSense_Sns__LinearSlider0_e5__LS__MASK, 
 101:.\Generated_Source\PSoC4/CapSense.c ****     CapSense_Sns__LinearSlider0_e6__LS__MASK, 
 102:.\Generated_Source\PSoC4/CapSense.c ****     CapSense_Sns__LinearSlider0_e7__LS__MASK, 
 103:.\Generated_Source\PSoC4/CapSense.c ****     CapSense_Sns__LinearSlider0_e8__LS__MASK, 
 104:.\Generated_Source\PSoC4/CapSense.c ****     CapSense_Sns__LinearSlider0_e9__LS__MASK, 
 105:.\Generated_Source\PSoC4/CapSense.c **** };
 106:.\Generated_Source\PSoC4/CapSense.c **** 
 107:.\Generated_Source\PSoC4/CapSense.c **** const uint8 CapSense_pinShiftTbl[] = {
 108:.\Generated_Source\PSoC4/CapSense.c ****     (uint8) CapSense_Sns__LinearSlider0_e0__LS__SHIFT, 
 109:.\Generated_Source\PSoC4/CapSense.c ****     (uint8) CapSense_Sns__LinearSlider0_e1__LS__SHIFT, 
 110:.\Generated_Source\PSoC4/CapSense.c ****     (uint8) CapSense_Sns__LinearSlider0_e2__LS__SHIFT, 
 111:.\Generated_Source\PSoC4/CapSense.c ****     (uint8) CapSense_Sns__LinearSlider0_e3__LS__SHIFT, 
 112:.\Generated_Source\PSoC4/CapSense.c ****     (uint8) CapSense_Sns__LinearSlider0_e4__LS__SHIFT, 
 113:.\Generated_Source\PSoC4/CapSense.c ****     (uint8) CapSense_Sns__LinearSlider0_e5__LS__SHIFT, 
 114:.\Generated_Source\PSoC4/CapSense.c ****     (uint8) CapSense_Sns__LinearSlider0_e6__LS__SHIFT, 
 115:.\Generated_Source\PSoC4/CapSense.c ****     (uint8) CapSense_Sns__LinearSlider0_e7__LS__SHIFT, 
 116:.\Generated_Source\PSoC4/CapSense.c ****     (uint8) CapSense_Sns__LinearSlider0_e8__LS__SHIFT, 
 117:.\Generated_Source\PSoC4/CapSense.c ****     (uint8) CapSense_Sns__LinearSlider0_e9__LS__SHIFT, 
 118:.\Generated_Source\PSoC4/CapSense.c **** };
 119:.\Generated_Source\PSoC4/CapSense.c **** 
 120:.\Generated_Source\PSoC4/CapSense.c **** const uint8 CapSense_modulationIDAC[CapSense_TOTAL_SENSOR_COUNT] = {
 121:.\Generated_Source\PSoC4/CapSense.c ****     80u, 80u, 80u, 80u, 80u, 80u, 80u, 80u, 80u, 80u, 
 122:.\Generated_Source\PSoC4/CapSense.c **** };
 123:.\Generated_Source\PSoC4/CapSense.c **** const uint8 CapSense_compensationIDAC[CapSense_TOTAL_SENSOR_COUNT] = {
 124:.\Generated_Source\PSoC4/CapSense.c ****     80u, 80u, 80u, 80u, 80u, 80u, 80u, 80u, 80u, 80u, 
 125:.\Generated_Source\PSoC4/CapSense.c **** };
 126:.\Generated_Source\PSoC4/CapSense.c **** 
 127:.\Generated_Source\PSoC4/CapSense.c **** const uint32 CapSense_widgetResolution[CapSense_RESOLUTIONS_TBL_SIZE] = {
 128:.\Generated_Source\PSoC4/CapSense.c ****     CapSense_RESOLUTION_16_BITS,
 129:.\Generated_Source\PSoC4/CapSense.c **** };
 130:.\Generated_Source\PSoC4/CapSense.c **** 
 131:.\Generated_Source\PSoC4/CapSense.c **** const uint8 CapSense_senseClkDividerVal[CapSense_TOTAL_SCANSLOT_COUNT] = {
 132:.\Generated_Source\PSoC4/CapSense.c ****     2u, 2u, 2u, 2u, 2u, 2u, 2u, 2u, 2u, 2u, 
 133:.\Generated_Source\PSoC4/CapSense.c **** };
 134:.\Generated_Source\PSoC4/CapSense.c **** const uint8 CapSense_sampleClkDividerVal[CapSense_TOTAL_SCANSLOT_COUNT] = {
 135:.\Generated_Source\PSoC4/CapSense.c ****     2u, 2u, 2u, 2u, 2u, 2u, 2u, 2u, 2u, 2u, 
 136:.\Generated_Source\PSoC4/CapSense.c **** };
 137:.\Generated_Source\PSoC4/CapSense.c **** 
 138:.\Generated_Source\PSoC4/CapSense.c **** 
 139:.\Generated_Source\PSoC4/CapSense.c **** const uint8 CapSense_widgetNumber[CapSense_TOTAL_SENSOR_COUNT] = {
 140:.\Generated_Source\PSoC4/CapSense.c ****     0u, 0u, 0u, 0u, 0u, 0u, 0u, 0u, 0u, 0u, /* LinearSlider0__LS */
 141:.\Generated_Source\PSoC4/CapSense.c **** };
 142:.\Generated_Source\PSoC4/CapSense.c **** 
 143:.\Generated_Source\PSoC4/CapSense.c **** reg32* const CapSense_prtSelTbl[CapSense_CFG_REG_TBL_SIZE] = {
 144:.\Generated_Source\PSoC4/CapSense.c ****     ((reg32 *) CYREG_HSIOM_PORT_SEL0),
 145:.\Generated_Source\PSoC4/CapSense.c ****     ((reg32 *) CYREG_HSIOM_PORT_SEL1),
 146:.\Generated_Source\PSoC4/CapSense.c ****     ((reg32 *) CYREG_HSIOM_PORT_SEL2),
ARM GAS  C:\Users\ALEXAN~1\AppData\Local\Temp\ccazldJ5.s 			page 4


 147:.\Generated_Source\PSoC4/CapSense.c ****     ((reg32 *) CYREG_HSIOM_PORT_SEL3),
 148:.\Generated_Source\PSoC4/CapSense.c ****     ((reg32 *) CYREG_HSIOM_PORT_SEL4),
 149:.\Generated_Source\PSoC4/CapSense.c ****     ((reg32 *) CYREG_HSIOM_PORT_SEL5),
 150:.\Generated_Source\PSoC4/CapSense.c ****     ((reg32 *) CYREG_HSIOM_PORT_SEL6),
 151:.\Generated_Source\PSoC4/CapSense.c **** };
 152:.\Generated_Source\PSoC4/CapSense.c **** 
 153:.\Generated_Source\PSoC4/CapSense.c **** reg32* const CapSense_prtCfgTbl[CapSense_CFG_REG_TBL_SIZE] = {
 154:.\Generated_Source\PSoC4/CapSense.c ****     ((reg32 *) CYREG_GPIO_PRT0_PC),
 155:.\Generated_Source\PSoC4/CapSense.c ****     ((reg32 *) CYREG_GPIO_PRT1_PC),
 156:.\Generated_Source\PSoC4/CapSense.c ****     ((reg32 *) CYREG_GPIO_PRT2_PC),
 157:.\Generated_Source\PSoC4/CapSense.c ****     ((reg32 *) CYREG_GPIO_PRT3_PC),
 158:.\Generated_Source\PSoC4/CapSense.c ****     ((reg32 *) CYREG_GPIO_PRT4_PC),
 159:.\Generated_Source\PSoC4/CapSense.c ****     ((reg32 *) CYREG_GPIO_PRT5_PC),
 160:.\Generated_Source\PSoC4/CapSense.c ****     ((reg32 *) CYREG_GPIO_PRT6_PC),
 161:.\Generated_Source\PSoC4/CapSense.c **** };
 162:.\Generated_Source\PSoC4/CapSense.c **** 
 163:.\Generated_Source\PSoC4/CapSense.c **** reg32* const CapSense_prtDRTbl[CapSense_CFG_REG_TBL_SIZE] = {
 164:.\Generated_Source\PSoC4/CapSense.c ****     ((reg32 *) CYREG_GPIO_PRT0_DR),
 165:.\Generated_Source\PSoC4/CapSense.c ****     ((reg32 *) CYREG_GPIO_PRT1_DR),
 166:.\Generated_Source\PSoC4/CapSense.c ****     ((reg32 *) CYREG_GPIO_PRT2_DR),
 167:.\Generated_Source\PSoC4/CapSense.c ****     ((reg32 *) CYREG_GPIO_PRT3_DR),
 168:.\Generated_Source\PSoC4/CapSense.c ****     ((reg32 *) CYREG_GPIO_PRT4_DR),
 169:.\Generated_Source\PSoC4/CapSense.c ****     ((reg32 *) CYREG_GPIO_PRT5_DR),
 170:.\Generated_Source\PSoC4/CapSense.c ****     ((reg32 *) CYREG_GPIO_PRT6_DR),
 171:.\Generated_Source\PSoC4/CapSense.c **** };
 172:.\Generated_Source\PSoC4/CapSense.c **** 
 173:.\Generated_Source\PSoC4/CapSense.c **** 
 174:.\Generated_Source\PSoC4/CapSense.c **** 
 175:.\Generated_Source\PSoC4/CapSense.c **** /*******************************************************************************
 176:.\Generated_Source\PSoC4/CapSense.c **** * Function Name: CapSense_Init
 177:.\Generated_Source\PSoC4/CapSense.c **** ********************************************************************************
 178:.\Generated_Source\PSoC4/CapSense.c **** *
 179:.\Generated_Source\PSoC4/CapSense.c **** * Summary:
 180:.\Generated_Source\PSoC4/CapSense.c **** *  API initializes default CapSense configuration provided by the customizer that defines
 181:.\Generated_Source\PSoC4/CapSense.c **** *  the mode of component operations and resets all the sensors to an inactive state.
 182:.\Generated_Source\PSoC4/CapSense.c **** *
 183:.\Generated_Source\PSoC4/CapSense.c **** * Parameters:
 184:.\Generated_Source\PSoC4/CapSense.c **** *  None
 185:.\Generated_Source\PSoC4/CapSense.c **** *
 186:.\Generated_Source\PSoC4/CapSense.c **** * Return:
 187:.\Generated_Source\PSoC4/CapSense.c **** *  None
 188:.\Generated_Source\PSoC4/CapSense.c **** *
 189:.\Generated_Source\PSoC4/CapSense.c **** * Global Variables:
 190:.\Generated_Source\PSoC4/CapSense.c **** *  CapSense_immunityIndex - defines immunity level.
 191:.\Generated_Source\PSoC4/CapSense.c **** *
 192:.\Generated_Source\PSoC4/CapSense.c **** * Side Effects:
 193:.\Generated_Source\PSoC4/CapSense.c **** *  None
 194:.\Generated_Source\PSoC4/CapSense.c **** *
 195:.\Generated_Source\PSoC4/CapSense.c **** *******************************************************************************/
 196:.\Generated_Source\PSoC4/CapSense.c **** void CapSense_Init(void)
 197:.\Generated_Source\PSoC4/CapSense.c **** {
 198:.\Generated_Source\PSoC4/CapSense.c ****     uint32 curSensor;
 199:.\Generated_Source\PSoC4/CapSense.c **** 
 200:.\Generated_Source\PSoC4/CapSense.c ****     #if(CapSense_IS_SHIELD_ENABLE)
 201:.\Generated_Source\PSoC4/CapSense.c **** 
 202:.\Generated_Source\PSoC4/CapSense.c ****         #if((CapSense_CSH_TANK_PREGARGE_OPTION == CapSense__CAPPRIOBUF) || (0u != CapSense_CSH_TANK
 203:.\Generated_Source\PSoC4/CapSense.c ****             uint32 newRegValue;
ARM GAS  C:\Users\ALEXAN~1\AppData\Local\Temp\ccazldJ5.s 			page 5


 204:.\Generated_Source\PSoC4/CapSense.c **** 
 205:.\Generated_Source\PSoC4/CapSense.c ****             newRegValue = CapSense_CTANK_CONNECTION_REG;
 206:.\Generated_Source\PSoC4/CapSense.c ****             newRegValue &= ~(CapSense_CSD_CTANK_CONNECTION_MASK);
 207:.\Generated_Source\PSoC4/CapSense.c ****             newRegValue |= CapSense_CSD_CTANK_TO_AMUXBUS_B;
 208:.\Generated_Source\PSoC4/CapSense.c ****             CapSense_CTANK_CONNECTION_REG = newRegValue;
 209:.\Generated_Source\PSoC4/CapSense.c **** 
 210:.\Generated_Source\PSoC4/CapSense.c ****             #if(CapSense_CSH_TANK_PREGARGE_OPTION == CapSense__CAPPRIOBUF)
 211:.\Generated_Source\PSoC4/CapSense.c ****                 newRegValue = CapSense_CTANK_PORT_PC_REG;
 212:.\Generated_Source\PSoC4/CapSense.c ****                 newRegValue &= ~(CapSense_CSD_CTANK_PC_MASK);
 213:.\Generated_Source\PSoC4/CapSense.c ****                 newRegValue |= CapSense_CTANK_PC_STRONG_MODE;
 214:.\Generated_Source\PSoC4/CapSense.c ****                 CapSense_CTANK_PORT_PC_REG = newRegValue;
 215:.\Generated_Source\PSoC4/CapSense.c **** 
 216:.\Generated_Source\PSoC4/CapSense.c ****                 newRegValue = CapSense_CTANK_PORT_DR_REG;
 217:.\Generated_Source\PSoC4/CapSense.c ****                 newRegValue &= ~(CapSense_CTANK_DR_MASK);
 218:.\Generated_Source\PSoC4/CapSense.c ****                 newRegValue |= CapSense_CTANK_DR_CONFIG;
 219:.\Generated_Source\PSoC4/CapSense.c ****                 CapSense_CTANK_PORT_DR_REG = newRegValue;
 220:.\Generated_Source\PSoC4/CapSense.c ****             #endif /* (CapSense_CSH_TANK_PREGARGE_OPTION == CapSense__CAPPRIOBUF) */
 221:.\Generated_Source\PSoC4/CapSense.c **** 
 222:.\Generated_Source\PSoC4/CapSense.c ****         #endif /* ((CapSense_CSH_TANK_PREGARGE_OPTION == CapSense__CAPPRIOBUF) || (CapSense_CSH_TAN
 223:.\Generated_Source\PSoC4/CapSense.c **** 
 224:.\Generated_Source\PSoC4/CapSense.c ****         CapSense_EnableShieldElectrode((uint32)CapSense_SHIELD_PIN_NUMBER, (uint32)CapSense_SHIELD_
 225:.\Generated_Source\PSoC4/CapSense.c **** 
 226:.\Generated_Source\PSoC4/CapSense.c ****     #endif /* (CapSense_IS_SHIELD_ENABLE) */
 227:.\Generated_Source\PSoC4/CapSense.c **** 
 228:.\Generated_Source\PSoC4/CapSense.c ****     for(curSensor = 0u; curSensor < CapSense_TOTAL_SENSOR_COUNT; curSensor++)
 229:.\Generated_Source\PSoC4/CapSense.c ****     {
 230:.\Generated_Source\PSoC4/CapSense.c ****         CapSense_unscannedSnsDriveMode[curSensor] = CapSense_CONNECT_INACTIVE_SNS;
 231:.\Generated_Source\PSoC4/CapSense.c ****     }
 232:.\Generated_Source\PSoC4/CapSense.c **** 
 233:.\Generated_Source\PSoC4/CapSense.c ****     CapSense_CsdHwBlockInit();
 234:.\Generated_Source\PSoC4/CapSense.c ****     CapSense_SetShieldDelay(CapSense_SHIELD_DELAY );
 235:.\Generated_Source\PSoC4/CapSense.c **** 
 236:.\Generated_Source\PSoC4/CapSense.c ****     /* Clear all sensors */
 237:.\Generated_Source\PSoC4/CapSense.c ****     CapSense_ClearSensors();
 238:.\Generated_Source\PSoC4/CapSense.c **** }
 239:.\Generated_Source\PSoC4/CapSense.c **** 
 240:.\Generated_Source\PSoC4/CapSense.c **** /*******************************************************************************
 241:.\Generated_Source\PSoC4/CapSense.c **** * Function Name: CapSense_CsdHwBlockInit
 242:.\Generated_Source\PSoC4/CapSense.c **** ********************************************************************************
 243:.\Generated_Source\PSoC4/CapSense.c **** *
 244:.\Generated_Source\PSoC4/CapSense.c **** * Summary:
 245:.\Generated_Source\PSoC4/CapSense.c **** *  Initialises the hardware parameters of the CSD block
 246:.\Generated_Source\PSoC4/CapSense.c **** *
 247:.\Generated_Source\PSoC4/CapSense.c **** * Parameters:
 248:.\Generated_Source\PSoC4/CapSense.c **** *  None
 249:.\Generated_Source\PSoC4/CapSense.c **** *
 250:.\Generated_Source\PSoC4/CapSense.c **** * Return:
 251:.\Generated_Source\PSoC4/CapSense.c **** *  None
 252:.\Generated_Source\PSoC4/CapSense.c **** *
 253:.\Generated_Source\PSoC4/CapSense.c **** * Global Variables:
 254:.\Generated_Source\PSoC4/CapSense.c **** *  CapSense_csdTrim1 - Contains IDAC trim register value for Sourcing Mode.
 255:.\Generated_Source\PSoC4/CapSense.c **** *  CapSense_csdTrim2 - Contains IDAC trim register value for Sinking Mode.
 256:.\Generated_Source\PSoC4/CapSense.c **** *
 257:.\Generated_Source\PSoC4/CapSense.c **** * Side Effects:
 258:.\Generated_Source\PSoC4/CapSense.c **** *  None
 259:.\Generated_Source\PSoC4/CapSense.c **** *
 260:.\Generated_Source\PSoC4/CapSense.c **** *******************************************************************************/
ARM GAS  C:\Users\ALEXAN~1\AppData\Local\Temp\ccazldJ5.s 			page 6


 261:.\Generated_Source\PSoC4/CapSense.c **** void CapSense_CsdHwBlockInit(void)
 262:.\Generated_Source\PSoC4/CapSense.c **** {
  26              		.loc 1 262 0
  27              		.cfi_startproc
  28 0000 38B5     		push	{r3, r4, r5, lr}
  29              		.cfi_def_cfa_offset 16
  30              		.cfi_offset 3, -16
  31              		.cfi_offset 4, -12
  32              		.cfi_offset 5, -8
  33              		.cfi_offset 14, -4
 263:.\Generated_Source\PSoC4/CapSense.c ****     uint32 newRegValue;
 264:.\Generated_Source\PSoC4/CapSense.c **** 
 265:.\Generated_Source\PSoC4/CapSense.c ****         /* Set trim registers for CSD Mode */
 266:.\Generated_Source\PSoC4/CapSense.c ****     #if (CapSense_IDAC1_POLARITY == CapSense__IDAC_SINK)
 267:.\Generated_Source\PSoC4/CapSense.c ****         /* iDAC1 Sinking Mode */
 268:.\Generated_Source\PSoC4/CapSense.c ****         CapSense_csdTrim2 = (uint8)CapSense_CSD_TRIM2_REG;
 269:.\Generated_Source\PSoC4/CapSense.c ****         newRegValue = CapSense_csdTrim2;
 270:.\Generated_Source\PSoC4/CapSense.c ****         newRegValue &= CapSense_CSD_IDAC1_TRIM_MASK;
 271:.\Generated_Source\PSoC4/CapSense.c ****         newRegValue |= (uint32)((uint32)CapSense_SFLASH_CSD_TRIM2_REG & (uint32)CapSense_CSFLASH_TR
 272:.\Generated_Source\PSoC4/CapSense.c **** 
 273:.\Generated_Source\PSoC4/CapSense.c ****         #if (CapSense_IDAC_CNT == 2u)
 274:.\Generated_Source\PSoC4/CapSense.c ****             /* iDAC2 Sinking Mode */
 275:.\Generated_Source\PSoC4/CapSense.c ****             newRegValue &= CapSense_CSD_IDAC2_TRIM_MASK;
 276:.\Generated_Source\PSoC4/CapSense.c ****             newRegValue |= (uint32)((uint32)CapSense_SFLASH_CSD_TRIM2_REG & (uint32)CapSense_CSFLAS
 277:.\Generated_Source\PSoC4/CapSense.c ****         #endif /* (CapSense_IDAC_CNT == 2u) */
 278:.\Generated_Source\PSoC4/CapSense.c ****         CapSense_CSD_TRIM2_REG = newRegValue;
 279:.\Generated_Source\PSoC4/CapSense.c ****     #else
 280:.\Generated_Source\PSoC4/CapSense.c ****         /* iDAC1 Sourcing Mode */
 281:.\Generated_Source\PSoC4/CapSense.c ****         CapSense_csdTrim1 = (uint8)CapSense_CSD_TRIM1_REG;
  34              		.loc 1 281 0
  35 0002 164C     		ldr	r4, .L2
  36 0004 2368     		ldr	r3, [r4]
  37 0006 DBB2     		uxtb	r3, r3
  38 0008 154A     		ldr	r2, .L2+4
  39 000a 1370     		strb	r3, [r2]
  40              	.LVL0:
 282:.\Generated_Source\PSoC4/CapSense.c ****         newRegValue = CapSense_csdTrim1;
 283:.\Generated_Source\PSoC4/CapSense.c ****         newRegValue &= CapSense_CSD_IDAC1_TRIM_MASK;
  41              		.loc 1 283 0
  42 000c 0F20     		mov	r0, #15
  43 000e 8343     		bic	r3, r0
  44              	.LVL1:
  45 0010 191C     		mov	r1, r3
  46              	.LVL2:
 284:.\Generated_Source\PSoC4/CapSense.c ****         newRegValue |= (uint32)((uint32)CapSense_SFLASH_CSD_TRIM1_REG & (uint32)CapSense_CSFLASH_TR
  47              		.loc 1 284 0
  48 0012 144D     		ldr	r5, .L2+8
  49 0014 2A78     		ldrb	r2, [r5]
  50 0016 0F23     		mov	r3, #15
  51 0018 1340     		and	r3, r2
  52 001a 0B43     		orr	r3, r1
  53              	.LVL3:
 285:.\Generated_Source\PSoC4/CapSense.c ****         #if (CapSense_IDAC_CNT == 2u)
 286:.\Generated_Source\PSoC4/CapSense.c ****              /* iDAC2 Sourcing Mode */
 287:.\Generated_Source\PSoC4/CapSense.c ****             newRegValue &= CapSense_CSD_IDAC2_TRIM_MASK;
  54              		.loc 1 287 0
  55 001c F022     		mov	r2, #240
ARM GAS  C:\Users\ALEXAN~1\AppData\Local\Temp\ccazldJ5.s 			page 7


  56 001e 9343     		bic	r3, r2
  57              	.LVL4:
  58 0020 1A1C     		mov	r2, r3
  59              	.LVL5:
 288:.\Generated_Source\PSoC4/CapSense.c ****             newRegValue |= (uint32)((uint32)CapSense_SFLASH_CSD_TRIM1_REG & (uint32)CapSense_CSFLAS
  60              		.loc 1 288 0
  61 0022 2B78     		ldrb	r3, [r5]
  62 0024 8343     		bic	r3, r0
  63 0026 1343     		orr	r3, r2
  64              	.LVL6:
 289:.\Generated_Source\PSoC4/CapSense.c ****         #endif
 290:.\Generated_Source\PSoC4/CapSense.c ****         CapSense_CSD_TRIM1_REG = newRegValue;
  65              		.loc 1 290 0
  66 0028 2360     		str	r3, [r4]
 291:.\Generated_Source\PSoC4/CapSense.c ****     #endif /* (CapSense_IDAC1_POLARITY == CapSense__IDAC_SINK) */
 292:.\Generated_Source\PSoC4/CapSense.c **** 
 293:.\Generated_Source\PSoC4/CapSense.c ****     /* Configure CSD and IDAC */
 294:.\Generated_Source\PSoC4/CapSense.c ****     #if (CapSense_IDAC_CNT > 1u)
 295:.\Generated_Source\PSoC4/CapSense.c ****         CapSense_CSD_IDAC_REG = CapSense_DEFAULT_CSD_IDAC_CONFIG;
  67              		.loc 1 295 0
  68 002a 0F4A     		ldr	r2, .L2+12
  69 002c 0F4B     		ldr	r3, .L2+16
  70              	.LVL7:
  71 002e 1A60     		str	r2, [r3]
  72              	.LVL8:
 296:.\Generated_Source\PSoC4/CapSense.c ****         CapSense_CSD_CFG_REG = CapSense_DEFAULT_CSD_CONFIG;
  73              		.loc 1 296 0
  74 0030 0F4A     		ldr	r2, .L2+20
  75 0032 104B     		ldr	r3, .L2+24
  76 0034 1A60     		str	r2, [r3]
 297:.\Generated_Source\PSoC4/CapSense.c ****     #else
 298:.\Generated_Source\PSoC4/CapSense.c ****         CapSense_CSD_IDAC_REG &= ~(CapSense_CSD_IDAC1_MODE_MASK  | CapSense_CSD_IDAC1_DATA_MASK);
 299:.\Generated_Source\PSoC4/CapSense.c ****         CapSense_CSD_IDAC_REG |= CapSense_DEFAULT_CSD_IDAC_CONFIG;
 300:.\Generated_Source\PSoC4/CapSense.c **** 
 301:.\Generated_Source\PSoC4/CapSense.c ****         CapSense_CSD_CFG_REG &= ~(CapSense_CSD_CONFIG_MASK);
 302:.\Generated_Source\PSoC4/CapSense.c ****         CapSense_CSD_CFG_REG |= (CapSense_DEFAULT_CSD_CONFIG);
 303:.\Generated_Source\PSoC4/CapSense.c ****     #endif /* (CapSense_IDAC_CNT > 1u) */
 304:.\Generated_Source\PSoC4/CapSense.c **** 
 305:.\Generated_Source\PSoC4/CapSense.c **** 
 306:.\Generated_Source\PSoC4/CapSense.c ****     /* Connect Cmod to AMUX bus */
 307:.\Generated_Source\PSoC4/CapSense.c ****     newRegValue = CapSense_CMOD_CONNECTION_REG;
  77              		.loc 1 307 0
  78 0036 1049     		ldr	r1, .L2+28
  79 0038 0B68     		ldr	r3, [r1]
  80              	.LVL9:
 308:.\Generated_Source\PSoC4/CapSense.c ****     newRegValue &= ~(CapSense_CSD_CMOD_CONNECTION_MASK);
  81              		.loc 1 308 0
  82 003a 8343     		bic	r3, r0
  83              	.LVL10:
 309:.\Generated_Source\PSoC4/CapSense.c ****     newRegValue |= CapSense_CSD_CMOD_TO_AMUXBUS_A;
  84              		.loc 1 309 0
  85 003c 0622     		mov	r2, #6
  86 003e 1343     		orr	r3, r2
  87              	.LVL11:
 310:.\Generated_Source\PSoC4/CapSense.c ****     CapSense_CMOD_CONNECTION_REG = newRegValue;
  88              		.loc 1 310 0
  89 0040 0B60     		str	r3, [r1]
ARM GAS  C:\Users\ALEXAN~1\AppData\Local\Temp\ccazldJ5.s 			page 8


 311:.\Generated_Source\PSoC4/CapSense.c **** 
 312:.\Generated_Source\PSoC4/CapSense.c ****     /* Configure Dead Band PWM if it is enabled */
 313:.\Generated_Source\PSoC4/CapSense.c ****     #if(CapSense_CSD_4B_PWM_MODE != CapSense__PWM_OFF)
 314:.\Generated_Source\PSoC4/CapSense.c ****         CapSense_CSD_4B_PWM_REG = CapSense_DEFAULT_CSD_4B_PWM_CONFIG;
 315:.\Generated_Source\PSoC4/CapSense.c ****     #endif /* (CapSense_CSD_4B_PWM_MODE != CapSense__PWM_OFF) */
 316:.\Generated_Source\PSoC4/CapSense.c **** 
 317:.\Generated_Source\PSoC4/CapSense.c ****     /* Setup ISR */
 318:.\Generated_Source\PSoC4/CapSense.c ****     CyIntDisable(CapSense_ISR_NUMBER);
  90              		.loc 1 318 0
  91 0042 0130     		add	r0, r0, #1
  92 0044 FFF7FEFF 		bl	CyIntDisable
  93              	.LVL12:
 319:.\Generated_Source\PSoC4/CapSense.c ****     #if !defined(CY_EXTERNAL_INTERRUPT_CONFIG)
 320:.\Generated_Source\PSoC4/CapSense.c ****         (void)CyIntSetVector(CapSense_ISR_NUMBER, &CapSense_ISR);
  94              		.loc 1 320 0
  95 0048 1020     		mov	r0, #16
  96 004a 0C49     		ldr	r1, .L2+32
  97 004c FFF7FEFF 		bl	CyIntSetVector
  98              	.LVL13:
 321:.\Generated_Source\PSoC4/CapSense.c ****         CyIntSetPriority(CapSense_ISR_NUMBER, CapSense_ISR_PRIORITY);
  99              		.loc 1 321 0
 100 0050 1020     		mov	r0, #16
 101 0052 0321     		mov	r1, #3
 102 0054 FFF7FEFF 		bl	CyIntSetPriority
 103              	.LVL14:
 322:.\Generated_Source\PSoC4/CapSense.c ****     #endif /* (CY_EXTERNAL_INTERRUPT_CONFIG) */
 323:.\Generated_Source\PSoC4/CapSense.c **** }
 104              		.loc 1 323 0
 105              		@ sp needed
 106 0058 38BD     		pop	{r3, r4, r5, pc}
 107              	.L3:
 108 005a C046     		.align	2
 109              	.L2:
 110 005c 00FF2840 		.word	1076428544
 111 0060 00000000 		.word	CapSense_csdTrim1
 112 0064 62F1FF0F 		.word	268431714
 113 0068 00020001 		.word	16777728
 114 006c 08002840 		.word	1076363272
 115 0070 0008A001 		.word	27265024
 116 0074 04002840 		.word	1076363268
 117 0078 00040240 		.word	1073873920
 118 007c 00000000 		.word	CapSense_ISR
 119              		.cfi_endproc
 120              	.LFE36:
 121              		.size	CapSense_CsdHwBlockInit, .-CapSense_CsdHwBlockInit
 122              		.section	.text.CapSense_Enable,"ax",%progbits
 123              		.align	2
 124              		.global	CapSense_Enable
 125              		.code	16
 126              		.thumb_func
 127              		.type	CapSense_Enable, %function
 128              	CapSense_Enable:
 129              	.LFB37:
 324:.\Generated_Source\PSoC4/CapSense.c **** 
 325:.\Generated_Source\PSoC4/CapSense.c **** 
 326:.\Generated_Source\PSoC4/CapSense.c **** /*******************************************************************************
 327:.\Generated_Source\PSoC4/CapSense.c **** * Function Name: CapSense_Enable
ARM GAS  C:\Users\ALEXAN~1\AppData\Local\Temp\ccazldJ5.s 			page 9


 328:.\Generated_Source\PSoC4/CapSense.c **** ********************************************************************************
 329:.\Generated_Source\PSoC4/CapSense.c **** *
 330:.\Generated_Source\PSoC4/CapSense.c **** * Summary:
 331:.\Generated_Source\PSoC4/CapSense.c **** *  Enables the CSD block and related resources to an active mode.
 332:.\Generated_Source\PSoC4/CapSense.c **** *
 333:.\Generated_Source\PSoC4/CapSense.c **** * Parameters:
 334:.\Generated_Source\PSoC4/CapSense.c **** *  None
 335:.\Generated_Source\PSoC4/CapSense.c **** *
 336:.\Generated_Source\PSoC4/CapSense.c **** * Return:
 337:.\Generated_Source\PSoC4/CapSense.c **** *  None
 338:.\Generated_Source\PSoC4/CapSense.c **** *
 339:.\Generated_Source\PSoC4/CapSense.c **** * Global Variables:
 340:.\Generated_Source\PSoC4/CapSense.c **** *  None.
 341:.\Generated_Source\PSoC4/CapSense.c **** *
 342:.\Generated_Source\PSoC4/CapSense.c **** * Side Effects:
 343:.\Generated_Source\PSoC4/CapSense.c **** *  None
 344:.\Generated_Source\PSoC4/CapSense.c **** *
 345:.\Generated_Source\PSoC4/CapSense.c **** *******************************************************************************/
 346:.\Generated_Source\PSoC4/CapSense.c **** void CapSense_Enable(void)
 347:.\Generated_Source\PSoC4/CapSense.c **** {
 130              		.loc 1 347 0
 131              		.cfi_startproc
 132 0000 08B5     		push	{r3, lr}
 133              		.cfi_def_cfa_offset 8
 134              		.cfi_offset 3, -8
 135              		.cfi_offset 14, -4
 348:.\Generated_Source\PSoC4/CapSense.c ****     uint32 newRegValue;
 349:.\Generated_Source\PSoC4/CapSense.c **** 
 350:.\Generated_Source\PSoC4/CapSense.c ****     /* Enable Clocks */
 351:.\Generated_Source\PSoC4/CapSense.c ****     CapSense_SenseClk_Stop();
 136              		.loc 1 351 0
 137 0002 FFF7FEFF 		bl	CapSense_SenseClk_Stop
 138              	.LVL15:
 352:.\Generated_Source\PSoC4/CapSense.c ****     CapSense_SampleClk_Stop();
 139              		.loc 1 352 0
 140 0006 FFF7FEFF 		bl	CapSense_SampleClk_Stop
 141              	.LVL16:
 353:.\Generated_Source\PSoC4/CapSense.c **** 
 354:.\Generated_Source\PSoC4/CapSense.c ****     CapSense_SampleClk_SetDividerValue((uint16)CapSense_INITIAL_CLK_DIVIDER);
 142              		.loc 1 354 0
 143 000a 0020     		mov	r0, #0
 144 000c 0021     		mov	r1, #0
 145 000e FFF7FEFF 		bl	CapSense_SampleClk_SetFractionalDividerRegister
 146              	.LVL17:
 355:.\Generated_Source\PSoC4/CapSense.c ****     CapSense_SenseClk_SetDividerValue((uint16)CapSense_INITIAL_CLK_DIVIDER);
 147              		.loc 1 355 0
 148 0012 0020     		mov	r0, #0
 149 0014 0021     		mov	r1, #0
 150 0016 FFF7FEFF 		bl	CapSense_SenseClk_SetFractionalDividerRegister
 151              	.LVL18:
 356:.\Generated_Source\PSoC4/CapSense.c **** 
 357:.\Generated_Source\PSoC4/CapSense.c ****     #if (0u == CapSense_IS_M0S8PERI_BLOCK)
 358:.\Generated_Source\PSoC4/CapSense.c ****         CapSense_SenseClk_Start();
 359:.\Generated_Source\PSoC4/CapSense.c ****         CapSense_SampleClk_Start();
 360:.\Generated_Source\PSoC4/CapSense.c ****     #else
 361:.\Generated_Source\PSoC4/CapSense.c ****         CapSense_SampleClk_Start();
 152              		.loc 1 361 0
ARM GAS  C:\Users\ALEXAN~1\AppData\Local\Temp\ccazldJ5.s 			page 10


 153 001a FF20     		mov	r0, #255
 154 001c FFF7FEFF 		bl	CapSense_SampleClk_StartEx
 155              	.LVL19:
 362:.\Generated_Source\PSoC4/CapSense.c ****         CapSense_SenseClk_StartEx(CapSense_SampleClk__DIV_ID);
 156              		.loc 1 362 0
 157 0020 4020     		mov	r0, #64
 158 0022 FFF7FEFF 		bl	CapSense_SenseClk_StartEx
 159              	.LVL20:
 363:.\Generated_Source\PSoC4/CapSense.c ****     #endif /* (0u == CapSense_IS_M0S8PERI_BLOCK) */
 364:.\Generated_Source\PSoC4/CapSense.c **** 
 365:.\Generated_Source\PSoC4/CapSense.c ****     /* Enable the CSD block */
 366:.\Generated_Source\PSoC4/CapSense.c ****     newRegValue = CapSense_CSD_CFG_REG;
 160              		.loc 1 366 0
 161 0026 044A     		ldr	r2, .L5
 162 0028 1368     		ldr	r3, [r2]
 163              	.LVL21:
 367:.\Generated_Source\PSoC4/CapSense.c ****     newRegValue |= (CapSense_CSD_CFG_ENABLE | CapSense_CSD_CFG_SENSE_COMP_EN
 164              		.loc 1 367 0
 165 002a 0449     		ldr	r1, .L5+4
 166 002c 0B43     		orr	r3, r1
 167              	.LVL22:
 368:.\Generated_Source\PSoC4/CapSense.c ****                                                    | CapSense_CSD_CFG_SENSE_EN);
 369:.\Generated_Source\PSoC4/CapSense.c ****     CapSense_CSD_CFG_REG = newRegValue;
 168              		.loc 1 369 0
 169 002e 1360     		str	r3, [r2]
 370:.\Generated_Source\PSoC4/CapSense.c **** 
 371:.\Generated_Source\PSoC4/CapSense.c ****     /* Enable interrupt */
 372:.\Generated_Source\PSoC4/CapSense.c ****     CyIntEnable(CapSense_ISR_NUMBER);
 170              		.loc 1 372 0
 171 0030 1020     		mov	r0, #16
 172 0032 FFF7FEFF 		bl	CyIntEnable
 173              	.LVL23:
 373:.\Generated_Source\PSoC4/CapSense.c **** }
 174              		.loc 1 373 0
 175              		@ sp needed
 176 0036 08BD     		pop	{r3, pc}
 177              	.L6:
 178              		.align	2
 179              	.L5:
 180 0038 04002840 		.word	1076363268
 181 003c 00100880 		.word	-2146955264
 182              		.cfi_endproc
 183              	.LFE37:
 184              		.size	CapSense_Enable, .-CapSense_Enable
 185              		.section	.text.CapSense_Stop,"ax",%progbits
 186              		.align	2
 187              		.global	CapSense_Stop
 188              		.code	16
 189              		.thumb_func
 190              		.type	CapSense_Stop, %function
 191              	CapSense_Stop:
 192              	.LFB39:
 374:.\Generated_Source\PSoC4/CapSense.c **** 
 375:.\Generated_Source\PSoC4/CapSense.c **** 
 376:.\Generated_Source\PSoC4/CapSense.c **** /*******************************************************************************
 377:.\Generated_Source\PSoC4/CapSense.c **** * Function Name: CapSense_Start
 378:.\Generated_Source\PSoC4/CapSense.c **** ********************************************************************************
ARM GAS  C:\Users\ALEXAN~1\AppData\Local\Temp\ccazldJ5.s 			page 11


 379:.\Generated_Source\PSoC4/CapSense.c **** *
 380:.\Generated_Source\PSoC4/CapSense.c **** * Summary:
 381:.\Generated_Source\PSoC4/CapSense.c **** *  This is the preferred method to begin the component operation. CapSense_Start()
 382:.\Generated_Source\PSoC4/CapSense.c **** *  calls the CapSense_Init() function, and then calls the CapSense_Enable()
 383:.\Generated_Source\PSoC4/CapSense.c **** *  function. Initializes the registers and starts the CSD method of the CapSense
 384:.\Generated_Source\PSoC4/CapSense.c **** *  component. Resets all the sensors to an inactive state. Enables interrupts for
 385:.\Generated_Source\PSoC4/CapSense.c **** *  sensors scanning. When the SmartSense tuning mode is selected, the tuning procedure
 386:.\Generated_Source\PSoC4/CapSense.c **** *  is applied for all the sensors. The CapSense_Start() routine must be called before
 387:.\Generated_Source\PSoC4/CapSense.c **** *  any other API routines.
 388:.\Generated_Source\PSoC4/CapSense.c **** *
 389:.\Generated_Source\PSoC4/CapSense.c **** * Parameters:
 390:.\Generated_Source\PSoC4/CapSense.c **** *  None
 391:.\Generated_Source\PSoC4/CapSense.c **** *
 392:.\Generated_Source\PSoC4/CapSense.c **** * Return:
 393:.\Generated_Source\PSoC4/CapSense.c **** *  None
 394:.\Generated_Source\PSoC4/CapSense.c **** *
 395:.\Generated_Source\PSoC4/CapSense.c **** * Global Variables:
 396:.\Generated_Source\PSoC4/CapSense.c **** *   CapSense_initVar - used to check the initial configuration,
 397:.\Generated_Source\PSoC4/CapSense.c **** *   modified on the first function call.
 398:.\Generated_Source\PSoC4/CapSense.c **** *  CapSense_lowLevelTuningDone - Used to notify the Tuner GUI that
 399:.\Generated_Source\PSoC4/CapSense.c **** *   tuning of the scanning parameters is done.
 400:.\Generated_Source\PSoC4/CapSense.c **** *
 401:.\Generated_Source\PSoC4/CapSense.c **** * Side Effects:
 402:.\Generated_Source\PSoC4/CapSense.c **** *  None
 403:.\Generated_Source\PSoC4/CapSense.c **** *
 404:.\Generated_Source\PSoC4/CapSense.c **** *******************************************************************************/
 405:.\Generated_Source\PSoC4/CapSense.c **** void CapSense_Start(void)
 406:.\Generated_Source\PSoC4/CapSense.c **** {
 407:.\Generated_Source\PSoC4/CapSense.c **** 
 408:.\Generated_Source\PSoC4/CapSense.c ****     static uint8 CapSense_initVar = 0u;
 409:.\Generated_Source\PSoC4/CapSense.c **** 
 410:.\Generated_Source\PSoC4/CapSense.c ****     #if((0u != CapSense_AUTOCALIBRATION_ENABLE) && (CapSense_TUNING_METHOD != CapSense__TUNING_AUTO
 411:.\Generated_Source\PSoC4/CapSense.c ****         uint32 curSensor;
 412:.\Generated_Source\PSoC4/CapSense.c ****         uint32 rawLevel;
 413:.\Generated_Source\PSoC4/CapSense.c ****         uint32 widget;
 414:.\Generated_Source\PSoC4/CapSense.c ****     #endif /* ((0u != CapSense_AUTOCALIBRATION_ENABLE) && (CapSense_TUNING_METHOD != CapSense__TUNI
 415:.\Generated_Source\PSoC4/CapSense.c **** 
 416:.\Generated_Source\PSoC4/CapSense.c ****     if (CapSense_initVar == 0u)
 417:.\Generated_Source\PSoC4/CapSense.c ****     {
 418:.\Generated_Source\PSoC4/CapSense.c ****         CapSense_Init();
 419:.\Generated_Source\PSoC4/CapSense.c ****         CapSense_initVar = 1u;
 420:.\Generated_Source\PSoC4/CapSense.c ****     }
 421:.\Generated_Source\PSoC4/CapSense.c ****     CapSense_Enable();
 422:.\Generated_Source\PSoC4/CapSense.c **** 
 423:.\Generated_Source\PSoC4/CapSense.c ****     /* AutoTunning start */
 424:.\Generated_Source\PSoC4/CapSense.c ****     #if(CapSense_TUNING_METHOD == CapSense__TUNING_AUTO)
 425:.\Generated_Source\PSoC4/CapSense.c ****         #if(0u != CapSense_CSHL_API_GENERATE)
 426:.\Generated_Source\PSoC4/CapSense.c ****             CapSense_AutoTune();
 427:.\Generated_Source\PSoC4/CapSense.c ****             CapSense_lowLevelTuningDone = 1u;
 428:.\Generated_Source\PSoC4/CapSense.c ****         #endif /* (0u != CapSense_CSHL_API_GENERATE) */
 429:.\Generated_Source\PSoC4/CapSense.c ****     #else
 430:.\Generated_Source\PSoC4/CapSense.c ****         #if(0u != CapSense_AUTOCALIBRATION_ENABLE)
 431:.\Generated_Source\PSoC4/CapSense.c **** 
 432:.\Generated_Source\PSoC4/CapSense.c ****             #if(CapSense_IDAC_CNT > 1u)
 433:.\Generated_Source\PSoC4/CapSense.c ****                 CapSense_CSD_IDAC_REG &= ~(CapSense_CSD_IDAC2_MODE_MASK);
 434:.\Generated_Source\PSoC4/CapSense.c ****             #endif /* (CapSense_IDAC_CNT > 1u) */
 435:.\Generated_Source\PSoC4/CapSense.c **** 
ARM GAS  C:\Users\ALEXAN~1\AppData\Local\Temp\ccazldJ5.s 			page 12


 436:.\Generated_Source\PSoC4/CapSense.c ****             for(curSensor = 0u; curSensor < CapSense_TOTAL_SCANSLOT_COUNT; curSensor++)
 437:.\Generated_Source\PSoC4/CapSense.c ****             {
 438:.\Generated_Source\PSoC4/CapSense.c ****                 widget = CapSense_widgetNumber[curSensor];
 439:.\Generated_Source\PSoC4/CapSense.c ****                 rawLevel = CapSense_widgetResolution[widget] >> CapSense_RESOLUTION_OFFSET;
 440:.\Generated_Source\PSoC4/CapSense.c **** 
 441:.\Generated_Source\PSoC4/CapSense.c ****                 /* Calibration level should be equal to 85% from scanning resolution */
 442:.\Generated_Source\PSoC4/CapSense.c ****                 rawLevel = (rawLevel * 85u) / 100u;
 443:.\Generated_Source\PSoC4/CapSense.c **** 
 444:.\Generated_Source\PSoC4/CapSense.c ****                 CapSense_CalibrateSensor(curSensor, rawLevel, CapSense_modulationIDAC);
 445:.\Generated_Source\PSoC4/CapSense.c ****             }
 446:.\Generated_Source\PSoC4/CapSense.c **** 
 447:.\Generated_Source\PSoC4/CapSense.c ****             #if(0u != CapSense_TOTAL_CENTROIDS_COUNT)
 448:.\Generated_Source\PSoC4/CapSense.c ****                 CapSense_NormalizeWidgets(CapSense_END_OF_WIDGETS_INDEX, CapSense_modulationIDAC);
 449:.\Generated_Source\PSoC4/CapSense.c ****             #endif /* (0u != CapSense_TOTAL_CENTROIDS_COUNT)  */
 450:.\Generated_Source\PSoC4/CapSense.c **** 
 451:.\Generated_Source\PSoC4/CapSense.c ****             #if(CapSense_IDAC_CNT > 1u)
 452:.\Generated_Source\PSoC4/CapSense.c ****                 for(curSensor = 0u; curSensor < CapSense_TOTAL_SCANSLOT_COUNT; curSensor++)
 453:.\Generated_Source\PSoC4/CapSense.c ****                 {
 454:.\Generated_Source\PSoC4/CapSense.c ****                     CapSense_compensationIDAC[curSensor] = CapSense_modulationIDAC[curSensor] / 2u;
 455:.\Generated_Source\PSoC4/CapSense.c ****                     CapSense_modulationIDAC[curSensor] = (CapSense_modulationIDAC[curSensor] + 1u) 
 456:.\Generated_Source\PSoC4/CapSense.c ****                 }
 457:.\Generated_Source\PSoC4/CapSense.c ****                 CapSense_CSD_IDAC_REG |= CapSense_CSD_IDAC2_MODE_FIXED;
 458:.\Generated_Source\PSoC4/CapSense.c ****             #endif /* (CapSense_IDAC_CNT > 1u) */
 459:.\Generated_Source\PSoC4/CapSense.c **** 
 460:.\Generated_Source\PSoC4/CapSense.c ****         #endif /* (0u != CapSense_AUTOCALIBRATION_ENABLE) */
 461:.\Generated_Source\PSoC4/CapSense.c **** 
 462:.\Generated_Source\PSoC4/CapSense.c ****     #endif /* ((CapSense_TUNING_METHOD == CapSense__TUNING_AUTO) */
 463:.\Generated_Source\PSoC4/CapSense.c **** 
 464:.\Generated_Source\PSoC4/CapSense.c ****     /* Initialize Advanced Centroid */
 465:.\Generated_Source\PSoC4/CapSense.c ****     #if(CapSense_TOTAL_TRACKPAD_GESTURES_COUNT > 0u)
 466:.\Generated_Source\PSoC4/CapSense.c ****         CapSense_AdvancedCentroidInit();
 467:.\Generated_Source\PSoC4/CapSense.c ****     #endif /* (CapSense_TOTAL_TRACKPAD_GESTURES_COUNT > 0u) */
 468:.\Generated_Source\PSoC4/CapSense.c **** 
 469:.\Generated_Source\PSoC4/CapSense.c ****     /* Connect sense comparator input to AMUXA */
 470:.\Generated_Source\PSoC4/CapSense.c ****     CapSense_CSD_CFG_REG |= CapSense_CSD_CFG_SENSE_INSEL;
 471:.\Generated_Source\PSoC4/CapSense.c **** }
 472:.\Generated_Source\PSoC4/CapSense.c **** 
 473:.\Generated_Source\PSoC4/CapSense.c **** 
 474:.\Generated_Source\PSoC4/CapSense.c **** /*******************************************************************************
 475:.\Generated_Source\PSoC4/CapSense.c **** * Function Name: CapSense_Stop
 476:.\Generated_Source\PSoC4/CapSense.c **** ********************************************************************************
 477:.\Generated_Source\PSoC4/CapSense.c **** *
 478:.\Generated_Source\PSoC4/CapSense.c **** * Summary:
 479:.\Generated_Source\PSoC4/CapSense.c **** *  Stops the sensor scanning, disables component interrupts, and resets all the
 480:.\Generated_Source\PSoC4/CapSense.c **** *  sensors to an inactive state. Disables the Active mode power template bits for
 481:.\Generated_Source\PSoC4/CapSense.c **** *  the subcomponents used within CapSense.
 482:.\Generated_Source\PSoC4/CapSense.c **** *
 483:.\Generated_Source\PSoC4/CapSense.c **** * Parameters:
 484:.\Generated_Source\PSoC4/CapSense.c **** *  None
 485:.\Generated_Source\PSoC4/CapSense.c **** *
 486:.\Generated_Source\PSoC4/CapSense.c **** * Return:
 487:.\Generated_Source\PSoC4/CapSense.c **** *  None
 488:.\Generated_Source\PSoC4/CapSense.c **** *
 489:.\Generated_Source\PSoC4/CapSense.c **** * Global Variables:
 490:.\Generated_Source\PSoC4/CapSense.c **** *  CapSense_csdTrim1 - Contains the IDAC trim register value for the Sourcing Mode.
 491:.\Generated_Source\PSoC4/CapSense.c **** *  CapSense_csdTrim2 - Contains the IDAC trim register value for vSinking Mode.
 492:.\Generated_Source\PSoC4/CapSense.c **** *
ARM GAS  C:\Users\ALEXAN~1\AppData\Local\Temp\ccazldJ5.s 			page 13


 493:.\Generated_Source\PSoC4/CapSense.c **** * Side Effects:
 494:.\Generated_Source\PSoC4/CapSense.c **** *  This function should be called after scans are completed.
 495:.\Generated_Source\PSoC4/CapSense.c **** *
 496:.\Generated_Source\PSoC4/CapSense.c **** *******************************************************************************/
 497:.\Generated_Source\PSoC4/CapSense.c **** void CapSense_Stop(void)
 498:.\Generated_Source\PSoC4/CapSense.c **** {
 193              		.loc 1 498 0
 194              		.cfi_startproc
 195 0000 08B5     		push	{r3, lr}
 196              		.cfi_def_cfa_offset 8
 197              		.cfi_offset 3, -8
 198              		.cfi_offset 14, -4
 499:.\Generated_Source\PSoC4/CapSense.c ****     /* Disable interrupt */
 500:.\Generated_Source\PSoC4/CapSense.c ****     CyIntDisable(CapSense_ISR_NUMBER);
 199              		.loc 1 500 0
 200 0002 1020     		mov	r0, #16
 201 0004 FFF7FEFF 		bl	CyIntDisable
 202              	.LVL24:
 501:.\Generated_Source\PSoC4/CapSense.c **** 
 502:.\Generated_Source\PSoC4/CapSense.c ****     CapSense_CSD_CFG_REG &= ~(CapSense_CSD_CFG_SENSE_COMP_EN | CapSense_CSD_CFG_SENSE_EN);
 203              		.loc 1 502 0
 204 0008 064A     		ldr	r2, .L8
 205 000a 1168     		ldr	r1, [r2]
 206 000c 064B     		ldr	r3, .L8+4
 207 000e 0B40     		and	r3, r1
 208 0010 1360     		str	r3, [r2]
 503:.\Generated_Source\PSoC4/CapSense.c **** 
 504:.\Generated_Source\PSoC4/CapSense.c ****     #if(CapSense_IDAC_CNT == 2u)
 505:.\Generated_Source\PSoC4/CapSense.c ****         CapSense_CSD_CFG_REG &= ~(CapSense_CSD_CFG_ENABLE);
 209              		.loc 1 505 0
 210 0012 1368     		ldr	r3, [r2]
 211 0014 5B00     		lsl	r3, r3, #1
 212 0016 5B08     		lsr	r3, r3, #1
 213 0018 1360     		str	r3, [r2]
 506:.\Generated_Source\PSoC4/CapSense.c ****     #endif /* (CapSense_IDAC_CNT == 2u) */
 507:.\Generated_Source\PSoC4/CapSense.c **** 
 508:.\Generated_Source\PSoC4/CapSense.c ****     /* Disable the Clocks */
 509:.\Generated_Source\PSoC4/CapSense.c ****     CapSense_SenseClk_Stop();
 214              		.loc 1 509 0
 215 001a FFF7FEFF 		bl	CapSense_SenseClk_Stop
 216              	.LVL25:
 510:.\Generated_Source\PSoC4/CapSense.c ****     CapSense_SampleClk_Stop();
 217              		.loc 1 510 0
 218 001e FFF7FEFF 		bl	CapSense_SampleClk_Stop
 219              	.LVL26:
 511:.\Generated_Source\PSoC4/CapSense.c **** }
 220              		.loc 1 511 0
 221              		@ sp needed
 222 0022 08BD     		pop	{r3, pc}
 223              	.L9:
 224              		.align	2
 225              	.L8:
 226 0024 04002840 		.word	1076363268
 227 0028 FFEFF7FF 		.word	-528385
 228              		.cfi_endproc
 229              	.LFE39:
 230              		.size	CapSense_Stop, .-CapSense_Stop
ARM GAS  C:\Users\ALEXAN~1\AppData\Local\Temp\ccazldJ5.s 			page 14


 231              		.section	.text.CapSense_IsBusy,"ax",%progbits
 232              		.align	2
 233              		.global	CapSense_IsBusy
 234              		.code	16
 235              		.thumb_func
 236              		.type	CapSense_IsBusy, %function
 237              	CapSense_IsBusy:
 238              	.LFB44:
 512:.\Generated_Source\PSoC4/CapSense.c **** 
 513:.\Generated_Source\PSoC4/CapSense.c **** 
 514:.\Generated_Source\PSoC4/CapSense.c **** /*******************************************************************************
 515:.\Generated_Source\PSoC4/CapSense.c **** * Function Name: CapSense_FindNextSensor
 516:.\Generated_Source\PSoC4/CapSense.c **** ********************************************************************************
 517:.\Generated_Source\PSoC4/CapSense.c **** *
 518:.\Generated_Source\PSoC4/CapSense.c **** * Summary:
 519:.\Generated_Source\PSoC4/CapSense.c **** *  Finds the next sensor to scan.
 520:.\Generated_Source\PSoC4/CapSense.c **** *
 521:.\Generated_Source\PSoC4/CapSense.c **** * Parameters:
 522:.\Generated_Source\PSoC4/CapSense.c **** *  snsIndex:  Current index of sensor.
 523:.\Generated_Source\PSoC4/CapSense.c **** *
 524:.\Generated_Source\PSoC4/CapSense.c **** * Return:
 525:.\Generated_Source\PSoC4/CapSense.c **** *  Returns the next sensor index to scan.
 526:.\Generated_Source\PSoC4/CapSense.c **** *
 527:.\Generated_Source\PSoC4/CapSense.c **** * Global Variables:
 528:.\Generated_Source\PSoC4/CapSense.c **** *  CapSense_sensorEnableMask[] - used to store bit masks of the enabled sensors.
 529:.\Generated_Source\PSoC4/CapSense.c **** *
 530:.\Generated_Source\PSoC4/CapSense.c **** * Side Effects:
 531:.\Generated_Source\PSoC4/CapSense.c **** *  This function affects the  current scanning and should not
 532:.\Generated_Source\PSoC4/CapSense.c **** *  be used outside the component.
 533:.\Generated_Source\PSoC4/CapSense.c **** *
 534:.\Generated_Source\PSoC4/CapSense.c **** *******************************************************************************/
 535:.\Generated_Source\PSoC4/CapSense.c **** uint8 CapSense_FindNextSensor(uint8 snsIndex)
 536:.\Generated_Source\PSoC4/CapSense.c **** {
 537:.\Generated_Source\PSoC4/CapSense.c ****     uint32 enableFlag;
 538:.\Generated_Source\PSoC4/CapSense.c **** 
 539:.\Generated_Source\PSoC4/CapSense.c ****     /* Check if sensor enabled */
 540:.\Generated_Source\PSoC4/CapSense.c ****     do
 541:.\Generated_Source\PSoC4/CapSense.c ****     {
 542:.\Generated_Source\PSoC4/CapSense.c ****         /* Proceed with next sensor */
 543:.\Generated_Source\PSoC4/CapSense.c ****         snsIndex++;
 544:.\Generated_Source\PSoC4/CapSense.c ****         if(snsIndex == CapSense_TOTAL_SENSOR_COUNT)
 545:.\Generated_Source\PSoC4/CapSense.c ****         {
 546:.\Generated_Source\PSoC4/CapSense.c ****             break;
 547:.\Generated_Source\PSoC4/CapSense.c ****         }
 548:.\Generated_Source\PSoC4/CapSense.c ****         enableFlag = CapSense_GetBitValue(CapSense_sensorEnableMask, (uint32)snsIndex);
 549:.\Generated_Source\PSoC4/CapSense.c ****     }
 550:.\Generated_Source\PSoC4/CapSense.c ****     while(enableFlag == 0u);
 551:.\Generated_Source\PSoC4/CapSense.c **** 
 552:.\Generated_Source\PSoC4/CapSense.c ****     return ((uint8)snsIndex);
 553:.\Generated_Source\PSoC4/CapSense.c **** }
 554:.\Generated_Source\PSoC4/CapSense.c **** 
 555:.\Generated_Source\PSoC4/CapSense.c **** 
 556:.\Generated_Source\PSoC4/CapSense.c **** /*******************************************************************************
 557:.\Generated_Source\PSoC4/CapSense.c **** * Function Name: CapSense_ScanSensor
 558:.\Generated_Source\PSoC4/CapSense.c **** ********************************************************************************
 559:.\Generated_Source\PSoC4/CapSense.c **** *
 560:.\Generated_Source\PSoC4/CapSense.c **** * Summary:
ARM GAS  C:\Users\ALEXAN~1\AppData\Local\Temp\ccazldJ5.s 			page 15


 561:.\Generated_Source\PSoC4/CapSense.c **** *  Sets the scan settings and starts scanning a sensor. After scanning is complete,
 562:.\Generated_Source\PSoC4/CapSense.c **** *  the ISR copies the measured sensor raw data to the global raw sensor array.
 563:.\Generated_Source\PSoC4/CapSense.c **** *  Use of the ISR ensures this function is non-blocking.
 564:.\Generated_Source\PSoC4/CapSense.c **** *  Each sensor has a unique number within the sensor array.
 565:.\Generated_Source\PSoC4/CapSense.c **** *  This number is assigned by the CapSense customizer in sequence.
 566:.\Generated_Source\PSoC4/CapSense.c **** *
 567:.\Generated_Source\PSoC4/CapSense.c **** * Parameters:
 568:.\Generated_Source\PSoC4/CapSense.c **** *  sensor:  Sensor number.
 569:.\Generated_Source\PSoC4/CapSense.c **** *
 570:.\Generated_Source\PSoC4/CapSense.c **** * Return:
 571:.\Generated_Source\PSoC4/CapSense.c **** *  None
 572:.\Generated_Source\PSoC4/CapSense.c **** *
 573:.\Generated_Source\PSoC4/CapSense.c **** * Global Variables:
 574:.\Generated_Source\PSoC4/CapSense.c **** *  CapSense_csdStatusVar - used to provide the status and mode of the scanning process.
 575:.\Generated_Source\PSoC4/CapSense.c **** *  Sets the busy status(scan in progress) and mode of scan as single scan.
 576:.\Generated_Source\PSoC4/CapSense.c **** *  CapSense_sensorIndex - used to store a sensor scanning sensor number.
 577:.\Generated_Source\PSoC4/CapSense.c **** *  Sets to the provided sensor argument.
 578:.\Generated_Source\PSoC4/CapSense.c **** *
 579:.\Generated_Source\PSoC4/CapSense.c **** * Side Effects:
 580:.\Generated_Source\PSoC4/CapSense.c **** *  None
 581:.\Generated_Source\PSoC4/CapSense.c **** *
 582:.\Generated_Source\PSoC4/CapSense.c **** *******************************************************************************/
 583:.\Generated_Source\PSoC4/CapSense.c **** void CapSense_ScanSensor(uint32 sensor)
 584:.\Generated_Source\PSoC4/CapSense.c **** {
 585:.\Generated_Source\PSoC4/CapSense.c ****     /* Clears status/control variable and set sensorIndex */
 586:.\Generated_Source\PSoC4/CapSense.c ****     CapSense_csdStatusVar = 0u;
 587:.\Generated_Source\PSoC4/CapSense.c ****     CapSense_sensorIndex = (uint8)sensor;
 588:.\Generated_Source\PSoC4/CapSense.c **** 
 589:.\Generated_Source\PSoC4/CapSense.c ****     /* Start of sensor scan */
 590:.\Generated_Source\PSoC4/CapSense.c ****     CapSense_csdStatusVar = (CapSense_SW_STS_BUSY | CapSense_SW_CTRL_SINGLE_SCAN);
 591:.\Generated_Source\PSoC4/CapSense.c ****     CapSense_PreScan(sensor);
 592:.\Generated_Source\PSoC4/CapSense.c **** }
 593:.\Generated_Source\PSoC4/CapSense.c **** 
 594:.\Generated_Source\PSoC4/CapSense.c **** 
 595:.\Generated_Source\PSoC4/CapSense.c **** #if(0u != CapSense_CSHL_API_GENERATE)
 596:.\Generated_Source\PSoC4/CapSense.c **** /*******************************************************************************
 597:.\Generated_Source\PSoC4/CapSense.c **** * Function Name: CapSense_ScanWidget
 598:.\Generated_Source\PSoC4/CapSense.c **** ********************************************************************************
 599:.\Generated_Source\PSoC4/CapSense.c **** *
 600:.\Generated_Source\PSoC4/CapSense.c **** * Summary:
 601:.\Generated_Source\PSoC4/CapSense.c **** *  Sets the scan settings and starts scanning a widget.
 602:.\Generated_Source\PSoC4/CapSense.c **** *
 603:.\Generated_Source\PSoC4/CapSense.c **** * Parameters:
 604:.\Generated_Source\PSoC4/CapSense.c **** *  uint32 widget: Widget number.
 605:.\Generated_Source\PSoC4/CapSense.c **** *
 606:.\Generated_Source\PSoC4/CapSense.c **** * Return:
 607:.\Generated_Source\PSoC4/CapSense.c **** *  None
 608:.\Generated_Source\PSoC4/CapSense.c **** *
 609:.\Generated_Source\PSoC4/CapSense.c **** * Global Variables:
 610:.\Generated_Source\PSoC4/CapSense.c **** *  CapSense_csdStatusVar - used to provide the status and mode of the scanning process.
 611:.\Generated_Source\PSoC4/CapSense.c **** *  Sets the busy status(scan in progress) and clears the single scan mode.
 612:.\Generated_Source\PSoC4/CapSense.c **** *  CapSense_sensorIndex - used to store a sensor scanning sensor number.
 613:.\Generated_Source\PSoC4/CapSense.c **** *  Sets to 0xFF and provided to function CapSense_FindNextSensor or
 614:.\Generated_Source\PSoC4/CapSense.c **** *  CapSense_sensorEnableMask[] - used to store bit masks of the enabled sensors.
 615:.\Generated_Source\PSoC4/CapSense.c **** *  CapSense_sensorEnableMaskBackup[] - used to backup bit masks of the enabled
 616:.\Generated_Source\PSoC4/CapSense.c **** *   sensors.
 617:.\Generated_Source\PSoC4/CapSense.c **** *
ARM GAS  C:\Users\ALEXAN~1\AppData\Local\Temp\ccazldJ5.s 			page 16


 618:.\Generated_Source\PSoC4/CapSense.c **** * Side Effects:
 619:.\Generated_Source\PSoC4/CapSense.c **** *  None
 620:.\Generated_Source\PSoC4/CapSense.c **** *
 621:.\Generated_Source\PSoC4/CapSense.c **** *******************************************************************************/
 622:.\Generated_Source\PSoC4/CapSense.c **** void CapSense_ScanWidget(uint32 widget)
 623:.\Generated_Source\PSoC4/CapSense.c **** {
 624:.\Generated_Source\PSoC4/CapSense.c ****     uint32 sensorsPerWidget;
 625:.\Generated_Source\PSoC4/CapSense.c ****     uint32 lastSensor;
 626:.\Generated_Source\PSoC4/CapSense.c ****     uint32 snsIndex;
 627:.\Generated_Source\PSoC4/CapSense.c **** 
 628:.\Generated_Source\PSoC4/CapSense.c ****     /* Get first sensor in widget */
 629:.\Generated_Source\PSoC4/CapSense.c ****     CapSense_sensorIndex = CapSense_rawDataIndex[widget];
 630:.\Generated_Source\PSoC4/CapSense.c **** 
 631:.\Generated_Source\PSoC4/CapSense.c ****     /* Get number of sensors in widget */
 632:.\Generated_Source\PSoC4/CapSense.c ****     sensorsPerWidget = CapSense_numberOfSensors[widget];
 633:.\Generated_Source\PSoC4/CapSense.c **** 
 634:.\Generated_Source\PSoC4/CapSense.c ****     /* Check if generic Sensor */
 635:.\Generated_Source\PSoC4/CapSense.c ****     if(sensorsPerWidget == 0u)
 636:.\Generated_Source\PSoC4/CapSense.c ****     {
 637:.\Generated_Source\PSoC4/CapSense.c ****         sensorsPerWidget = 1u;
 638:.\Generated_Source\PSoC4/CapSense.c ****     }
 639:.\Generated_Source\PSoC4/CapSense.c **** 
 640:.\Generated_Source\PSoC4/CapSense.c ****     /* Get last sensor in widget */
 641:.\Generated_Source\PSoC4/CapSense.c ****     lastSensor = (CapSense_rawDataIndex[widget] + sensorsPerWidget) - 1u;
 642:.\Generated_Source\PSoC4/CapSense.c **** 
 643:.\Generated_Source\PSoC4/CapSense.c ****     /* Backup sensorEnableMask array */
 644:.\Generated_Source\PSoC4/CapSense.c ****     for(snsIndex = 0u; snsIndex < CapSense_TOTAL_SENSOR_MASK; snsIndex++)
 645:.\Generated_Source\PSoC4/CapSense.c ****     {
 646:.\Generated_Source\PSoC4/CapSense.c ****         /* Backup sensorEnableMask array */
 647:.\Generated_Source\PSoC4/CapSense.c ****         CapSense_sensorEnableMaskBackup[snsIndex] = CapSense_sensorEnableMask[snsIndex];
 648:.\Generated_Source\PSoC4/CapSense.c ****     }
 649:.\Generated_Source\PSoC4/CapSense.c **** 
 650:.\Generated_Source\PSoC4/CapSense.c ****     /* Update sensorEnableMask to scan the sensors that belong to widget */
 651:.\Generated_Source\PSoC4/CapSense.c ****     for(snsIndex = 0u; snsIndex < CapSense_TOTAL_SENSOR_COUNT; snsIndex++)
 652:.\Generated_Source\PSoC4/CapSense.c ****     {
 653:.\Generated_Source\PSoC4/CapSense.c ****         /* Update sensorEnableMask array bits to scan the widget only */
 654:.\Generated_Source\PSoC4/CapSense.c ****         if((snsIndex >= CapSense_sensorIndex) && (snsIndex <= lastSensor))
 655:.\Generated_Source\PSoC4/CapSense.c ****         {
 656:.\Generated_Source\PSoC4/CapSense.c ****             /* Set sensor bit to scan */
 657:.\Generated_Source\PSoC4/CapSense.c ****             CapSense_SetBitValue(CapSense_sensorEnableMask, snsIndex, 1u);
 658:.\Generated_Source\PSoC4/CapSense.c ****         }
 659:.\Generated_Source\PSoC4/CapSense.c ****         else
 660:.\Generated_Source\PSoC4/CapSense.c ****         {
 661:.\Generated_Source\PSoC4/CapSense.c ****             /* Reset sensor bit to do not scan */
 662:.\Generated_Source\PSoC4/CapSense.c ****             CapSense_SetBitValue(CapSense_sensorEnableMask, snsIndex, 0u);
 663:.\Generated_Source\PSoC4/CapSense.c ****         }
 664:.\Generated_Source\PSoC4/CapSense.c ****     }
 665:.\Generated_Source\PSoC4/CapSense.c **** 
 666:.\Generated_Source\PSoC4/CapSense.c ****     /* Check end of scan condition */
 667:.\Generated_Source\PSoC4/CapSense.c ****     if(CapSense_sensorIndex < CapSense_TOTAL_SENSOR_COUNT)
 668:.\Generated_Source\PSoC4/CapSense.c ****     {
 669:.\Generated_Source\PSoC4/CapSense.c ****         /* Set widget busy bit in status/control variable*/
 670:.\Generated_Source\PSoC4/CapSense.c ****         CapSense_csdStatusVar = (CapSense_SW_STS_BUSY | CapSense_SW_CTRL_WIDGET_SCAN);
 671:.\Generated_Source\PSoC4/CapSense.c ****         /* Scan first sensor of widget*/
 672:.\Generated_Source\PSoC4/CapSense.c ****         CapSense_PreScan((uint32)CapSense_sensorIndex);
 673:.\Generated_Source\PSoC4/CapSense.c ****     }
 674:.\Generated_Source\PSoC4/CapSense.c **** }
ARM GAS  C:\Users\ALEXAN~1\AppData\Local\Temp\ccazldJ5.s 			page 17


 675:.\Generated_Source\PSoC4/CapSense.c **** #endif /* (0u != CapSense_CSHL_API_GENERATE) */
 676:.\Generated_Source\PSoC4/CapSense.c **** 
 677:.\Generated_Source\PSoC4/CapSense.c **** 
 678:.\Generated_Source\PSoC4/CapSense.c **** /*******************************************************************************
 679:.\Generated_Source\PSoC4/CapSense.c **** * Function Name: CapSense_ScanEnableWidgets
 680:.\Generated_Source\PSoC4/CapSense.c **** ********************************************************************************
 681:.\Generated_Source\PSoC4/CapSense.c **** *
 682:.\Generated_Source\PSoC4/CapSense.c **** * Summary:
 683:.\Generated_Source\PSoC4/CapSense.c **** *  This is the preferred method to scan all of the enabled widgets.
 684:.\Generated_Source\PSoC4/CapSense.c **** *  The API starts scanning a sensor within the enabled widgets.
 685:.\Generated_Source\PSoC4/CapSense.c **** *  The ISR continues scanning the sensors until all the enabled widgets are scanned.
 686:.\Generated_Source\PSoC4/CapSense.c **** *  Use of the ISR ensures this function is non-blocking.
 687:.\Generated_Source\PSoC4/CapSense.c **** *  All the widgets are enabled by default except proximity widgets.
 688:.\Generated_Source\PSoC4/CapSense.c **** *  The proximity widgets must be manually enabled as their long scan time
 689:.\Generated_Source\PSoC4/CapSense.c **** *  is incompatible with a fast response required of other widget types.
 690:.\Generated_Source\PSoC4/CapSense.c **** *
 691:.\Generated_Source\PSoC4/CapSense.c **** * Parameters:
 692:.\Generated_Source\PSoC4/CapSense.c **** *  None
 693:.\Generated_Source\PSoC4/CapSense.c **** *
 694:.\Generated_Source\PSoC4/CapSense.c **** * Return:
 695:.\Generated_Source\PSoC4/CapSense.c **** *  None
 696:.\Generated_Source\PSoC4/CapSense.c **** *
 697:.\Generated_Source\PSoC4/CapSense.c **** * Global Variables:
 698:.\Generated_Source\PSoC4/CapSense.c **** *  CapSense_csdStatusVar - used to provide the status and mode of the scanning process.
 699:.\Generated_Source\PSoC4/CapSense.c **** *  Sets the busy status(scan in progress) and clears the single scan mode.
 700:.\Generated_Source\PSoC4/CapSense.c **** *  CapSense_sensorIndex - used to store a sensor scanning sensor number.
 701:.\Generated_Source\PSoC4/CapSense.c **** *  Sets to 0xFF and provided to function CapSense_FindNextSensor or
 702:.\Generated_Source\PSoC4/CapSense.c **** *
 703:.\Generated_Source\PSoC4/CapSense.c **** * Side Effects:
 704:.\Generated_Source\PSoC4/CapSense.c **** *  None
 705:.\Generated_Source\PSoC4/CapSense.c **** *
 706:.\Generated_Source\PSoC4/CapSense.c **** *******************************************************************************/
 707:.\Generated_Source\PSoC4/CapSense.c **** void CapSense_ScanEnabledWidgets(void)
 708:.\Generated_Source\PSoC4/CapSense.c **** {
 709:.\Generated_Source\PSoC4/CapSense.c ****     /* Clears status/control variable and set sensorIndex */
 710:.\Generated_Source\PSoC4/CapSense.c ****     CapSense_csdStatusVar = 0u;
 711:.\Generated_Source\PSoC4/CapSense.c ****     CapSense_sensorIndex = 0xFFu;
 712:.\Generated_Source\PSoC4/CapSense.c **** 
 713:.\Generated_Source\PSoC4/CapSense.c ****     /* Find next sensor */
 714:.\Generated_Source\PSoC4/CapSense.c ****     CapSense_sensorIndex = (uint8)CapSense_FindNextSensor(CapSense_sensorIndex);
 715:.\Generated_Source\PSoC4/CapSense.c **** 
 716:.\Generated_Source\PSoC4/CapSense.c ****     /* Check end of scan condition */
 717:.\Generated_Source\PSoC4/CapSense.c ****     if(CapSense_sensorIndex < CapSense_TOTAL_SENSOR_COUNT)
 718:.\Generated_Source\PSoC4/CapSense.c ****     {
 719:.\Generated_Source\PSoC4/CapSense.c ****         CapSense_csdStatusVar |= CapSense_SW_STS_BUSY;
 720:.\Generated_Source\PSoC4/CapSense.c ****         CapSense_PreScan((uint32)CapSense_sensorIndex);
 721:.\Generated_Source\PSoC4/CapSense.c ****     }
 722:.\Generated_Source\PSoC4/CapSense.c **** }
 723:.\Generated_Source\PSoC4/CapSense.c **** 
 724:.\Generated_Source\PSoC4/CapSense.c **** 
 725:.\Generated_Source\PSoC4/CapSense.c **** /*******************************************************************************
 726:.\Generated_Source\PSoC4/CapSense.c **** * Function Name: CapSense_IsBusy
 727:.\Generated_Source\PSoC4/CapSense.c **** ********************************************************************************
 728:.\Generated_Source\PSoC4/CapSense.c **** *
 729:.\Generated_Source\PSoC4/CapSense.c **** * Summary:
 730:.\Generated_Source\PSoC4/CapSense.c **** *  Returns the state of the CapSense component. 1 means that scanning in
 731:.\Generated_Source\PSoC4/CapSense.c **** *  progress and 0 means that scanning is complete.
ARM GAS  C:\Users\ALEXAN~1\AppData\Local\Temp\ccazldJ5.s 			page 18


 732:.\Generated_Source\PSoC4/CapSense.c **** *
 733:.\Generated_Source\PSoC4/CapSense.c **** * Parameters:
 734:.\Generated_Source\PSoC4/CapSense.c **** *  None
 735:.\Generated_Source\PSoC4/CapSense.c **** *
 736:.\Generated_Source\PSoC4/CapSense.c **** * Return:
 737:.\Generated_Source\PSoC4/CapSense.c **** *  Returns the state of scanning. 1 - scanning in progress, 0 - scanning
 738:.\Generated_Source\PSoC4/CapSense.c **** *  completed.
 739:.\Generated_Source\PSoC4/CapSense.c **** *
 740:.\Generated_Source\PSoC4/CapSense.c **** * Global Variables:
 741:.\Generated_Source\PSoC4/CapSense.c **** *  CapSense_csdStatusVar - used to provide the status and mode of the scanning process.
 742:.\Generated_Source\PSoC4/CapSense.c **** *  Checks the busy status.
 743:.\Generated_Source\PSoC4/CapSense.c **** *
 744:.\Generated_Source\PSoC4/CapSense.c **** * Side Effects:
 745:.\Generated_Source\PSoC4/CapSense.c **** *  None
 746:.\Generated_Source\PSoC4/CapSense.c **** *
 747:.\Generated_Source\PSoC4/CapSense.c **** *******************************************************************************/
 748:.\Generated_Source\PSoC4/CapSense.c **** uint32 CapSense_IsBusy(void)
 749:.\Generated_Source\PSoC4/CapSense.c **** {
 239              		.loc 1 749 0
 240              		.cfi_startproc
 750:.\Generated_Source\PSoC4/CapSense.c ****     return ((uint32)((0u != (CapSense_csdStatusVar & CapSense_SW_STS_BUSY)) ? 1u : 0u));
 241              		.loc 1 750 0
 242 0000 024B     		ldr	r3, .L11
 243 0002 1878     		ldrb	r0, [r3]
 244 0004 0123     		mov	r3, #1
 245 0006 1840     		and	r0, r3
 751:.\Generated_Source\PSoC4/CapSense.c **** }
 246              		.loc 1 751 0
 247              		@ sp needed
 248 0008 7047     		bx	lr
 249              	.L12:
 250 000a C046     		.align	2
 251              	.L11:
 252 000c 00000000 		.word	.LANCHOR0
 253              		.cfi_endproc
 254              	.LFE44:
 255              		.size	CapSense_IsBusy, .-CapSense_IsBusy
 256              		.section	.text.CapSense_ReadSensorRaw,"ax",%progbits
 257              		.align	2
 258              		.global	CapSense_ReadSensorRaw
 259              		.code	16
 260              		.thumb_func
 261              		.type	CapSense_ReadSensorRaw, %function
 262              	CapSense_ReadSensorRaw:
 263              	.LFB45:
 752:.\Generated_Source\PSoC4/CapSense.c **** 
 753:.\Generated_Source\PSoC4/CapSense.c **** 
 754:.\Generated_Source\PSoC4/CapSense.c **** /*******************************************************************************
 755:.\Generated_Source\PSoC4/CapSense.c **** * Function Name: CapSense_ReadSensorRaw
 756:.\Generated_Source\PSoC4/CapSense.c **** ********************************************************************************
 757:.\Generated_Source\PSoC4/CapSense.c **** *
 758:.\Generated_Source\PSoC4/CapSense.c **** * Summary:
 759:.\Generated_Source\PSoC4/CapSense.c **** *  Returns sensor raw data from the global CapSense_sensorRaw[ ] array.
 760:.\Generated_Source\PSoC4/CapSense.c **** *  Each scan sensor has a unique number within the sensor array.
 761:.\Generated_Source\PSoC4/CapSense.c **** *  This number is assigned by the CapSense customizer in sequence.
 762:.\Generated_Source\PSoC4/CapSense.c **** *  Raw data can be used to perform calculations outside of the CapSense
 763:.\Generated_Source\PSoC4/CapSense.c **** *  provided framework.
ARM GAS  C:\Users\ALEXAN~1\AppData\Local\Temp\ccazldJ5.s 			page 19


 764:.\Generated_Source\PSoC4/CapSense.c **** *
 765:.\Generated_Source\PSoC4/CapSense.c **** * Parameters:
 766:.\Generated_Source\PSoC4/CapSense.c **** *  sensor:  Sensor number.
 767:.\Generated_Source\PSoC4/CapSense.c **** *
 768:.\Generated_Source\PSoC4/CapSense.c **** * Return:
 769:.\Generated_Source\PSoC4/CapSense.c **** *  Returns the current raw data value for a defined sensor number.
 770:.\Generated_Source\PSoC4/CapSense.c **** *
 771:.\Generated_Source\PSoC4/CapSense.c **** * Global Variables:
 772:.\Generated_Source\PSoC4/CapSense.c **** *  CapSense_sensorRaw[] - used to store sensors raw data.
 773:.\Generated_Source\PSoC4/CapSense.c **** *
 774:.\Generated_Source\PSoC4/CapSense.c **** * Side Effects:
 775:.\Generated_Source\PSoC4/CapSense.c **** *  None
 776:.\Generated_Source\PSoC4/CapSense.c **** *
 777:.\Generated_Source\PSoC4/CapSense.c **** *******************************************************************************/
 778:.\Generated_Source\PSoC4/CapSense.c **** uint16 CapSense_ReadSensorRaw(uint32 sensor)
 779:.\Generated_Source\PSoC4/CapSense.c **** {
 264              		.loc 1 779 0
 265              		.cfi_startproc
 266              	.LVL27:
 780:.\Generated_Source\PSoC4/CapSense.c ****     return CapSense_sensorRaw[sensor];
 267              		.loc 1 780 0
 268 0000 4000     		lsl	r0, r0, #1
 269              	.LVL28:
 270 0002 024B     		ldr	r3, .L14
 271 0004 1818     		add	r0, r3, r0
 272 0006 8088     		ldrh	r0, [r0, #4]
 781:.\Generated_Source\PSoC4/CapSense.c **** }
 273              		.loc 1 781 0
 274              		@ sp needed
 275 0008 7047     		bx	lr
 276              	.L15:
 277 000a C046     		.align	2
 278              	.L14:
 279 000c 00000000 		.word	.LANCHOR0
 280              		.cfi_endproc
 281              	.LFE45:
 282              		.size	CapSense_ReadSensorRaw, .-CapSense_ReadSensorRaw
 283              		.section	.text.CapSense_WriteSensorRaw,"ax",%progbits
 284              		.align	2
 285              		.global	CapSense_WriteSensorRaw
 286              		.code	16
 287              		.thumb_func
 288              		.type	CapSense_WriteSensorRaw, %function
 289              	CapSense_WriteSensorRaw:
 290              	.LFB46:
 782:.\Generated_Source\PSoC4/CapSense.c **** 
 783:.\Generated_Source\PSoC4/CapSense.c **** 
 784:.\Generated_Source\PSoC4/CapSense.c **** /*******************************************************************************
 785:.\Generated_Source\PSoC4/CapSense.c **** * Function Name: CapSense_WriteSensorRaw
 786:.\Generated_Source\PSoC4/CapSense.c **** ********************************************************************************
 787:.\Generated_Source\PSoC4/CapSense.c **** *
 788:.\Generated_Source\PSoC4/CapSense.c **** * Summary:
 789:.\Generated_Source\PSoC4/CapSense.c **** *  This API writes the raw count value passed as an argument to the sensor Raw count array.
 790:.\Generated_Source\PSoC4/CapSense.c **** *
 791:.\Generated_Source\PSoC4/CapSense.c **** * Parameters:
 792:.\Generated_Source\PSoC4/CapSense.c **** *  sensor:  Sensor number.
 793:.\Generated_Source\PSoC4/CapSense.c **** *  value: Raw count value.
ARM GAS  C:\Users\ALEXAN~1\AppData\Local\Temp\ccazldJ5.s 			page 20


 794:.\Generated_Source\PSoC4/CapSense.c **** *
 795:.\Generated_Source\PSoC4/CapSense.c **** * Global Variables:
 796:.\Generated_Source\PSoC4/CapSense.c **** *  CapSense_sensorRaw[] - used to store sensors raw data.
 797:.\Generated_Source\PSoC4/CapSense.c **** *
 798:.\Generated_Source\PSoC4/CapSense.c **** * Return:
 799:.\Generated_Source\PSoC4/CapSense.c **** *  None
 800:.\Generated_Source\PSoC4/CapSense.c **** *
 801:.\Generated_Source\PSoC4/CapSense.c **** * Side Effects:
 802:.\Generated_Source\PSoC4/CapSense.c **** *  None
 803:.\Generated_Source\PSoC4/CapSense.c **** *
 804:.\Generated_Source\PSoC4/CapSense.c **** *******************************************************************************/
 805:.\Generated_Source\PSoC4/CapSense.c **** void CapSense_WriteSensorRaw(uint32 sensor, uint16 value)
 806:.\Generated_Source\PSoC4/CapSense.c **** {
 291              		.loc 1 806 0
 292              		.cfi_startproc
 293              	.LVL29:
 807:.\Generated_Source\PSoC4/CapSense.c ****     CapSense_sensorRaw[sensor] = value;
 294              		.loc 1 807 0
 295 0000 4000     		lsl	r0, r0, #1
 296              	.LVL30:
 297 0002 024B     		ldr	r3, .L17
 298 0004 1818     		add	r0, r3, r0
 299 0006 8180     		strh	r1, [r0, #4]
 808:.\Generated_Source\PSoC4/CapSense.c **** }
 300              		.loc 1 808 0
 301              		@ sp needed
 302 0008 7047     		bx	lr
 303              	.L18:
 304 000a C046     		.align	2
 305              	.L17:
 306 000c 00000000 		.word	.LANCHOR0
 307              		.cfi_endproc
 308              	.LFE46:
 309              		.size	CapSense_WriteSensorRaw, .-CapSense_WriteSensorRaw
 310              		.section	.text.CapSense_GetScanResolution,"ax",%progbits
 311              		.align	2
 312              		.global	CapSense_GetScanResolution
 313              		.code	16
 314              		.thumb_func
 315              		.type	CapSense_GetScanResolution, %function
 316              	CapSense_GetScanResolution:
 317              	.LFB47:
 809:.\Generated_Source\PSoC4/CapSense.c **** 
 810:.\Generated_Source\PSoC4/CapSense.c **** 
 811:.\Generated_Source\PSoC4/CapSense.c **** #if (CapSense_TUNING_METHOD != CapSense__TUNING_NONE)
 812:.\Generated_Source\PSoC4/CapSense.c ****     /*******************************************************************************
 813:.\Generated_Source\PSoC4/CapSense.c ****     * Function Name: CapSense_SetScanResolution
 814:.\Generated_Source\PSoC4/CapSense.c ****     ********************************************************************************
 815:.\Generated_Source\PSoC4/CapSense.c ****     *
 816:.\Generated_Source\PSoC4/CapSense.c ****     * Summary:
 817:.\Generated_Source\PSoC4/CapSense.c ****     *  Sets a value of the sensor scan resolution for a widget.
 818:.\Generated_Source\PSoC4/CapSense.c ****     *  The MIN resolution can be set 8-bit. The MAX Resolution can be set 16 bit.
 819:.\Generated_Source\PSoC4/CapSense.c ****     *  This function is not available for the tuning mode "None".
 820:.\Generated_Source\PSoC4/CapSense.c ****     *
 821:.\Generated_Source\PSoC4/CapSense.c ****     * Parameters:
 822:.\Generated_Source\PSoC4/CapSense.c ****     *  widget:     Widget index.
 823:.\Generated_Source\PSoC4/CapSense.c ****     *  resolution: Represents the resolution value. The following defines which are available in th
ARM GAS  C:\Users\ALEXAN~1\AppData\Local\Temp\ccazldJ5.s 			page 21


 824:.\Generated_Source\PSoC4/CapSense.c ****     *              CapSense.h file should be used:
 825:.\Generated_Source\PSoC4/CapSense.c ****     *              CapSense_RESOLUTION_6_BITS
 826:.\Generated_Source\PSoC4/CapSense.c ****     *              CapSense_RESOLUTION_7_BITS
 827:.\Generated_Source\PSoC4/CapSense.c ****     *              CapSense_RESOLUTION_8_BITS
 828:.\Generated_Source\PSoC4/CapSense.c ****     *              CapSense_RESOLUTION_9_BITS
 829:.\Generated_Source\PSoC4/CapSense.c ****     *              CapSense_RESOLUTION_10_BITS
 830:.\Generated_Source\PSoC4/CapSense.c ****     *              CapSense_RESOLUTION_11_BITS
 831:.\Generated_Source\PSoC4/CapSense.c ****     *              CapSense_RESOLUTION_12_BITS
 832:.\Generated_Source\PSoC4/CapSense.c ****     *              CapSense_RESOLUTION_13_BITS
 833:.\Generated_Source\PSoC4/CapSense.c ****     *              CapSense_RESOLUTION_14_BITS
 834:.\Generated_Source\PSoC4/CapSense.c ****     *              CapSense_RESOLUTION_15_BITS
 835:.\Generated_Source\PSoC4/CapSense.c ****     *              CapSense_RESOLUTION_16_BITS
 836:.\Generated_Source\PSoC4/CapSense.c ****     *
 837:.\Generated_Source\PSoC4/CapSense.c ****     * Return:
 838:.\Generated_Source\PSoC4/CapSense.c ****     *  None
 839:.\Generated_Source\PSoC4/CapSense.c ****     *
 840:.\Generated_Source\PSoC4/CapSense.c ****     * Global Variables:
 841:.\Generated_Source\PSoC4/CapSense.c ****     *  CapSense_widgetResolution[] - used to store scan resolution of each widget.
 842:.\Generated_Source\PSoC4/CapSense.c ****     *
 843:.\Generated_Source\PSoC4/CapSense.c ****     * Side Effects:
 844:.\Generated_Source\PSoC4/CapSense.c ****     *  None
 845:.\Generated_Source\PSoC4/CapSense.c ****     *
 846:.\Generated_Source\PSoC4/CapSense.c ****     *******************************************************************************/
 847:.\Generated_Source\PSoC4/CapSense.c ****     void CapSense_SetScanResolution(uint32 widget, uint32 resolution)
 848:.\Generated_Source\PSoC4/CapSense.c ****     {
 849:.\Generated_Source\PSoC4/CapSense.c ****         CapSense_widgetResolution[widget] = resolution;
 850:.\Generated_Source\PSoC4/CapSense.c ****     }
 851:.\Generated_Source\PSoC4/CapSense.c **** #endif /* (CapSense_TUNING_METHOD != CapSense__TUNING_NONE) */
 852:.\Generated_Source\PSoC4/CapSense.c **** 
 853:.\Generated_Source\PSoC4/CapSense.c **** 
 854:.\Generated_Source\PSoC4/CapSense.c **** /*******************************************************************************
 855:.\Generated_Source\PSoC4/CapSense.c **** * Function Name: CapSense_GetScanResolution
 856:.\Generated_Source\PSoC4/CapSense.c **** ********************************************************************************
 857:.\Generated_Source\PSoC4/CapSense.c **** *
 858:.\Generated_Source\PSoC4/CapSense.c **** * Summary:
 859:.\Generated_Source\PSoC4/CapSense.c **** *  Returns the resolution value for the appropriate sensor.
 860:.\Generated_Source\PSoC4/CapSense.c **** *  This function is not available for tuning mode "None".
 861:.\Generated_Source\PSoC4/CapSense.c **** *
 862:.\Generated_Source\PSoC4/CapSense.c **** * Parameters:
 863:.\Generated_Source\PSoC4/CapSense.c **** *  widget:     Widget index.
 864:.\Generated_Source\PSoC4/CapSense.c **** *
 865:.\Generated_Source\PSoC4/CapSense.c **** * Return:
 866:.\Generated_Source\PSoC4/CapSense.c **** *  resolution: Returns the resolution value for the appropriate sensor.
 867:.\Generated_Source\PSoC4/CapSense.c **** *              The resolution values are defined in the CapSense.h file
 868:.\Generated_Source\PSoC4/CapSense.c **** *              The defines are encountered below:
 869:.\Generated_Source\PSoC4/CapSense.c **** *              CapSense_RESOLUTION_6_BITS
 870:.\Generated_Source\PSoC4/CapSense.c **** *              CapSense_RESOLUTION_7_BITS
 871:.\Generated_Source\PSoC4/CapSense.c **** *              CapSense_RESOLUTION_8_BITS
 872:.\Generated_Source\PSoC4/CapSense.c **** *              CapSense_RESOLUTION_9_BITS
 873:.\Generated_Source\PSoC4/CapSense.c **** *              CapSense_RESOLUTION_10_BITS
 874:.\Generated_Source\PSoC4/CapSense.c **** *              CapSense_RESOLUTION_11_BITS
 875:.\Generated_Source\PSoC4/CapSense.c **** *              CapSense_RESOLUTION_12_BITS
 876:.\Generated_Source\PSoC4/CapSense.c **** *              CapSense_RESOLUTION_13_BITS
 877:.\Generated_Source\PSoC4/CapSense.c **** *              CapSense_RESOLUTION_14_BITS
 878:.\Generated_Source\PSoC4/CapSense.c **** *              CapSense_RESOLUTION_15_BITS
 879:.\Generated_Source\PSoC4/CapSense.c **** *              CapSense_RESOLUTION_16_BITS
 880:.\Generated_Source\PSoC4/CapSense.c **** *
ARM GAS  C:\Users\ALEXAN~1\AppData\Local\Temp\ccazldJ5.s 			page 22


 881:.\Generated_Source\PSoC4/CapSense.c **** * Global Variables:
 882:.\Generated_Source\PSoC4/CapSense.c **** *  CapSense_widgetResolution[] - used to store scan resolution of every widget.
 883:.\Generated_Source\PSoC4/CapSense.c **** *
 884:.\Generated_Source\PSoC4/CapSense.c **** * Side Effects:
 885:.\Generated_Source\PSoC4/CapSense.c **** *  None
 886:.\Generated_Source\PSoC4/CapSense.c **** *
 887:.\Generated_Source\PSoC4/CapSense.c **** *******************************************************************************/
 888:.\Generated_Source\PSoC4/CapSense.c **** uint32 CapSense_GetScanResolution(uint32 widget)
 889:.\Generated_Source\PSoC4/CapSense.c **** {
 318              		.loc 1 889 0
 319              		.cfi_startproc
 320              	.LVL31:
 890:.\Generated_Source\PSoC4/CapSense.c ****     return(CapSense_widgetResolution[widget]);
 891:.\Generated_Source\PSoC4/CapSense.c **** }
 321              		.loc 1 891 0
 322 0000 0048     		ldr	r0, .L20
 323              	.LVL32:
 324              		@ sp needed
 325 0002 7047     		bx	lr
 326              	.L21:
 327              		.align	2
 328              	.L20:
 329 0004 0000FFFF 		.word	-65536
 330              		.cfi_endproc
 331              	.LFE47:
 332              		.size	CapSense_GetScanResolution, .-CapSense_GetScanResolution
 333              		.section	.text.CapSense_EnableSensor,"ax",%progbits
 334              		.align	2
 335              		.global	CapSense_EnableSensor
 336              		.code	16
 337              		.thumb_func
 338              		.type	CapSense_EnableSensor, %function
 339              	CapSense_EnableSensor:
 340              	.LFB49:
 892:.\Generated_Source\PSoC4/CapSense.c **** 
 893:.\Generated_Source\PSoC4/CapSense.c **** 
 894:.\Generated_Source\PSoC4/CapSense.c **** /*******************************************************************************
 895:.\Generated_Source\PSoC4/CapSense.c **** * Function Name: CapSense_ClearSensors
 896:.\Generated_Source\PSoC4/CapSense.c **** ********************************************************************************
 897:.\Generated_Source\PSoC4/CapSense.c **** *
 898:.\Generated_Source\PSoC4/CapSense.c **** * Summary:
 899:.\Generated_Source\PSoC4/CapSense.c **** *  Resets all the sensors to the non-sampling state by sequentially disconnecting
 900:.\Generated_Source\PSoC4/CapSense.c **** *  all the sensors from Analog MUX Bus and putting them to an inactive state.
 901:.\Generated_Source\PSoC4/CapSense.c **** *
 902:.\Generated_Source\PSoC4/CapSense.c **** * Parameters:
 903:.\Generated_Source\PSoC4/CapSense.c **** *  None
 904:.\Generated_Source\PSoC4/CapSense.c **** *
 905:.\Generated_Source\PSoC4/CapSense.c **** * Return:
 906:.\Generated_Source\PSoC4/CapSense.c **** *  None
 907:.\Generated_Source\PSoC4/CapSense.c **** *
 908:.\Generated_Source\PSoC4/CapSense.c **** * Global Variables:
 909:.\Generated_Source\PSoC4/CapSense.c **** *  None
 910:.\Generated_Source\PSoC4/CapSense.c **** *
 911:.\Generated_Source\PSoC4/CapSense.c **** * Side Effects:
 912:.\Generated_Source\PSoC4/CapSense.c **** *  None
 913:.\Generated_Source\PSoC4/CapSense.c **** *
 914:.\Generated_Source\PSoC4/CapSense.c **** *******************************************************************************/
ARM GAS  C:\Users\ALEXAN~1\AppData\Local\Temp\ccazldJ5.s 			page 23


 915:.\Generated_Source\PSoC4/CapSense.c **** void CapSense_ClearSensors(void)
 916:.\Generated_Source\PSoC4/CapSense.c **** {
 917:.\Generated_Source\PSoC4/CapSense.c ****     uint32 snsIndex;
 918:.\Generated_Source\PSoC4/CapSense.c **** 
 919:.\Generated_Source\PSoC4/CapSense.c ****     for (snsIndex = 0u; snsIndex < CapSense_TOTAL_SENSOR_COUNT; snsIndex++)
 920:.\Generated_Source\PSoC4/CapSense.c ****     {
 921:.\Generated_Source\PSoC4/CapSense.c ****         CapSense_DisableScanSlot(snsIndex);
 922:.\Generated_Source\PSoC4/CapSense.c ****     }
 923:.\Generated_Source\PSoC4/CapSense.c **** }
 924:.\Generated_Source\PSoC4/CapSense.c **** 
 925:.\Generated_Source\PSoC4/CapSense.c **** 
 926:.\Generated_Source\PSoC4/CapSense.c **** #if (CapSense_IS_COMPLEX_SCANSLOTS)
 927:.\Generated_Source\PSoC4/CapSense.c ****     /*******************************************************************************
 928:.\Generated_Source\PSoC4/CapSense.c ****     * Function Name: CapSense_EnableScanSlot
 929:.\Generated_Source\PSoC4/CapSense.c ****     ********************************************************************************
 930:.\Generated_Source\PSoC4/CapSense.c ****     *
 931:.\Generated_Source\PSoC4/CapSense.c ****     * Summary:
 932:.\Generated_Source\PSoC4/CapSense.c ****     *  Configures the selected slot to measure during the next measurement
 933:.\Generated_Source\PSoC4/CapSense.c ****     *  cycle. The corresponding pin/pins are set to Analog High-Z mode and
 934:.\Generated_Source\PSoC4/CapSense.c ****     *  connected to the Analog Mux Bus. This also enables the comparator function.
 935:.\Generated_Source\PSoC4/CapSense.c ****     *
 936:.\Generated_Source\PSoC4/CapSense.c ****     * Parameters:
 937:.\Generated_Source\PSoC4/CapSense.c ****     *  slot:  Slot number.
 938:.\Generated_Source\PSoC4/CapSense.c ****     *
 939:.\Generated_Source\PSoC4/CapSense.c ****     * Return:
 940:.\Generated_Source\PSoC4/CapSense.c ****     *  None
 941:.\Generated_Source\PSoC4/CapSense.c ****     *
 942:.\Generated_Source\PSoC4/CapSense.c ****     * Global Constants:
 943:.\Generated_Source\PSoC4/CapSense.c ****     *  CapSense_portTable[]  - used to store the port number that pin
 944:.\Generated_Source\PSoC4/CapSense.c ****     *  belongs to for each sensor.
 945:.\Generated_Source\PSoC4/CapSense.c ****     *  CapSense_maskTable[]  - used to store the pin within the port for
 946:.\Generated_Source\PSoC4/CapSense.c ****     *  each sensor.
 947:.\Generated_Source\PSoC4/CapSense.c ****     *  CapSense_indexTable[] - used to store indexes of complex sensors.
 948:.\Generated_Source\PSoC4/CapSense.c ****     *  The offset and position in this array are stored in a port and mask table for
 949:.\Generated_Source\PSoC4/CapSense.c ****     *  complex sensors.
 950:.\Generated_Source\PSoC4/CapSense.c ****     *  Bit 7 (msb) is used to define the sensor type: single or complex.
 951:.\Generated_Source\PSoC4/CapSense.c ****     *
 952:.\Generated_Source\PSoC4/CapSense.c ****     * Side Effects:
 953:.\Generated_Source\PSoC4/CapSense.c ****     *  None
 954:.\Generated_Source\PSoC4/CapSense.c ****     *
 955:.\Generated_Source\PSoC4/CapSense.c ****     *******************************************************************************/
 956:.\Generated_Source\PSoC4/CapSense.c ****     void CapSense_EnableScanSlot(uint32 slot)
 957:.\Generated_Source\PSoC4/CapSense.c ****     {
 958:.\Generated_Source\PSoC4/CapSense.c ****         uint8 j;
 959:.\Generated_Source\PSoC4/CapSense.c ****         uint8 snsNumber;
 960:.\Generated_Source\PSoC4/CapSense.c ****         const uint8 *index;
 961:.\Generated_Source\PSoC4/CapSense.c ****         /* Read sensor type: single or complex */
 962:.\Generated_Source\PSoC4/CapSense.c ****         uint8 snsType = CapSense_portTable[slot];
 963:.\Generated_Source\PSoC4/CapSense.c **** 
 964:.\Generated_Source\PSoC4/CapSense.c ****         /* Check if sensor is complex */
 965:.\Generated_Source\PSoC4/CapSense.c ****         if ((snsType & CapSense_COMPLEX_SS_FLAG) == 0u)
 966:.\Generated_Source\PSoC4/CapSense.c ****         {
 967:.\Generated_Source\PSoC4/CapSense.c ****             /* Enable sensor (single) */
 968:.\Generated_Source\PSoC4/CapSense.c ****             CapSense_EnableSensor(slot);
 969:.\Generated_Source\PSoC4/CapSense.c ****         }
 970:.\Generated_Source\PSoC4/CapSense.c ****         else
 971:.\Generated_Source\PSoC4/CapSense.c ****         {
ARM GAS  C:\Users\ALEXAN~1\AppData\Local\Temp\ccazldJ5.s 			page 24


 972:.\Generated_Source\PSoC4/CapSense.c ****             /* Enable complex sensor */
 973:.\Generated_Source\PSoC4/CapSense.c ****             snsType &= ~CapSense_COMPLEX_SS_FLAG;
 974:.\Generated_Source\PSoC4/CapSense.c ****             index = &CapSense_indexTable[snsType];
 975:.\Generated_Source\PSoC4/CapSense.c ****             snsNumber = CapSense_maskTable[slot];
 976:.\Generated_Source\PSoC4/CapSense.c **** 
 977:.\Generated_Source\PSoC4/CapSense.c ****             for (j = 0u; j < snsNumber; j++)
 978:.\Generated_Source\PSoC4/CapSense.c ****             {
 979:.\Generated_Source\PSoC4/CapSense.c ****                 CapSense_EnableSensor(index[j]);
 980:.\Generated_Source\PSoC4/CapSense.c ****             }
 981:.\Generated_Source\PSoC4/CapSense.c ****         }
 982:.\Generated_Source\PSoC4/CapSense.c ****     }
 983:.\Generated_Source\PSoC4/CapSense.c **** 
 984:.\Generated_Source\PSoC4/CapSense.c **** 
 985:.\Generated_Source\PSoC4/CapSense.c ****     /*******************************************************************************
 986:.\Generated_Source\PSoC4/CapSense.c ****     * Function Name: CapSense_DisableScanSlot
 987:.\Generated_Source\PSoC4/CapSense.c ****     ********************************************************************************
 988:.\Generated_Source\PSoC4/CapSense.c ****     *
 989:.\Generated_Source\PSoC4/CapSense.c ****     * Summary:
 990:.\Generated_Source\PSoC4/CapSense.c ****     *  Disables the selected slot. The corresponding pin/pins is/are disconnected
 991:.\Generated_Source\PSoC4/CapSense.c ****     *  from the Analog Mux Bus and connected to GND, High_Z or Shield electrode.
 992:.\Generated_Source\PSoC4/CapSense.c ****     *
 993:.\Generated_Source\PSoC4/CapSense.c ****     * Parameters:
 994:.\Generated_Source\PSoC4/CapSense.c ****     *  slot:  Slot number.
 995:.\Generated_Source\PSoC4/CapSense.c ****     *
 996:.\Generated_Source\PSoC4/CapSense.c ****     * Return:
 997:.\Generated_Source\PSoC4/CapSense.c ****     *  None
 998:.\Generated_Source\PSoC4/CapSense.c ****     *
 999:.\Generated_Source\PSoC4/CapSense.c ****     * Global Variables:
1000:.\Generated_Source\PSoC4/CapSense.c ****     *  CapSense_portTable[]  - used to store the port number that pin
1001:.\Generated_Source\PSoC4/CapSense.c ****     *  belongs to for each sensor.
1002:.\Generated_Source\PSoC4/CapSense.c ****     *  CapSense_maskTable[]  - used to store the pin within the port for
1003:.\Generated_Source\PSoC4/CapSense.c ****     *  each sensor.
1004:.\Generated_Source\PSoC4/CapSense.c ****     *  CapSense_indexTable[] - used to store indexes of complex sensors.
1005:.\Generated_Source\PSoC4/CapSense.c ****     *  The offset and position in this array are stored in a port and mask table for
1006:.\Generated_Source\PSoC4/CapSense.c ****     *  complex sensors.
1007:.\Generated_Source\PSoC4/CapSense.c ****     *  7bit(msb) is used to define the sensor type: single or complex.
1008:.\Generated_Source\PSoC4/CapSense.c ****     *
1009:.\Generated_Source\PSoC4/CapSense.c ****     * Side Effects:
1010:.\Generated_Source\PSoC4/CapSense.c ****     *  None
1011:.\Generated_Source\PSoC4/CapSense.c ****     *
1012:.\Generated_Source\PSoC4/CapSense.c ****     *******************************************************************************/
1013:.\Generated_Source\PSoC4/CapSense.c ****     void CapSense_DisableScanSlot(uint32 slot)
1014:.\Generated_Source\PSoC4/CapSense.c ****     {
1015:.\Generated_Source\PSoC4/CapSense.c ****         uint8 j;
1016:.\Generated_Source\PSoC4/CapSense.c ****         uint8 snsNumber;
1017:.\Generated_Source\PSoC4/CapSense.c ****         const uint8 *index;
1018:.\Generated_Source\PSoC4/CapSense.c **** 
1019:.\Generated_Source\PSoC4/CapSense.c ****         /* Read sensor type: single or complex */
1020:.\Generated_Source\PSoC4/CapSense.c ****         uint8 snsType = CapSense_portTable[slot];
1021:.\Generated_Source\PSoC4/CapSense.c **** 
1022:.\Generated_Source\PSoC4/CapSense.c ****         /* Check if sensor is complex */
1023:.\Generated_Source\PSoC4/CapSense.c ****         if ((snsType & CapSense_COMPLEX_SS_FLAG) == 0u)
1024:.\Generated_Source\PSoC4/CapSense.c ****         {
1025:.\Generated_Source\PSoC4/CapSense.c ****             /* Disable sensor (single) */
1026:.\Generated_Source\PSoC4/CapSense.c ****             CapSense_DisableSensor(slot);
1027:.\Generated_Source\PSoC4/CapSense.c ****         }
1028:.\Generated_Source\PSoC4/CapSense.c ****         else
ARM GAS  C:\Users\ALEXAN~1\AppData\Local\Temp\ccazldJ5.s 			page 25


1029:.\Generated_Source\PSoC4/CapSense.c ****         {
1030:.\Generated_Source\PSoC4/CapSense.c ****             /* Disable complex sensor */
1031:.\Generated_Source\PSoC4/CapSense.c ****             snsType &= ~CapSense_COMPLEX_SS_FLAG;
1032:.\Generated_Source\PSoC4/CapSense.c ****             index = &CapSense_indexTable[snsType];
1033:.\Generated_Source\PSoC4/CapSense.c ****             snsNumber = CapSense_maskTable[slot];
1034:.\Generated_Source\PSoC4/CapSense.c **** 
1035:.\Generated_Source\PSoC4/CapSense.c ****             for (j=0; j < snsNumber; j++)
1036:.\Generated_Source\PSoC4/CapSense.c ****             {
1037:.\Generated_Source\PSoC4/CapSense.c ****                 CapSense_DisableSensor(index[j]);
1038:.\Generated_Source\PSoC4/CapSense.c ****             }
1039:.\Generated_Source\PSoC4/CapSense.c ****         }
1040:.\Generated_Source\PSoC4/CapSense.c ****     }
1041:.\Generated_Source\PSoC4/CapSense.c **** #endif  /* CapSense_IS_COMPLEX_SCANSLOTS */
1042:.\Generated_Source\PSoC4/CapSense.c **** 
1043:.\Generated_Source\PSoC4/CapSense.c **** 
1044:.\Generated_Source\PSoC4/CapSense.c **** /*******************************************************************************
1045:.\Generated_Source\PSoC4/CapSense.c **** * Function Name: CapSense_EnableSensor
1046:.\Generated_Source\PSoC4/CapSense.c **** ********************************************************************************
1047:.\Generated_Source\PSoC4/CapSense.c **** *
1048:.\Generated_Source\PSoC4/CapSense.c **** * Summary:
1049:.\Generated_Source\PSoC4/CapSense.c **** *  Configures the selected sensor to measure during the next measurement cycle.
1050:.\Generated_Source\PSoC4/CapSense.c **** *  The corresponding pins are set to Analog High-Z mode and connected to the
1051:.\Generated_Source\PSoC4/CapSense.c **** *  Analog Mux Bus. This also enables the comparator function.
1052:.\Generated_Source\PSoC4/CapSense.c **** *
1053:.\Generated_Source\PSoC4/CapSense.c **** * Parameters:
1054:.\Generated_Source\PSoC4/CapSense.c **** *  sensor:  Sensor number.
1055:.\Generated_Source\PSoC4/CapSense.c **** *
1056:.\Generated_Source\PSoC4/CapSense.c **** * Return:
1057:.\Generated_Source\PSoC4/CapSense.c **** *  None
1058:.\Generated_Source\PSoC4/CapSense.c **** *
1059:.\Generated_Source\PSoC4/CapSense.c **** * Global Variables:
1060:.\Generated_Source\PSoC4/CapSense.c **** *  CapSense_portTable[] - used to store the port number that pin
1061:.\Generated_Source\PSoC4/CapSense.c **** *  belongs to for each sensor.
1062:.\Generated_Source\PSoC4/CapSense.c **** *  CapSense_pinShiftTbl[] - used to store position of pin that
1063:.\Generated_Source\PSoC4/CapSense.c **** *  configured as sensor in port.
1064:.\Generated_Source\PSoC4/CapSense.c **** *  CapSense_prtSelTbl[] - Contains pointers to the HSIOM
1065:.\Generated_Source\PSoC4/CapSense.c **** *  registers for each port.
1066:.\Generated_Source\PSoC4/CapSense.c **** *  CapSense_PrtCfgTb[] - Contains pointers to the port config
1067:.\Generated_Source\PSoC4/CapSense.c **** *  registers for each port.
1068:.\Generated_Source\PSoC4/CapSense.c **** *
1069:.\Generated_Source\PSoC4/CapSense.c **** * Side Effects:
1070:.\Generated_Source\PSoC4/CapSense.c **** *  None
1071:.\Generated_Source\PSoC4/CapSense.c **** *
1072:.\Generated_Source\PSoC4/CapSense.c **** *******************************************************************************/
1073:.\Generated_Source\PSoC4/CapSense.c **** void CapSense_EnableSensor(uint32 sensor)
1074:.\Generated_Source\PSoC4/CapSense.c **** {
 341              		.loc 1 1074 0
 342              		.cfi_startproc
 343              	.LVL33:
 344 0000 F8B5     		push	{r3, r4, r5, r6, r7, lr}
 345              		.cfi_def_cfa_offset 24
 346              		.cfi_offset 3, -24
 347              		.cfi_offset 4, -20
 348              		.cfi_offset 5, -16
 349              		.cfi_offset 6, -12
 350              		.cfi_offset 7, -8
 351              		.cfi_offset 14, -4
ARM GAS  C:\Users\ALEXAN~1\AppData\Local\Temp\ccazldJ5.s 			page 26


1075:.\Generated_Source\PSoC4/CapSense.c ****     uint8  pinModeShift;
1076:.\Generated_Source\PSoC4/CapSense.c ****     uint8  pinHSIOMShift;
1077:.\Generated_Source\PSoC4/CapSense.c ****     uint8 interruptState;
1078:.\Generated_Source\PSoC4/CapSense.c ****     uint32 newRegisterValue;
1079:.\Generated_Source\PSoC4/CapSense.c ****     uint32 port;
1080:.\Generated_Source\PSoC4/CapSense.c **** 
1081:.\Generated_Source\PSoC4/CapSense.c ****     port = (uint32) CapSense_portTable[sensor];
 352              		.loc 1 1081 0
 353 0002 104F     		ldr	r7, .L23
 354 0004 3C5C     		ldrb	r4, [r7, r0]
 355              	.LVL34:
1082:.\Generated_Source\PSoC4/CapSense.c ****     pinModeShift = CapSense_pinShiftTbl[sensor]  * CapSense_PC_PIN_CFG_SIZE;
 356              		.loc 1 1082 0
 357 0006 3818     		add	r0, r7, r0
 358              	.LVL35:
 359 0008 027B     		ldrb	r2, [r0, #12]
 360 000a 5500     		lsl	r5, r2, #1
 361 000c 5519     		add	r5, r2, r5
 362 000e EDB2     		uxtb	r5, r5
 363              	.LVL36:
1083:.\Generated_Source\PSoC4/CapSense.c ****     pinHSIOMShift = CapSense_pinShiftTbl[sensor] * CapSense_HSIOM_PIN_CFG_SIZE;
 364              		.loc 1 1083 0
 365 0010 9200     		lsl	r2, r2, #2
 366 0012 D6B2     		uxtb	r6, r2
 367              	.LVL37:
1084:.\Generated_Source\PSoC4/CapSense.c **** 
1085:.\Generated_Source\PSoC4/CapSense.c ****     interruptState = CyEnterCriticalSection();
 368              		.loc 1 1085 0
 369 0014 FFF7FEFF 		bl	CyEnterCriticalSection
 370              	.LVL38:
1086:.\Generated_Source\PSoC4/CapSense.c **** 
1087:.\Generated_Source\PSoC4/CapSense.c ****     newRegisterValue = *CapSense_prtSelTbl[port];
 371              		.loc 1 1087 0
 372 0018 A400     		lsl	r4, r4, #2
 373              	.LVL39:
 374 001a 3B19     		add	r3, r7, r4
 375 001c 9C69     		ldr	r4, [r3, #24]
 376 001e 2268     		ldr	r2, [r4]
 377              	.LVL40:
1088:.\Generated_Source\PSoC4/CapSense.c ****     newRegisterValue &= ~(CapSense_CSD_HSIOM_MASK << pinHSIOMShift);
 378              		.loc 1 1088 0
 379 0020 0F21     		mov	r1, #15
 380 0022 B140     		lsl	r1, r1, r6
 381 0024 8A43     		bic	r2, r1
 382              	.LVL41:
 383 0026 111C     		mov	r1, r2
 384              	.LVL42:
1089:.\Generated_Source\PSoC4/CapSense.c ****     newRegisterValue |= (uint32)((uint32)CapSense_CSD_SENSE_PORT_MODE << pinHSIOMShift);
 385              		.loc 1 1089 0
 386 0028 0422     		mov	r2, #4
 387 002a B240     		lsl	r2, r2, r6
 388 002c 0A43     		orr	r2, r1
 389              	.LVL43:
1090:.\Generated_Source\PSoC4/CapSense.c **** 
1091:.\Generated_Source\PSoC4/CapSense.c ****     *CapSense_prtCfgTbl[port] &= (uint32)~((uint32)CapSense_CSD_PIN_MODE_MASK << pinModeShift);
 390              		.loc 1 1091 0
 391 002e 5E6B     		ldr	r6, [r3, #52]
ARM GAS  C:\Users\ALEXAN~1\AppData\Local\Temp\ccazldJ5.s 			page 27


 392              	.LVL44:
 393 0030 3368     		ldr	r3, [r6]
 394 0032 0721     		mov	r1, #7
 395 0034 A940     		lsl	r1, r1, r5
 396 0036 8B43     		bic	r3, r1
 397 0038 3360     		str	r3, [r6]
1092:.\Generated_Source\PSoC4/CapSense.c ****     *CapSense_prtSelTbl[port] = newRegisterValue;
 398              		.loc 1 1092 0
 399 003a 2260     		str	r2, [r4]
1093:.\Generated_Source\PSoC4/CapSense.c **** 
1094:.\Generated_Source\PSoC4/CapSense.c ****     CyExitCriticalSection(interruptState);
 400              		.loc 1 1094 0
 401 003c FFF7FEFF 		bl	CyExitCriticalSection
 402              	.LVL45:
1095:.\Generated_Source\PSoC4/CapSense.c **** }
 403              		.loc 1 1095 0
 404              		@ sp needed
 405              	.LVL46:
 406              	.LVL47:
 407 0040 F8BD     		pop	{r3, r4, r5, r6, r7, pc}
 408              	.L24:
 409 0042 C046     		.align	2
 410              	.L23:
 411 0044 00000000 		.word	.LANCHOR1
 412              		.cfi_endproc
 413              	.LFE49:
 414              		.size	CapSense_EnableSensor, .-CapSense_EnableSensor
 415              		.section	.text.CapSense_DisableSensor,"ax",%progbits
 416              		.align	2
 417              		.global	CapSense_DisableSensor
 418              		.code	16
 419              		.thumb_func
 420              		.type	CapSense_DisableSensor, %function
 421              	CapSense_DisableSensor:
 422              	.LFB50:
1096:.\Generated_Source\PSoC4/CapSense.c **** 
1097:.\Generated_Source\PSoC4/CapSense.c **** 
1098:.\Generated_Source\PSoC4/CapSense.c **** /*******************************************************************************
1099:.\Generated_Source\PSoC4/CapSense.c **** * Function Name: CapSense_DisableSensor
1100:.\Generated_Source\PSoC4/CapSense.c **** ********************************************************************************
1101:.\Generated_Source\PSoC4/CapSense.c **** *
1102:.\Generated_Source\PSoC4/CapSense.c **** * Summary:
1103:.\Generated_Source\PSoC4/CapSense.c **** *  Disables the selected sensor. The corresponding pin is disconnected from the
1104:.\Generated_Source\PSoC4/CapSense.c **** *  Analog Mux Bus and connected to GND, High_Z or Shield electrode.
1105:.\Generated_Source\PSoC4/CapSense.c **** *
1106:.\Generated_Source\PSoC4/CapSense.c **** * Parameters:
1107:.\Generated_Source\PSoC4/CapSense.c **** *  sensor:  Sensor number
1108:.\Generated_Source\PSoC4/CapSense.c **** *
1109:.\Generated_Source\PSoC4/CapSense.c **** * Return:
1110:.\Generated_Source\PSoC4/CapSense.c **** *  None
1111:.\Generated_Source\PSoC4/CapSense.c **** *
1112:.\Generated_Source\PSoC4/CapSense.c **** * Global Variables:
1113:.\Generated_Source\PSoC4/CapSense.c **** *  CapSense_portTable[] - used to store the port number that pin
1114:.\Generated_Source\PSoC4/CapSense.c **** *  belongs to for each sensor.
1115:.\Generated_Source\PSoC4/CapSense.c **** *  CapSense_pinShiftTbl[] - used to store position of pin that
1116:.\Generated_Source\PSoC4/CapSense.c **** *  configured as a sensor in the port.
1117:.\Generated_Source\PSoC4/CapSense.c **** *  CapSense_prtSelTbl[] - Contains pointers to the HSIOM
ARM GAS  C:\Users\ALEXAN~1\AppData\Local\Temp\ccazldJ5.s 			page 28


1118:.\Generated_Source\PSoC4/CapSense.c **** *  registers for each port.
1119:.\Generated_Source\PSoC4/CapSense.c **** *  CapSense_PrtCfgTb[] - Contains pointers to the port config
1120:.\Generated_Source\PSoC4/CapSense.c **** *  registers for each port.
1121:.\Generated_Source\PSoC4/CapSense.c **** *
1122:.\Generated_Source\PSoC4/CapSense.c **** * Side Effects:
1123:.\Generated_Source\PSoC4/CapSense.c **** *  None
1124:.\Generated_Source\PSoC4/CapSense.c **** *
1125:.\Generated_Source\PSoC4/CapSense.c **** *******************************************************************************/
1126:.\Generated_Source\PSoC4/CapSense.c **** void CapSense_DisableSensor(uint32 sensor)
1127:.\Generated_Source\PSoC4/CapSense.c **** {
 423              		.loc 1 1127 0
 424              		.cfi_startproc
 425              	.LVL48:
 426 0000 F8B5     		push	{r3, r4, r5, r6, r7, lr}
 427              		.cfi_def_cfa_offset 24
 428              		.cfi_offset 3, -24
 429              		.cfi_offset 4, -20
 430              		.cfi_offset 5, -16
 431              		.cfi_offset 6, -12
 432              		.cfi_offset 7, -8
 433              		.cfi_offset 14, -4
1128:.\Generated_Source\PSoC4/CapSense.c ****     uint8 interruptState;
1129:.\Generated_Source\PSoC4/CapSense.c ****     uint32 newRegisterValue;
1130:.\Generated_Source\PSoC4/CapSense.c **** 
1131:.\Generated_Source\PSoC4/CapSense.c ****     uint32 port = (uint32) CapSense_portTable[sensor];
 434              		.loc 1 1131 0
 435 0002 1949     		ldr	r1, .L30
 436 0004 0C5C     		ldrb	r4, [r1, r0]
 437              	.LVL49:
1132:.\Generated_Source\PSoC4/CapSense.c ****     uint8  pinHSIOMShift = CapSense_pinShiftTbl[sensor] * CapSense_HSIOM_PIN_CFG_SIZE;
 438              		.loc 1 1132 0
 439 0006 0B18     		add	r3, r1, r0
 440 0008 1E7B     		ldrb	r6, [r3, #12]
 441 000a B200     		lsl	r2, r6, #2
 442 000c D2B2     		uxtb	r2, r2
 443              	.LVL50:
1133:.\Generated_Source\PSoC4/CapSense.c ****     uint8  pinModeShift = CapSense_pinShiftTbl[sensor]  * CapSense_PC_PIN_CFG_SIZE;
 444              		.loc 1 1133 0
 445 000e 7500     		lsl	r5, r6, #1
 446 0010 7519     		add	r5, r6, r5
 447 0012 EDB2     		uxtb	r5, r5
 448              	.LVL51:
1134:.\Generated_Source\PSoC4/CapSense.c **** 
1135:.\Generated_Source\PSoC4/CapSense.c ****     uint32 inactiveConnect = CapSense_SNS_HIZANALOG_CONNECT;
1136:.\Generated_Source\PSoC4/CapSense.c ****     uint32 sensorState = CapSense_unscannedSnsDriveMode[sensor];
 449              		.loc 1 1136 0
 450 0014 154B     		ldr	r3, .L30+4
 451 0016 185C     		ldrb	r0, [r3, r0]
 452              	.LVL52:
1137:.\Generated_Source\PSoC4/CapSense.c **** 
1138:.\Generated_Source\PSoC4/CapSense.c ****     *CapSense_prtSelTbl[port] &= ~(CapSense_CSD_HSIOM_MASK << pinHSIOMShift);
 453              		.loc 1 1138 0
 454 0018 A300     		lsl	r3, r4, #2
 455 001a CB18     		add	r3, r1, r3
 456 001c 9F69     		ldr	r7, [r3, #24]
 457 001e 3B68     		ldr	r3, [r7]
 458 0020 0F21     		mov	r1, #15
ARM GAS  C:\Users\ALEXAN~1\AppData\Local\Temp\ccazldJ5.s 			page 29


 459 0022 9140     		lsl	r1, r1, r2
 460 0024 8B43     		bic	r3, r1
 461 0026 3B60     		str	r3, [r7]
1139:.\Generated_Source\PSoC4/CapSense.c **** 
1140:.\Generated_Source\PSoC4/CapSense.c ****     #if(CapSense_IS_SHIELD_ENABLE != 0)
1141:.\Generated_Source\PSoC4/CapSense.c ****     if(sensorState != (uint32)CapSense__SHIELD)
1142:.\Generated_Source\PSoC4/CapSense.c ****     {
1143:.\Generated_Source\PSoC4/CapSense.c ****     #else
1144:.\Generated_Source\PSoC4/CapSense.c ****         /* Connected to Ground if shield is disabled */
1145:.\Generated_Source\PSoC4/CapSense.c ****         if(sensorState == (uint32)CapSense__SHIELD)
 462              		.loc 1 1145 0
 463 0028 0228     		cmp	r0, #2
 464 002a 00D1     		bne	.L26
1146:.\Generated_Source\PSoC4/CapSense.c ****         {
1147:.\Generated_Source\PSoC4/CapSense.c ****             sensorState = (uint32)CapSense__GROUND;
 465              		.loc 1 1147 0
 466 002c 0020     		mov	r0, #0
 467              	.LVL53:
 468              	.L26:
1148:.\Generated_Source\PSoC4/CapSense.c ****         }
1149:.\Generated_Source\PSoC4/CapSense.c ****     #endif /* (CapSense_IS_SHIELD_ENABLE) */
1150:.\Generated_Source\PSoC4/CapSense.c ****         if(sensorState != (uint32)CapSense__HIZ_ANALOG)
 469              		.loc 1 1150 0
 470 002e 0128     		cmp	r0, #1
 471 0030 01D1     		bne	.L29
1135:.\Generated_Source\PSoC4/CapSense.c ****     uint32 sensorState = CapSense_unscannedSnsDriveMode[sensor];
 472              		.loc 1 1135 0
 473 0032 0027     		mov	r7, #0
 474 0034 00E0     		b	.L27
 475              	.L29:
1151:.\Generated_Source\PSoC4/CapSense.c ****         {
1152:.\Generated_Source\PSoC4/CapSense.c ****             /* Connected to Ground */
1153:.\Generated_Source\PSoC4/CapSense.c ****             inactiveConnect = (uint32)CapSense_SNS_GROUND_CONNECT;
 476              		.loc 1 1153 0
 477 0036 0627     		mov	r7, #6
 478              	.L27:
 479              	.LVL54:
1154:.\Generated_Source\PSoC4/CapSense.c ****         }
1155:.\Generated_Source\PSoC4/CapSense.c **** 
1156:.\Generated_Source\PSoC4/CapSense.c ****         interruptState = CyEnterCriticalSection();
 480              		.loc 1 1156 0
 481 0038 FFF7FEFF 		bl	CyEnterCriticalSection
 482              	.LVL55:
1157:.\Generated_Source\PSoC4/CapSense.c **** 
1158:.\Generated_Source\PSoC4/CapSense.c ****         /* Set drive mode */
1159:.\Generated_Source\PSoC4/CapSense.c ****         newRegisterValue = *CapSense_prtCfgTbl[port];
 483              		.loc 1 1159 0
 484 003c A400     		lsl	r4, r4, #2
 485              	.LVL56:
 486 003e 0A4B     		ldr	r3, .L30
 487              	.LVL57:
 488 0040 1C19     		add	r4, r3, r4
 489 0042 616B     		ldr	r1, [r4, #52]
 490 0044 0B68     		ldr	r3, [r1]
 491              	.LVL58:
1160:.\Generated_Source\PSoC4/CapSense.c ****         newRegisterValue &= ~(CapSense_CSD_PIN_MODE_MASK << pinModeShift);
 492              		.loc 1 1160 0
ARM GAS  C:\Users\ALEXAN~1\AppData\Local\Temp\ccazldJ5.s 			page 30


 493 0046 0722     		mov	r2, #7
 494 0048 AA40     		lsl	r2, r2, r5
 495 004a 9343     		bic	r3, r2
 496              	.LVL59:
 497 004c 1A1C     		mov	r2, r3
 498              	.LVL60:
1161:.\Generated_Source\PSoC4/CapSense.c ****         newRegisterValue |=  (uint32)(inactiveConnect << pinModeShift);
 499              		.loc 1 1161 0
 500 004e 3B1C     		mov	r3, r7
 501 0050 AB40     		lsl	r3, r3, r5
 502 0052 1343     		orr	r3, r2
 503              	.LVL61:
1162:.\Generated_Source\PSoC4/CapSense.c ****         *CapSense_prtCfgTbl[port] =  newRegisterValue;
 504              		.loc 1 1162 0
 505 0054 0B60     		str	r3, [r1]
1163:.\Generated_Source\PSoC4/CapSense.c **** 
1164:.\Generated_Source\PSoC4/CapSense.c ****         CyExitCriticalSection(interruptState);
 506              		.loc 1 1164 0
 507 0056 FFF7FEFF 		bl	CyExitCriticalSection
 508              	.LVL62:
1165:.\Generated_Source\PSoC4/CapSense.c **** 
1166:.\Generated_Source\PSoC4/CapSense.c ****         *CapSense_prtDRTbl[port]  &=  (uint32)~(uint32)((uint32)1u << CapSense_pinShiftTbl[sensor])
 509              		.loc 1 1166 0
 510 005a 216D     		ldr	r1, [r4, #80]
 511 005c 0B68     		ldr	r3, [r1]
 512 005e 0122     		mov	r2, #1
 513 0060 B240     		lsl	r2, r2, r6
 514 0062 9343     		bic	r3, r2
 515 0064 0B60     		str	r3, [r1]
1167:.\Generated_Source\PSoC4/CapSense.c ****     #if(CapSense_IS_SHIELD_ENABLE != 0)
1168:.\Generated_Source\PSoC4/CapSense.c ****     }
1169:.\Generated_Source\PSoC4/CapSense.c ****     else
1170:.\Generated_Source\PSoC4/CapSense.c ****     {
1171:.\Generated_Source\PSoC4/CapSense.c ****         /* Connect to Shield */
1172:.\Generated_Source\PSoC4/CapSense.c ****         *CapSense_prtSelTbl[port] |= (CapSense_CSD_SHIELD_PORT_MODE << pinHSIOMShift);
1173:.\Generated_Source\PSoC4/CapSense.c ****     }
1174:.\Generated_Source\PSoC4/CapSense.c ****     #endif /* (CapSense_IS_SHIELD_ENABLE) */
1175:.\Generated_Source\PSoC4/CapSense.c **** }
 516              		.loc 1 1175 0
 517              		@ sp needed
 518              	.LVL63:
 519              	.LVL64:
 520              	.LVL65:
 521 0066 F8BD     		pop	{r3, r4, r5, r6, r7, pc}
 522              	.L31:
 523              		.align	2
 524              	.L30:
 525 0068 00000000 		.word	.LANCHOR1
 526 006c 00000000 		.word	CapSense_unscannedSnsDriveMode
 527              		.cfi_endproc
 528              	.LFE50:
 529              		.size	CapSense_DisableSensor, .-CapSense_DisableSensor
 530              		.section	.text.CapSense_ClearSensors,"ax",%progbits
 531              		.align	2
 532              		.global	CapSense_ClearSensors
 533              		.code	16
 534              		.thumb_func
ARM GAS  C:\Users\ALEXAN~1\AppData\Local\Temp\ccazldJ5.s 			page 31


 535              		.type	CapSense_ClearSensors, %function
 536              	CapSense_ClearSensors:
 537              	.LFB48:
 916:.\Generated_Source\PSoC4/CapSense.c ****     uint32 snsIndex;
 538              		.loc 1 916 0
 539              		.cfi_startproc
 540 0000 10B5     		push	{r4, lr}
 541              		.cfi_def_cfa_offset 8
 542              		.cfi_offset 4, -8
 543              		.cfi_offset 14, -4
 544              	.LVL66:
 919:.\Generated_Source\PSoC4/CapSense.c ****     {
 545              		.loc 1 919 0
 546 0002 0024     		mov	r4, #0
 547 0004 03E0     		b	.L33
 548              	.LVL67:
 549              	.L34:
 921:.\Generated_Source\PSoC4/CapSense.c ****     }
 550              		.loc 1 921 0 discriminator 3
 551 0006 201C     		mov	r0, r4
 552 0008 FFF7FEFF 		bl	CapSense_DisableSensor
 553              	.LVL68:
 919:.\Generated_Source\PSoC4/CapSense.c ****     {
 554              		.loc 1 919 0 discriminator 3
 555 000c 0134     		add	r4, r4, #1
 556              	.LVL69:
 557              	.L33:
 919:.\Generated_Source\PSoC4/CapSense.c ****     {
 558              		.loc 1 919 0 is_stmt 0 discriminator 1
 559 000e 092C     		cmp	r4, #9
 560 0010 F9D9     		bls	.L34
 923:.\Generated_Source\PSoC4/CapSense.c **** 
 561              		.loc 1 923 0 is_stmt 1
 562              		@ sp needed
 563              	.LVL70:
 564 0012 10BD     		pop	{r4, pc}
 565              		.cfi_endproc
 566              	.LFE48:
 567              		.size	CapSense_ClearSensors, .-CapSense_ClearSensors
 568              		.section	.text.CapSense_SetPinDriveMode,"ax",%progbits
 569              		.align	2
 570              		.global	CapSense_SetPinDriveMode
 571              		.code	16
 572              		.thumb_func
 573              		.type	CapSense_SetPinDriveMode, %function
 574              	CapSense_SetPinDriveMode:
 575              	.LFB53:
1176:.\Generated_Source\PSoC4/CapSense.c **** 
1177:.\Generated_Source\PSoC4/CapSense.c **** 
1178:.\Generated_Source\PSoC4/CapSense.c **** /*******************************************************************************
1179:.\Generated_Source\PSoC4/CapSense.c **** * Function Name: CapSense_SetDriveModeAllPins
1180:.\Generated_Source\PSoC4/CapSense.c **** ********************************************************************************
1181:.\Generated_Source\PSoC4/CapSense.c **** *
1182:.\Generated_Source\PSoC4/CapSense.c **** * Summary:
1183:.\Generated_Source\PSoC4/CapSense.c **** * This API sets the drive mode of port pins used by the CapSense
1184:.\Generated_Source\PSoC4/CapSense.c **** * component (sensors, guard, shield, shield tank and Cmod) to drive the
1185:.\Generated_Source\PSoC4/CapSense.c **** * mode specified by the argument.
ARM GAS  C:\Users\ALEXAN~1\AppData\Local\Temp\ccazldJ5.s 			page 32


1186:.\Generated_Source\PSoC4/CapSense.c **** *
1187:.\Generated_Source\PSoC4/CapSense.c **** * Parameters:
1188:.\Generated_Source\PSoC4/CapSense.c **** *  driveMode:  Drive mode definition.
1189:.\Generated_Source\PSoC4/CapSense.c **** *
1190:.\Generated_Source\PSoC4/CapSense.c **** * Return:
1191:.\Generated_Source\PSoC4/CapSense.c **** *  None
1192:.\Generated_Source\PSoC4/CapSense.c **** *
1193:.\Generated_Source\PSoC4/CapSense.c **** * Global Variables:
1194:.\Generated_Source\PSoC4/CapSense.c **** *  CapSense_portTable[] - used to store the port number that pin
1195:.\Generated_Source\PSoC4/CapSense.c **** *  belongs to for each sensor.
1196:.\Generated_Source\PSoC4/CapSense.c **** *  CapSense_pinShiftTbl[] - used to store position of pin that
1197:.\Generated_Source\PSoC4/CapSense.c **** *  configured as a sensor in the port.
1198:.\Generated_Source\PSoC4/CapSense.c **** *
1199:.\Generated_Source\PSoC4/CapSense.c **** * Side Effects:
1200:.\Generated_Source\PSoC4/CapSense.c **** *  This API shall be called only after CapSense component is stopped.
1201:.\Generated_Source\PSoC4/CapSense.c **** *
1202:.\Generated_Source\PSoC4/CapSense.c **** *******************************************************************************/
1203:.\Generated_Source\PSoC4/CapSense.c **** void CapSense_SetDriveModeAllPins(uint32 driveMode)
1204:.\Generated_Source\PSoC4/CapSense.c **** {
1205:.\Generated_Source\PSoC4/CapSense.c ****     uint8 curSensor;
1206:.\Generated_Source\PSoC4/CapSense.c ****     #if (CapSense_IS_COMPLEX_SCANSLOTS)
1207:.\Generated_Source\PSoC4/CapSense.c ****         uint8 snsNumber;
1208:.\Generated_Source\PSoC4/CapSense.c ****         uint8 snsType;
1209:.\Generated_Source\PSoC4/CapSense.c ****     #endif  /* CapSense_IS_COMPLEX_SCANSLOTS */
1210:.\Generated_Source\PSoC4/CapSense.c ****     uint32 prtNumberTmp;
1211:.\Generated_Source\PSoC4/CapSense.c ****     uint32 pinNumberTmp;
1212:.\Generated_Source\PSoC4/CapSense.c **** 
1213:.\Generated_Source\PSoC4/CapSense.c ****     for(curSensor = 0u; curSensor < CapSense_TOTAL_SENSOR_COUNT; curSensor++)
1214:.\Generated_Source\PSoC4/CapSense.c ****     {
1215:.\Generated_Source\PSoC4/CapSense.c ****         #if (CapSense_IS_COMPLEX_SCANSLOTS)
1216:.\Generated_Source\PSoC4/CapSense.c ****             /* Read sensor type: single or complex */
1217:.\Generated_Source\PSoC4/CapSense.c ****             snsType = CapSense_portTable[curSensor];
1218:.\Generated_Source\PSoC4/CapSense.c **** 
1219:.\Generated_Source\PSoC4/CapSense.c ****             /* Check if sensor is complex */
1220:.\Generated_Source\PSoC4/CapSense.c ****             if ((snsType & CapSense_COMPLEX_SS_FLAG) == 0u)
1221:.\Generated_Source\PSoC4/CapSense.c ****             {
1222:.\Generated_Source\PSoC4/CapSense.c ****                 /* The sensor is not complex */
1223:.\Generated_Source\PSoC4/CapSense.c ****                 snsNumber = curSensor;
1224:.\Generated_Source\PSoC4/CapSense.c ****             }
1225:.\Generated_Source\PSoC4/CapSense.c ****             else
1226:.\Generated_Source\PSoC4/CapSense.c ****             {
1227:.\Generated_Source\PSoC4/CapSense.c ****                 /* Get dedicated sensor ID of the complex sensor */
1228:.\Generated_Source\PSoC4/CapSense.c ****                 snsType &= ~CapSense_COMPLEX_SS_FLAG;
1229:.\Generated_Source\PSoC4/CapSense.c ****                 snsNumber = CapSense_indexTable[snsType];
1230:.\Generated_Source\PSoC4/CapSense.c ****             }
1231:.\Generated_Source\PSoC4/CapSense.c **** 
1232:.\Generated_Source\PSoC4/CapSense.c ****             prtNumberTmp = CapSense_portTable[snsNumber];
1233:.\Generated_Source\PSoC4/CapSense.c ****             pinNumberTmp = CapSense_pinShiftTbl[snsNumber];
1234:.\Generated_Source\PSoC4/CapSense.c ****         #else
1235:.\Generated_Source\PSoC4/CapSense.c ****             prtNumberTmp = CapSense_portTable[curSensor];
1236:.\Generated_Source\PSoC4/CapSense.c ****             pinNumberTmp = CapSense_pinShiftTbl[curSensor];
1237:.\Generated_Source\PSoC4/CapSense.c ****         #endif  /* CapSense_IS_COMPLEX_SCANSLOTS */
1238:.\Generated_Source\PSoC4/CapSense.c **** 
1239:.\Generated_Source\PSoC4/CapSense.c ****         CapSense_SetPinDriveMode(driveMode, pinNumberTmp, prtNumberTmp);
1240:.\Generated_Source\PSoC4/CapSense.c ****     }
1241:.\Generated_Source\PSoC4/CapSense.c **** 
1242:.\Generated_Source\PSoC4/CapSense.c ****     CapSense_SetPinDriveMode(driveMode, (uint32)CapSense_CMOD_PIN_NUMBER, (uint32)CapSense_CMOD_PRT
ARM GAS  C:\Users\ALEXAN~1\AppData\Local\Temp\ccazldJ5.s 			page 33


1243:.\Generated_Source\PSoC4/CapSense.c **** 
1244:.\Generated_Source\PSoC4/CapSense.c ****     #if(0u != CapSense_CSH_TANK_ENABLE)
1245:.\Generated_Source\PSoC4/CapSense.c ****         CapSense_SetPinDriveMode(driveMode, (uint32)CapSense_CTANK_PIN_NUMBER, (uint32)CapSense_CTA
1246:.\Generated_Source\PSoC4/CapSense.c ****     #endif /* (0u != CapSense_CSH_TANK_ENABLE) */
1247:.\Generated_Source\PSoC4/CapSense.c **** 
1248:.\Generated_Source\PSoC4/CapSense.c ****     #if(0u != CapSense_IS_SHIELD_ENABLE)
1249:.\Generated_Source\PSoC4/CapSense.c ****         CapSense_SetPinDriveMode(driveMode, (uint32)CapSense_SHIELD_PIN_NUMBER, (uint32)CapSense_SH
1250:.\Generated_Source\PSoC4/CapSense.c ****     #endif /* (0u != CapSense_IS_SHIELD_ENABLE) */
1251:.\Generated_Source\PSoC4/CapSense.c **** }
1252:.\Generated_Source\PSoC4/CapSense.c **** 
1253:.\Generated_Source\PSoC4/CapSense.c **** 
1254:.\Generated_Source\PSoC4/CapSense.c **** /*******************************************************************************
1255:.\Generated_Source\PSoC4/CapSense.c **** * Function Name: CapSense_RestoreDriveModeAllPins
1256:.\Generated_Source\PSoC4/CapSense.c **** ********************************************************************************
1257:.\Generated_Source\PSoC4/CapSense.c **** *
1258:.\Generated_Source\PSoC4/CapSense.c **** * Summary:
1259:.\Generated_Source\PSoC4/CapSense.c **** *  This API restores the drive for all the CapSense port pins to the original
1260:.\Generated_Source\PSoC4/CapSense.c **** *  state.
1261:.\Generated_Source\PSoC4/CapSense.c **** *
1262:.\Generated_Source\PSoC4/CapSense.c **** * Parameters:
1263:.\Generated_Source\PSoC4/CapSense.c **** *  None
1264:.\Generated_Source\PSoC4/CapSense.c **** *
1265:.\Generated_Source\PSoC4/CapSense.c **** * Return:
1266:.\Generated_Source\PSoC4/CapSense.c **** *  None
1267:.\Generated_Source\PSoC4/CapSense.c **** *
1268:.\Generated_Source\PSoC4/CapSense.c **** * Global Variables:
1269:.\Generated_Source\PSoC4/CapSense.c **** *  CapSense_prtSelTbl[] - Contains pointers to the HSIOM
1270:.\Generated_Source\PSoC4/CapSense.c **** *  registers for each port.
1271:.\Generated_Source\PSoC4/CapSense.c **** *
1272:.\Generated_Source\PSoC4/CapSense.c **** * Side Effects:
1273:.\Generated_Source\PSoC4/CapSense.c **** *  This API is called only after the CapSense component is stopped.
1274:.\Generated_Source\PSoC4/CapSense.c **** *
1275:.\Generated_Source\PSoC4/CapSense.c **** *******************************************************************************/
1276:.\Generated_Source\PSoC4/CapSense.c **** void CapSense_RestoreDriveModeAllPins(void)
1277:.\Generated_Source\PSoC4/CapSense.c **** {
1278:.\Generated_Source\PSoC4/CapSense.c ****     uint32 newRegisterValue;
1279:.\Generated_Source\PSoC4/CapSense.c **** 
1280:.\Generated_Source\PSoC4/CapSense.c ****     CapSense_SetDriveModeAllPins(CY_SYS_PINS_DM_ALG_HIZ);
1281:.\Generated_Source\PSoC4/CapSense.c **** 
1282:.\Generated_Source\PSoC4/CapSense.c ****     newRegisterValue = CapSense_CMOD_CONNECTION_REG;
1283:.\Generated_Source\PSoC4/CapSense.c ****     newRegisterValue &= ~(CapSense_CSD_CMOD_CONNECTION_MASK);
1284:.\Generated_Source\PSoC4/CapSense.c ****     newRegisterValue |= CapSense_CSD_CMOD_TO_AMUXBUS_A;
1285:.\Generated_Source\PSoC4/CapSense.c ****     CapSense_CMOD_CONNECTION_REG = newRegisterValue;
1286:.\Generated_Source\PSoC4/CapSense.c **** 
1287:.\Generated_Source\PSoC4/CapSense.c ****     #if(0u != CapSense_CSH_TANK_ENABLE)
1288:.\Generated_Source\PSoC4/CapSense.c ****         newRegisterValue = CapSense_CTANK_CONNECTION_REG;
1289:.\Generated_Source\PSoC4/CapSense.c ****         newRegisterValue &= ~(CapSense_CSD_CTANK_CONNECTION_MASK);
1290:.\Generated_Source\PSoC4/CapSense.c ****         newRegisterValue |= CapSense_CSD_CTANK_TO_AMUXBUS_B;
1291:.\Generated_Source\PSoC4/CapSense.c ****         CapSense_CTANK_CONNECTION_REG = newRegisterValue;
1292:.\Generated_Source\PSoC4/CapSense.c ****     #endif/* (0u != CapSense_CSH_TANK_ENABLE) */
1293:.\Generated_Source\PSoC4/CapSense.c **** 
1294:.\Generated_Source\PSoC4/CapSense.c ****     #if(0u != CapSense_IS_SHIELD_ENABLE)
1295:.\Generated_Source\PSoC4/CapSense.c ****         newRegisterValue = *CapSense_prtSelTbl[CapSense_SHIELD_PORT_NUMBER];
1296:.\Generated_Source\PSoC4/CapSense.c ****         newRegisterValue &= ~(CapSense_CSD_HSIOM_MASK << ((uint32)CapSense_SHIELD_PIN_NUMBER * CapS
1297:.\Generated_Source\PSoC4/CapSense.c ****         newRegisterValue |= (CapSense_CSD_SHIELD_PORT_MODE << ((uint32)CapSense_SHIELD_PIN_NUMBER *
1298:.\Generated_Source\PSoC4/CapSense.c ****         *CapSense_prtSelTbl[CapSense_SHIELD_PORT_NUMBER] = newRegisterValue;
1299:.\Generated_Source\PSoC4/CapSense.c ****     #endif /* (0u != CapSense_IS_SHIELD_ENABLE) */
ARM GAS  C:\Users\ALEXAN~1\AppData\Local\Temp\ccazldJ5.s 			page 34


1300:.\Generated_Source\PSoC4/CapSense.c **** }
1301:.\Generated_Source\PSoC4/CapSense.c **** 
1302:.\Generated_Source\PSoC4/CapSense.c **** 
1303:.\Generated_Source\PSoC4/CapSense.c **** /*******************************************************************************
1304:.\Generated_Source\PSoC4/CapSense.c **** * Function Name: CapSense_SetPinDriveMode
1305:.\Generated_Source\PSoC4/CapSense.c **** ********************************************************************************
1306:.\Generated_Source\PSoC4/CapSense.c **** *
1307:.\Generated_Source\PSoC4/CapSense.c **** * Summary:
1308:.\Generated_Source\PSoC4/CapSense.c **** * This API sets the drive mode for the appropriate port/pin.
1309:.\Generated_Source\PSoC4/CapSense.c **** *
1310:.\Generated_Source\PSoC4/CapSense.c **** * Parameters:
1311:.\Generated_Source\PSoC4/CapSense.c **** *  driveMode:  Drive mode definition.
1312:.\Generated_Source\PSoC4/CapSense.c **** *  portNumber: contains port number (0, 1, 2).
1313:.\Generated_Source\PSoC4/CapSense.c **** *  pinNumber: contains pin number (0, 1, 2, ... , 7).
1314:.\Generated_Source\PSoC4/CapSense.c **** *
1315:.\Generated_Source\PSoC4/CapSense.c **** * Return:
1316:.\Generated_Source\PSoC4/CapSense.c **** *  None
1317:.\Generated_Source\PSoC4/CapSense.c **** *
1318:.\Generated_Source\PSoC4/CapSense.c **** * Global Variables:
1319:.\Generated_Source\PSoC4/CapSense.c **** *  CapSense_prtSelTbl[] - Contains pointers to the HSIOM
1320:.\Generated_Source\PSoC4/CapSense.c **** *  registers for each port.
1321:.\Generated_Source\PSoC4/CapSense.c **** *  CapSense_prtCfgTb[] - Contains pointers to the port config
1322:.\Generated_Source\PSoC4/CapSense.c **** *  registers for each port.
1323:.\Generated_Source\PSoC4/CapSense.c **** *
1324:.\Generated_Source\PSoC4/CapSense.c **** * Side Effects:
1325:.\Generated_Source\PSoC4/CapSense.c **** *  This API is called only after CapSense component is stopped.
1326:.\Generated_Source\PSoC4/CapSense.c **** *
1327:.\Generated_Source\PSoC4/CapSense.c **** *******************************************************************************/
1328:.\Generated_Source\PSoC4/CapSense.c **** void CapSense_SetPinDriveMode(uint32 driveMode, uint32 pinNumber, uint32 portNumber)
1329:.\Generated_Source\PSoC4/CapSense.c **** {
 576              		.loc 1 1329 0
 577              		.cfi_startproc
 578              	.LVL71:
 579 0000 10B5     		push	{r4, lr}
 580              		.cfi_def_cfa_offset 8
 581              		.cfi_offset 4, -8
 582              		.cfi_offset 14, -4
1330:.\Generated_Source\PSoC4/CapSense.c ****     uint32  pinModeShift;
1331:.\Generated_Source\PSoC4/CapSense.c ****     uint32 newRegisterValue;
1332:.\Generated_Source\PSoC4/CapSense.c **** 
1333:.\Generated_Source\PSoC4/CapSense.c ****     pinModeShift  = pinNumber * CapSense_PC_PIN_CFG_SIZE;
 583              		.loc 1 1333 0
 584 0002 4B00     		lsl	r3, r1, #1
 585 0004 5918     		add	r1, r3, r1
 586              	.LVL72:
1334:.\Generated_Source\PSoC4/CapSense.c **** 
1335:.\Generated_Source\PSoC4/CapSense.c ****     newRegisterValue = *CapSense_prtCfgTbl[portNumber];
 587              		.loc 1 1335 0
 588 0006 9200     		lsl	r2, r2, #2
 589              	.LVL73:
 590 0008 054B     		ldr	r3, .L36
 591 000a 9A18     		add	r2, r3, r2
 592 000c 546B     		ldr	r4, [r2, #52]
 593 000e 2368     		ldr	r3, [r4]
 594              	.LVL74:
1336:.\Generated_Source\PSoC4/CapSense.c ****     newRegisterValue &= ~(CapSense_CSD_PIN_MODE_MASK << pinModeShift);
 595              		.loc 1 1336 0
ARM GAS  C:\Users\ALEXAN~1\AppData\Local\Temp\ccazldJ5.s 			page 35


 596 0010 0722     		mov	r2, #7
 597 0012 8A40     		lsl	r2, r2, r1
 598 0014 9343     		bic	r3, r2
 599              	.LVL75:
1337:.\Generated_Source\PSoC4/CapSense.c ****     newRegisterValue |=  (uint32)((uint32)driveMode << pinModeShift);
 600              		.loc 1 1337 0
 601 0016 8840     		lsl	r0, r0, r1
 602              	.LVL76:
 603 0018 1843     		orr	r0, r3
 604              	.LVL77:
1338:.\Generated_Source\PSoC4/CapSense.c ****     *CapSense_prtCfgTbl[portNumber] =  newRegisterValue;
 605              		.loc 1 1338 0
 606 001a 2060     		str	r0, [r4]
1339:.\Generated_Source\PSoC4/CapSense.c **** }
 607              		.loc 1 1339 0
 608              		@ sp needed
 609 001c 10BD     		pop	{r4, pc}
 610              	.L37:
 611 001e C046     		.align	2
 612              	.L36:
 613 0020 00000000 		.word	.LANCHOR1
 614              		.cfi_endproc
 615              	.LFE53:
 616              		.size	CapSense_SetPinDriveMode, .-CapSense_SetPinDriveMode
 617              		.section	.text.CapSense_SetDriveModeAllPins,"ax",%progbits
 618              		.align	2
 619              		.global	CapSense_SetDriveModeAllPins
 620              		.code	16
 621              		.thumb_func
 622              		.type	CapSense_SetDriveModeAllPins, %function
 623              	CapSense_SetDriveModeAllPins:
 624              	.LFB51:
1204:.\Generated_Source\PSoC4/CapSense.c ****     uint8 curSensor;
 625              		.loc 1 1204 0
 626              		.cfi_startproc
 627              	.LVL78:
 628 0000 38B5     		push	{r3, r4, r5, lr}
 629              		.cfi_def_cfa_offset 16
 630              		.cfi_offset 3, -16
 631              		.cfi_offset 4, -12
 632              		.cfi_offset 5, -8
 633              		.cfi_offset 14, -4
 634 0002 051C     		mov	r5, r0
 635              	.LVL79:
1213:.\Generated_Source\PSoC4/CapSense.c ****     {
 636              		.loc 1 1213 0
 637 0004 0024     		mov	r4, #0
 638 0006 08E0     		b	.L39
 639              	.LVL80:
 640              	.L40:
1235:.\Generated_Source\PSoC4/CapSense.c ****             pinNumberTmp = CapSense_pinShiftTbl[curSensor];
 641              		.loc 1 1235 0 discriminator 3
 642 0008 084B     		ldr	r3, .L41
 643 000a 1A5D     		ldrb	r2, [r3, r4]
 644              	.LVL81:
1236:.\Generated_Source\PSoC4/CapSense.c ****         #endif  /* CapSense_IS_COMPLEX_SCANSLOTS */
 645              		.loc 1 1236 0 discriminator 3
ARM GAS  C:\Users\ALEXAN~1\AppData\Local\Temp\ccazldJ5.s 			page 36


 646 000c 1B19     		add	r3, r3, r4
 647 000e 197B     		ldrb	r1, [r3, #12]
 648              	.LVL82:
1239:.\Generated_Source\PSoC4/CapSense.c ****     }
 649              		.loc 1 1239 0 discriminator 3
 650 0010 281C     		mov	r0, r5
 651 0012 FFF7FEFF 		bl	CapSense_SetPinDriveMode
 652              	.LVL83:
1213:.\Generated_Source\PSoC4/CapSense.c ****     {
 653              		.loc 1 1213 0 discriminator 3
 654 0016 0134     		add	r4, r4, #1
 655              	.LVL84:
 656 0018 E4B2     		uxtb	r4, r4
 657              	.LVL85:
 658              	.L39:
1213:.\Generated_Source\PSoC4/CapSense.c ****     {
 659              		.loc 1 1213 0 is_stmt 0 discriminator 1
 660 001a 092C     		cmp	r4, #9
 661 001c F4D9     		bls	.L40
1242:.\Generated_Source\PSoC4/CapSense.c **** 
 662              		.loc 1 1242 0 is_stmt 1
 663 001e 281C     		mov	r0, r5
 664 0020 0021     		mov	r1, #0
 665 0022 0422     		mov	r2, #4
 666 0024 FFF7FEFF 		bl	CapSense_SetPinDriveMode
 667              	.LVL86:
1251:.\Generated_Source\PSoC4/CapSense.c **** 
 668              		.loc 1 1251 0
 669              		@ sp needed
 670              	.LVL87:
 671              	.LVL88:
 672 0028 38BD     		pop	{r3, r4, r5, pc}
 673              	.L42:
 674 002a C046     		.align	2
 675              	.L41:
 676 002c 00000000 		.word	.LANCHOR1
 677              		.cfi_endproc
 678              	.LFE51:
 679              		.size	CapSense_SetDriveModeAllPins, .-CapSense_SetDriveModeAllPins
 680              		.section	.text.CapSense_RestoreDriveModeAllPins,"ax",%progbits
 681              		.align	2
 682              		.global	CapSense_RestoreDriveModeAllPins
 683              		.code	16
 684              		.thumb_func
 685              		.type	CapSense_RestoreDriveModeAllPins, %function
 686              	CapSense_RestoreDriveModeAllPins:
 687              	.LFB52:
1277:.\Generated_Source\PSoC4/CapSense.c ****     uint32 newRegisterValue;
 688              		.loc 1 1277 0
 689              		.cfi_startproc
 690 0000 08B5     		push	{r3, lr}
 691              		.cfi_def_cfa_offset 8
 692              		.cfi_offset 3, -8
 693              		.cfi_offset 14, -4
1280:.\Generated_Source\PSoC4/CapSense.c **** 
 694              		.loc 1 1280 0
 695 0002 0020     		mov	r0, #0
ARM GAS  C:\Users\ALEXAN~1\AppData\Local\Temp\ccazldJ5.s 			page 37


 696 0004 FFF7FEFF 		bl	CapSense_SetDriveModeAllPins
 697              	.LVL89:
1282:.\Generated_Source\PSoC4/CapSense.c ****     newRegisterValue &= ~(CapSense_CSD_CMOD_CONNECTION_MASK);
 698              		.loc 1 1282 0
 699 0008 0349     		ldr	r1, .L44
 700 000a 0B68     		ldr	r3, [r1]
 701              	.LVL90:
1283:.\Generated_Source\PSoC4/CapSense.c ****     newRegisterValue |= CapSense_CSD_CMOD_TO_AMUXBUS_A;
 702              		.loc 1 1283 0
 703 000c 0F22     		mov	r2, #15
 704 000e 9343     		bic	r3, r2
 705              	.LVL91:
1284:.\Generated_Source\PSoC4/CapSense.c ****     CapSense_CMOD_CONNECTION_REG = newRegisterValue;
 706              		.loc 1 1284 0
 707 0010 093A     		sub	r2, r2, #9
 708 0012 1343     		orr	r3, r2
 709              	.LVL92:
1285:.\Generated_Source\PSoC4/CapSense.c **** 
 710              		.loc 1 1285 0
 711 0014 0B60     		str	r3, [r1]
1300:.\Generated_Source\PSoC4/CapSense.c **** 
 712              		.loc 1 1300 0
 713              		@ sp needed
 714 0016 08BD     		pop	{r3, pc}
 715              	.L45:
 716              		.align	2
 717              	.L44:
 718 0018 00040240 		.word	1073873920
 719              		.cfi_endproc
 720              	.LFE52:
 721              		.size	CapSense_RestoreDriveModeAllPins, .-CapSense_RestoreDriveModeAllPins
 722              		.section	.text.CapSense_PreScan,"ax",%progbits
 723              		.align	2
 724              		.global	CapSense_PreScan
 725              		.code	16
 726              		.thumb_func
 727              		.type	CapSense_PreScan, %function
 728              	CapSense_PreScan:
 729              	.LFB54:
1340:.\Generated_Source\PSoC4/CapSense.c **** 
1341:.\Generated_Source\PSoC4/CapSense.c **** 
1342:.\Generated_Source\PSoC4/CapSense.c **** /*******************************************************************************
1343:.\Generated_Source\PSoC4/CapSense.c **** * Function Name: CapSense_PreScan
1344:.\Generated_Source\PSoC4/CapSense.c **** ********************************************************************************
1345:.\Generated_Source\PSoC4/CapSense.c **** *
1346:.\Generated_Source\PSoC4/CapSense.c **** * Summary:
1347:.\Generated_Source\PSoC4/CapSense.c **** *  Sets required settings, enables a sensor, removes Vref from AMUX and starts the
1348:.\Generated_Source\PSoC4/CapSense.c **** *  scanning process of the sensor.
1349:.\Generated_Source\PSoC4/CapSense.c **** *
1350:.\Generated_Source\PSoC4/CapSense.c **** * Parameters:
1351:.\Generated_Source\PSoC4/CapSense.c **** *  sensor:  Sensor number.
1352:.\Generated_Source\PSoC4/CapSense.c **** *
1353:.\Generated_Source\PSoC4/CapSense.c **** * Return:
1354:.\Generated_Source\PSoC4/CapSense.c **** *  None
1355:.\Generated_Source\PSoC4/CapSense.c **** *
1356:.\Generated_Source\PSoC4/CapSense.c **** * Global Variables:
1357:.\Generated_Source\PSoC4/CapSense.c **** * CapSense_widgetNumber[] - This array contains numbers of widgets for each sensor.
ARM GAS  C:\Users\ALEXAN~1\AppData\Local\Temp\ccazldJ5.s 			page 38


1358:.\Generated_Source\PSoC4/CapSense.c **** * CapSense_widgetResolution[] - Contains the widget resolution.
1359:.\Generated_Source\PSoC4/CapSense.c **** *
1360:.\Generated_Source\PSoC4/CapSense.c **** * Side Effects:
1361:.\Generated_Source\PSoC4/CapSense.c **** *  None
1362:.\Generated_Source\PSoC4/CapSense.c **** *
1363:.\Generated_Source\PSoC4/CapSense.c **** *******************************************************************************/
1364:.\Generated_Source\PSoC4/CapSense.c **** void CapSense_PreScan(uint32 sensor)
1365:.\Generated_Source\PSoC4/CapSense.c **** {
 730              		.loc 1 1365 0
 731              		.cfi_startproc
 732              	.LVL93:
 733 0000 70B5     		push	{r4, r5, r6, lr}
 734              		.cfi_def_cfa_offset 16
 735              		.cfi_offset 4, -16
 736              		.cfi_offset 5, -12
 737              		.cfi_offset 6, -8
 738              		.cfi_offset 14, -4
 739 0002 051C     		mov	r5, r0
 740              	.LVL94:
1366:.\Generated_Source\PSoC4/CapSense.c ****     uint8 widget;
1367:.\Generated_Source\PSoC4/CapSense.c ****     uint8 interruptState;
1368:.\Generated_Source\PSoC4/CapSense.c ****     uint32 newRegValue;
1369:.\Generated_Source\PSoC4/CapSense.c ****     uint32 counterResolution;
1370:.\Generated_Source\PSoC4/CapSense.c **** 
1371:.\Generated_Source\PSoC4/CapSense.c ****     #if(CapSense_PRS_OPTIONS == CapSense__PRS_AUTO)
1372:.\Generated_Source\PSoC4/CapSense.c ****         uint8 senseClkDivMath;
1373:.\Generated_Source\PSoC4/CapSense.c ****         uint8 sampleClkDivMath;
1374:.\Generated_Source\PSoC4/CapSense.c ****     #endif /* (CapSense_PRS_OPTIONS == CapSense__PRS_AUTO) */
1375:.\Generated_Source\PSoC4/CapSense.c **** 
1376:.\Generated_Source\PSoC4/CapSense.c ****     #if ((CapSense_TUNING_METHOD == CapSense__TUNING_AUTO) &&\
1377:.\Generated_Source\PSoC4/CapSense.c ****          (0 != CapSense_IS_OVERSAMPLING_EN))
1378:.\Generated_Source\PSoC4/CapSense.c ****         uint32 oversamplingFactor;
1379:.\Generated_Source\PSoC4/CapSense.c ****     #endif /* ((CapSense_TUNING_METHOD == CapSense__TUNING_AUTO) &&\
1380:.\Generated_Source\PSoC4/CapSense.c ****                (0 != CapSense_IS_OVERSAMPLING_EN)) */
1381:.\Generated_Source\PSoC4/CapSense.c **** 
1382:.\Generated_Source\PSoC4/CapSense.c ****     /* Define widget sensor belongs to */
1383:.\Generated_Source\PSoC4/CapSense.c ****     widget = CapSense_widgetNumber[sensor];
1384:.\Generated_Source\PSoC4/CapSense.c **** 
1385:.\Generated_Source\PSoC4/CapSense.c ****     /* Recalculate Counter Resolution to MSB 16 bits */
1386:.\Generated_Source\PSoC4/CapSense.c ****     counterResolution = CapSense_widgetResolution[widget];
1387:.\Generated_Source\PSoC4/CapSense.c **** 
1388:.\Generated_Source\PSoC4/CapSense.c ****     #if ((CapSense_TUNING_METHOD == CapSense__TUNING_AUTO) &&\
1389:.\Generated_Source\PSoC4/CapSense.c ****          (0 != CapSense_IS_OVERSAMPLING_EN))
1390:.\Generated_Source\PSoC4/CapSense.c ****         oversamplingFactor = CapSense_GetBitValue(CapSense_scanSpeedTbl, sensor);
1391:.\Generated_Source\PSoC4/CapSense.c **** 
1392:.\Generated_Source\PSoC4/CapSense.c ****         if(counterResolution < CapSense_RESOLUTION_16_BITS)
1393:.\Generated_Source\PSoC4/CapSense.c ****         {
1394:.\Generated_Source\PSoC4/CapSense.c ****             counterResolution <<= oversamplingFactor;
1395:.\Generated_Source\PSoC4/CapSense.c ****             counterResolution |= (uint32)(CapSense_RESOLUTION_8_BITS);
1396:.\Generated_Source\PSoC4/CapSense.c ****         }
1397:.\Generated_Source\PSoC4/CapSense.c ****     #endif /* ((CapSense_TUNING_METHOD == CapSense__TUNING_AUTO) &&\
1398:.\Generated_Source\PSoC4/CapSense.c ****                (0 != CapSense_IS_OVERSAMPLING_EN)) */
1399:.\Generated_Source\PSoC4/CapSense.c **** 
1400:.\Generated_Source\PSoC4/CapSense.c ****     #if (0u != CapSense_IS_M0S8PERI_BLOCK)
1401:.\Generated_Source\PSoC4/CapSense.c ****         CapSense_SenseClk_Stop();
 741              		.loc 1 1401 0
 742 0004 FFF7FEFF 		bl	CapSense_SenseClk_Stop
ARM GAS  C:\Users\ALEXAN~1\AppData\Local\Temp\ccazldJ5.s 			page 39


 743              	.LVL95:
1402:.\Generated_Source\PSoC4/CapSense.c ****         CapSense_SampleClk_Stop();
 744              		.loc 1 1402 0
 745 0008 FFF7FEFF 		bl	CapSense_SampleClk_Stop
 746              	.LVL96:
1403:.\Generated_Source\PSoC4/CapSense.c ****     #endif /* (0u != CapSense_IS_M0S8PERI_BLOCK) */
1404:.\Generated_Source\PSoC4/CapSense.c **** 
1405:.\Generated_Source\PSoC4/CapSense.c ****     #if (0u != CapSense_MULTIPLE_FREQUENCY_SET)
1406:.\Generated_Source\PSoC4/CapSense.c ****         CapSense_SampleClk_SetDividerValue((uint16)CapSense_sampleClkDividerVal[sensor]);
 747              		.loc 1 1406 0
 748 000c 294C     		ldr	r4, .L48
 749 000e 231C     		mov	r3, r4
 750 0010 6C33     		add	r3, r3, #108
 751 0012 585D     		ldrb	r0, [r3, r5]
 752 0014 0138     		sub	r0, r0, #1
 753 0016 80B2     		uxth	r0, r0
 754 0018 0021     		mov	r1, #0
 755 001a FFF7FEFF 		bl	CapSense_SampleClk_SetFractionalDividerRegister
 756              	.LVL97:
1407:.\Generated_Source\PSoC4/CapSense.c ****         CapSense_SenseClk_SetDividerValue((uint16)CapSense_senseClkDividerVal[sensor]);
 757              		.loc 1 1407 0
 758 001e 7834     		add	r4, r4, #120
 759 0020 605D     		ldrb	r0, [r4, r5]
 760 0022 0138     		sub	r0, r0, #1
 761 0024 80B2     		uxth	r0, r0
 762 0026 0021     		mov	r1, #0
 763 0028 FFF7FEFF 		bl	CapSense_SenseClk_SetFractionalDividerRegister
 764              	.LVL98:
1408:.\Generated_Source\PSoC4/CapSense.c ****     #else
1409:.\Generated_Source\PSoC4/CapSense.c ****         CapSense_SampleClk_SetDividerValue((uint16)CapSense_sampleClkDividerVal);
1410:.\Generated_Source\PSoC4/CapSense.c ****         CapSense_SenseClk_SetDividerValue((uint16)CapSense_senseClkDividerVal);
1411:.\Generated_Source\PSoC4/CapSense.c ****     #endif /* (0u != CapSense_MULTIPLE_FREQUENCY_SET) */
1412:.\Generated_Source\PSoC4/CapSense.c **** 
1413:.\Generated_Source\PSoC4/CapSense.c ****     #if (0u != CapSense_IS_M0S8PERI_BLOCK)
1414:.\Generated_Source\PSoC4/CapSense.c ****         CapSense_SampleClk_Start();
 765              		.loc 1 1414 0
 766 002c FF20     		mov	r0, #255
 767 002e FFF7FEFF 		bl	CapSense_SampleClk_StartEx
 768              	.LVL99:
1415:.\Generated_Source\PSoC4/CapSense.c ****         CapSense_SenseClk_StartEx(CapSense_SampleClk__DIV_ID);
 769              		.loc 1 1415 0
 770 0032 4020     		mov	r0, #64
 771 0034 FFF7FEFF 		bl	CapSense_SenseClk_StartEx
 772              	.LVL100:
1416:.\Generated_Source\PSoC4/CapSense.c **** 
1417:.\Generated_Source\PSoC4/CapSense.c ****         #if(CapSense_PRS_OPTIONS == CapSense__PRS_NONE)
1418:.\Generated_Source\PSoC4/CapSense.c ****             CyIntDisable(CapSense_ISR_NUMBER);
 773              		.loc 1 1418 0
 774 0038 1020     		mov	r0, #16
 775 003a FFF7FEFF 		bl	CyIntDisable
 776              	.LVL101:
1419:.\Generated_Source\PSoC4/CapSense.c ****             CapSense_CSD_CNT_REG = CapSense_ONE_CYCLE;
 777              		.loc 1 1419 0
 778 003e 8022     		mov	r2, #128
 779 0040 5202     		lsl	r2, r2, #9
 780 0042 1D4B     		ldr	r3, .L48+4
 781 0044 1A60     		str	r2, [r3]
ARM GAS  C:\Users\ALEXAN~1\AppData\Local\Temp\ccazldJ5.s 			page 40


 782              	.L47:
1420:.\Generated_Source\PSoC4/CapSense.c ****             while(0u != (CapSense_CSD_CNT_REG & CapSense_RESOLUTION_16_BITS))
 783              		.loc 1 1420 0 discriminator 1
 784 0046 1C4B     		ldr	r3, .L48+4
 785 0048 1B68     		ldr	r3, [r3]
 786 004a 1B0C     		lsr	r3, r3, #16
 787 004c FBD1     		bne	.L47
1421:.\Generated_Source\PSoC4/CapSense.c ****             {
1422:.\Generated_Source\PSoC4/CapSense.c ****             /* Wait until scanning is complete */
1423:.\Generated_Source\PSoC4/CapSense.c ****             }
1424:.\Generated_Source\PSoC4/CapSense.c ****             CapSense_CSD_INTR_REG = 1u;
 788              		.loc 1 1424 0
 789 004e 0122     		mov	r2, #1
 790 0050 1A4B     		ldr	r3, .L48+8
 791 0052 1A60     		str	r2, [r3]
1425:.\Generated_Source\PSoC4/CapSense.c ****             CyIntClearPending(CapSense_ISR_NUMBER);
 792              		.loc 1 1425 0
 793 0054 1020     		mov	r0, #16
 794 0056 FFF7FEFF 		bl	CyIntClearPending
 795              	.LVL102:
1426:.\Generated_Source\PSoC4/CapSense.c ****             CyIntEnable(CapSense_ISR_NUMBER);
 796              		.loc 1 1426 0
 797 005a 1020     		mov	r0, #16
 798 005c FFF7FEFF 		bl	CyIntEnable
 799              	.LVL103:
1427:.\Generated_Source\PSoC4/CapSense.c ****         #endif /* CapSense_PRS_OPTIONS == CapSense__PRS_NONE */
1428:.\Generated_Source\PSoC4/CapSense.c ****     #endif /* (0u != CapSense_IS_M0S8PERI_BLOCK) */
1429:.\Generated_Source\PSoC4/CapSense.c **** 
1430:.\Generated_Source\PSoC4/CapSense.c **** #if(CapSense_PRS_OPTIONS != CapSense__PRS_NONE)
1431:.\Generated_Source\PSoC4/CapSense.c **** 
1432:.\Generated_Source\PSoC4/CapSense.c ****     #if(CapSense_TUNING_METHOD == CapSense__TUNING_AUTO)
1433:.\Generated_Source\PSoC4/CapSense.c ****         if(CapSense_prescalersTuningDone != 0u)
1434:.\Generated_Source\PSoC4/CapSense.c ****         {
1435:.\Generated_Source\PSoC4/CapSense.c ****     #endif /* (CapSense_TUNING_METHOD == CapSense__TUNING_AUTO) */
1436:.\Generated_Source\PSoC4/CapSense.c **** 
1437:.\Generated_Source\PSoC4/CapSense.c ****             CyIntDisable(CapSense_ISR_NUMBER);
1438:.\Generated_Source\PSoC4/CapSense.c **** 
1439:.\Generated_Source\PSoC4/CapSense.c ****             newRegValue = CapSense_CSD_CFG_REG;
1440:.\Generated_Source\PSoC4/CapSense.c ****             newRegValue |= CapSense_CSD_CFG_PRS_SELECT;
1441:.\Generated_Source\PSoC4/CapSense.c **** 
1442:.\Generated_Source\PSoC4/CapSense.c ****             #if(CapSense_PRS_OPTIONS == CapSense__PRS_AUTO)
1443:.\Generated_Source\PSoC4/CapSense.c **** 
1444:.\Generated_Source\PSoC4/CapSense.c ****                 newRegValue &= ~(CapSense_PRS_MODE_MASK);
1445:.\Generated_Source\PSoC4/CapSense.c **** 
1446:.\Generated_Source\PSoC4/CapSense.c ****                 #if (0u != CapSense_MULTIPLE_FREQUENCY_SET)
1447:.\Generated_Source\PSoC4/CapSense.c ****                     senseClkDivMath = CapSense_senseClkDividerVal[sensor];
1448:.\Generated_Source\PSoC4/CapSense.c ****                     sampleClkDivMath = CapSense_sampleClkDividerVal[sensor];
1449:.\Generated_Source\PSoC4/CapSense.c ****                 #else
1450:.\Generated_Source\PSoC4/CapSense.c ****                     senseClkDivMath = CapSense_senseClkDividerVal;
1451:.\Generated_Source\PSoC4/CapSense.c ****                     sampleClkDivMath = CapSense_sampleClkDividerVal;
1452:.\Generated_Source\PSoC4/CapSense.c ****                 #endif /* ( CapSense_MULTIPLE_FREQUENCY_SET) */
1453:.\Generated_Source\PSoC4/CapSense.c **** 
1454:.\Generated_Source\PSoC4/CapSense.c ****                 #if(0u == CapSense_IS_M0S8PERI_BLOCK)
1455:.\Generated_Source\PSoC4/CapSense.c ****                     senseClkDivMath *= sampleClkDivMath;
1456:.\Generated_Source\PSoC4/CapSense.c ****                 #endif /* (0u == CapSense_IS_M0S8PERI_BLOCK) */
1457:.\Generated_Source\PSoC4/CapSense.c **** 
1458:.\Generated_Source\PSoC4/CapSense.c ****                 if((senseClkDivMath * CapSense_RESOLUTION_12_BITS) <
ARM GAS  C:\Users\ALEXAN~1\AppData\Local\Temp\ccazldJ5.s 			page 41


1459:.\Generated_Source\PSoC4/CapSense.c ****                    (sampleClkDivMath * CapSense_widgetResolution[widget]))
1460:.\Generated_Source\PSoC4/CapSense.c ****                 {
1461:.\Generated_Source\PSoC4/CapSense.c ****                     newRegValue |= CapSense_CSD_PRS_12_BIT;
1462:.\Generated_Source\PSoC4/CapSense.c ****                 }
1463:.\Generated_Source\PSoC4/CapSense.c ****             #endif /* (CapSense_PRS_OPTIONS == CapSense__PRS_AUTO) */
1464:.\Generated_Source\PSoC4/CapSense.c **** 
1465:.\Generated_Source\PSoC4/CapSense.c ****             CapSense_CSD_CFG_REG = newRegValue;
1466:.\Generated_Source\PSoC4/CapSense.c **** 
1467:.\Generated_Source\PSoC4/CapSense.c ****             CyIntEnable(CapSense_ISR_NUMBER);
1468:.\Generated_Source\PSoC4/CapSense.c **** 
1469:.\Generated_Source\PSoC4/CapSense.c ****     #if(CapSense_TUNING_METHOD == CapSense__TUNING_AUTO)
1470:.\Generated_Source\PSoC4/CapSense.c ****         }
1471:.\Generated_Source\PSoC4/CapSense.c ****     #endif /* (CapSense_PRS_OPTIONS != CapSense__PRS_NONE) */
1472:.\Generated_Source\PSoC4/CapSense.c **** 
1473:.\Generated_Source\PSoC4/CapSense.c **** #endif /* (CapSense_PRS_OPTIONS == CapSense__PRS_NONE) */
1474:.\Generated_Source\PSoC4/CapSense.c **** 
1475:.\Generated_Source\PSoC4/CapSense.c ****     /* Set Idac Value */
1476:.\Generated_Source\PSoC4/CapSense.c ****     CyIntDisable(CapSense_ISR_NUMBER);
 800              		.loc 1 1476 0
 801 0060 1020     		mov	r0, #16
 802 0062 FFF7FEFF 		bl	CyIntDisable
 803              	.LVL104:
1477:.\Generated_Source\PSoC4/CapSense.c ****     newRegValue = CapSense_CSD_IDAC_REG;
 804              		.loc 1 1477 0
 805 0066 1648     		ldr	r0, .L48+12
 806 0068 0268     		ldr	r2, [r0]
 807              	.LVL105:
1478:.\Generated_Source\PSoC4/CapSense.c **** 
1479:.\Generated_Source\PSoC4/CapSense.c **** #if (CapSense_IDAC_CNT == 1u)
1480:.\Generated_Source\PSoC4/CapSense.c ****     newRegValue &= ~(CapSense_CSD_IDAC1_DATA_MASK);
1481:.\Generated_Source\PSoC4/CapSense.c ****     newRegValue |= CapSense_modulationIDAC[sensor];
1482:.\Generated_Source\PSoC4/CapSense.c **** #else
1483:.\Generated_Source\PSoC4/CapSense.c ****     newRegValue &= ~(CapSense_CSD_IDAC1_DATA_MASK | CapSense_CSD_IDAC2_DATA_MASK);
 808              		.loc 1 1483 0
 809 006a 164B     		ldr	r3, .L48+16
 810 006c 1A40     		and	r2, r3
 811              	.LVL106:
1484:.\Generated_Source\PSoC4/CapSense.c ****     newRegValue |= (CapSense_modulationIDAC[sensor] |
 812              		.loc 1 1484 0
 813 006e 1649     		ldr	r1, .L48+20
 814 0070 4919     		add	r1, r1, r5
 815 0072 0C79     		ldrb	r4, [r1, #4]
1485:.\Generated_Source\PSoC4/CapSense.c ****                             (uint32)((uint32)CapSense_compensationIDAC[sensor] <<
 816              		.loc 1 1485 0
 817 0074 0B7C     		ldrb	r3, [r1, #16]
 818 0076 1B04     		lsl	r3, r3, #16
1484:.\Generated_Source\PSoC4/CapSense.c ****     newRegValue |= (CapSense_modulationIDAC[sensor] |
 819              		.loc 1 1484 0
 820 0078 2343     		orr	r3, r4
 821 007a 1343     		orr	r3, r2
 822              	.LVL107:
1486:.\Generated_Source\PSoC4/CapSense.c ****                             CapSense_CSD_IDAC2_DATA_OFFSET));
1487:.\Generated_Source\PSoC4/CapSense.c **** #endif /* (CapSense_IDAC_CNT == 1u) */
1488:.\Generated_Source\PSoC4/CapSense.c **** 
1489:.\Generated_Source\PSoC4/CapSense.c ****     CapSense_CSD_IDAC_REG = newRegValue;
 823              		.loc 1 1489 0
 824 007c 0360     		str	r3, [r0]
ARM GAS  C:\Users\ALEXAN~1\AppData\Local\Temp\ccazldJ5.s 			page 42


1490:.\Generated_Source\PSoC4/CapSense.c **** 
1491:.\Generated_Source\PSoC4/CapSense.c **** #if(CapSense_CMOD_PREGARGE_OPTION == CapSense__CAPPRIOBUF)
1492:.\Generated_Source\PSoC4/CapSense.c ****     newRegValue = CapSense_CMOD_CONNECTION_REG;
1493:.\Generated_Source\PSoC4/CapSense.c ****     newRegValue &= ~(CapSense_CSD_CMOD_CONNECTION_MASK);
1494:.\Generated_Source\PSoC4/CapSense.c ****     newRegValue |= CapSense_CSD_CMOD_TO_AMUXBUS_A;
1495:.\Generated_Source\PSoC4/CapSense.c ****     CapSense_CMOD_CONNECTION_REG = newRegValue;
1496:.\Generated_Source\PSoC4/CapSense.c **** 
1497:.\Generated_Source\PSoC4/CapSense.c ****     newRegValue = CapSense_CMOD_PORT_PC_REG;
1498:.\Generated_Source\PSoC4/CapSense.c ****     newRegValue &= ~(CapSense_CSD_CMOD_PC_MASK);
1499:.\Generated_Source\PSoC4/CapSense.c ****     newRegValue |= CapSense_CMOD_PC_HIGH_Z_MODE;
1500:.\Generated_Source\PSoC4/CapSense.c ****     CapSense_CMOD_PORT_PC_REG = newRegValue;
1501:.\Generated_Source\PSoC4/CapSense.c **** #endif /* (CapSense_CMOD_PREGARGE_OPTION == CapSense__CAPPRIOBUF) */
1502:.\Generated_Source\PSoC4/CapSense.c **** 
1503:.\Generated_Source\PSoC4/CapSense.c ****     /* Disconnect Vref Buffer from AMUX */
1504:.\Generated_Source\PSoC4/CapSense.c ****     newRegValue = CapSense_CSD_CFG_REG;
 825              		.loc 1 1504 0
 826 007e 134E     		ldr	r6, .L48+24
 827 0080 3468     		ldr	r4, [r6]
 828              	.LVL108:
1505:.\Generated_Source\PSoC4/CapSense.c ****     newRegValue &= ~(CapSense_PRECHARGE_CONFIG_MASK);
 829              		.loc 1 1505 0
 830 0082 134B     		ldr	r3, .L48+28
 831 0084 1C40     		and	r4, r3
 832              	.LVL109:
1506:.\Generated_Source\PSoC4/CapSense.c ****     newRegValue |= CapSense_CTANK_PRECHARGE_CONFIG;
 833              		.loc 1 1506 0
 834 0086 134B     		ldr	r3, .L48+32
 835 0088 1C43     		orr	r4, r3
 836              	.LVL110:
1507:.\Generated_Source\PSoC4/CapSense.c **** 
1508:.\Generated_Source\PSoC4/CapSense.c ****     CyIntEnable(CapSense_ISR_NUMBER);
 837              		.loc 1 1508 0
 838 008a 1020     		mov	r0, #16
 839 008c FFF7FEFF 		bl	CyIntEnable
 840              	.LVL111:
1509:.\Generated_Source\PSoC4/CapSense.c **** 
1510:.\Generated_Source\PSoC4/CapSense.c ****     /* Enable Sensor */
1511:.\Generated_Source\PSoC4/CapSense.c ****     CapSense_EnableScanSlot(sensor);
 841              		.loc 1 1511 0
 842 0090 281C     		mov	r0, r5
 843 0092 FFF7FEFF 		bl	CapSense_EnableSensor
 844              	.LVL112:
1512:.\Generated_Source\PSoC4/CapSense.c **** 
1513:.\Generated_Source\PSoC4/CapSense.c ****     interruptState = CyEnterCriticalSection();
 845              		.loc 1 1513 0
 846 0096 FFF7FEFF 		bl	CyEnterCriticalSection
 847              	.LVL113:
 848 009a 051C     		mov	r5, r0
 849              	.LVL114:
1514:.\Generated_Source\PSoC4/CapSense.c ****     CapSense_CSD_CFG_REG = newRegValue;
 850              		.loc 1 1514 0
 851 009c 3460     		str	r4, [r6]
1515:.\Generated_Source\PSoC4/CapSense.c **** 
1516:.\Generated_Source\PSoC4/CapSense.c ****     /* `#START CapSense_PreSettlingDelay_Debug` */
1517:.\Generated_Source\PSoC4/CapSense.c **** 
1518:.\Generated_Source\PSoC4/CapSense.c ****     /* `#END` */
1519:.\Generated_Source\PSoC4/CapSense.c ****     
ARM GAS  C:\Users\ALEXAN~1\AppData\Local\Temp\ccazldJ5.s 			page 43


1520:.\Generated_Source\PSoC4/CapSense.c **** #ifdef CapSense_PRE_SCAN_PRE_SETTLING_DELAY_DEBUG_CALLBACK
1521:.\Generated_Source\PSoC4/CapSense.c ****     CapSense_PreScan_Pre_SettlingDelay_Debug_Callback();
1522:.\Generated_Source\PSoC4/CapSense.c **** #endif /* CapSense_PRE_SCAN_PRE_SETTLING_DELAY_DEBUG_CALLBACK */
1523:.\Generated_Source\PSoC4/CapSense.c **** 
1524:.\Generated_Source\PSoC4/CapSense.c ****     CyDelayCycles(CapSense_GLITCH_ELIMINATION_CYCLES);
 852              		.loc 1 1524 0
 853 009e 0020     		mov	r0, #0
 854 00a0 FFF7FEFF 		bl	CyDelayCycles
 855              	.LVL115:
1525:.\Generated_Source\PSoC4/CapSense.c **** 
1526:.\Generated_Source\PSoC4/CapSense.c ****     /* `#START CapSense_PreScan_Debug` */
1527:.\Generated_Source\PSoC4/CapSense.c **** 
1528:.\Generated_Source\PSoC4/CapSense.c ****     /* `#END` */
1529:.\Generated_Source\PSoC4/CapSense.c ****     
1530:.\Generated_Source\PSoC4/CapSense.c **** #ifdef CapSense_PRE_SCAN_DEBUG_CALLBACK
1531:.\Generated_Source\PSoC4/CapSense.c ****     CapSense_PreScan_Debug_Callback();
1532:.\Generated_Source\PSoC4/CapSense.c **** #endif /* CapSense_PRE_SCAN_DEBUG_CALLBACK */
1533:.\Generated_Source\PSoC4/CapSense.c **** 
1534:.\Generated_Source\PSoC4/CapSense.c ****     CapSense_CSD_CNT_REG = counterResolution;
 856              		.loc 1 1534 0
 857 00a4 0C4A     		ldr	r2, .L48+36
 858 00a6 044B     		ldr	r3, .L48+4
 859 00a8 1A60     		str	r2, [r3]
1535:.\Generated_Source\PSoC4/CapSense.c ****     CyExitCriticalSection(interruptState);
 860              		.loc 1 1535 0
 861 00aa 281C     		mov	r0, r5
 862 00ac FFF7FEFF 		bl	CyExitCriticalSection
 863              	.LVL116:
1536:.\Generated_Source\PSoC4/CapSense.c **** }
 864              		.loc 1 1536 0
 865              		@ sp needed
 866              	.LVL117:
 867              	.LVL118:
 868 00b0 70BD     		pop	{r4, r5, r6, pc}
 869              	.L49:
 870 00b2 C046     		.align	2
 871              	.L48:
 872 00b4 00000000 		.word	.LANCHOR1
 873 00b8 0C002840 		.word	1076363276
 874 00bc 14002840 		.word	1076363284
 875 00c0 08002840 		.word	1076363272
 876 00c4 00FF80FF 		.word	-8323328
 877 00c8 80000000 		.word	.LANCHOR2
 878 00cc 04002840 		.word	1076363268
 879 00d0 FF1FDFFF 		.word	-2154497
 880 00d4 20E02000 		.word	2154528
 881 00d8 0000FFFF 		.word	-65536
 882              		.cfi_endproc
 883              	.LFE54:
 884              		.size	CapSense_PreScan, .-CapSense_PreScan
 885              		.section	.text.CapSense_ScanSensor,"ax",%progbits
 886              		.align	2
 887              		.global	CapSense_ScanSensor
 888              		.code	16
 889              		.thumb_func
 890              		.type	CapSense_ScanSensor, %function
 891              	CapSense_ScanSensor:
ARM GAS  C:\Users\ALEXAN~1\AppData\Local\Temp\ccazldJ5.s 			page 44


 892              	.LFB41:
 584:.\Generated_Source\PSoC4/CapSense.c ****     /* Clears status/control variable and set sensorIndex */
 893              		.loc 1 584 0
 894              		.cfi_startproc
 895              	.LVL119:
 896 0000 08B5     		push	{r3, lr}
 897              		.cfi_def_cfa_offset 8
 898              		.cfi_offset 3, -8
 899              		.cfi_offset 14, -4
 586:.\Generated_Source\PSoC4/CapSense.c ****     CapSense_sensorIndex = (uint8)sensor;
 900              		.loc 1 586 0
 901 0002 054B     		ldr	r3, .L51
 902 0004 0022     		mov	r2, #0
 903 0006 1A70     		strb	r2, [r3]
 587:.\Generated_Source\PSoC4/CapSense.c **** 
 904              		.loc 1 587 0
 905 0008 C2B2     		uxtb	r2, r0
 906 000a 1A76     		strb	r2, [r3, #24]
 590:.\Generated_Source\PSoC4/CapSense.c ****     CapSense_PreScan(sensor);
 907              		.loc 1 590 0
 908 000c 8122     		mov	r2, #129
 909 000e 1A70     		strb	r2, [r3]
 591:.\Generated_Source\PSoC4/CapSense.c **** }
 910              		.loc 1 591 0
 911 0010 FFF7FEFF 		bl	CapSense_PreScan
 912              	.LVL120:
 592:.\Generated_Source\PSoC4/CapSense.c **** 
 913              		.loc 1 592 0
 914              		@ sp needed
 915 0014 08BD     		pop	{r3, pc}
 916              	.L52:
 917 0016 C046     		.align	2
 918              	.L51:
 919 0018 00000000 		.word	.LANCHOR0
 920              		.cfi_endproc
 921              	.LFE41:
 922              		.size	CapSense_ScanSensor, .-CapSense_ScanSensor
 923              		.section	.text.CapSense_PostScan,"ax",%progbits
 924              		.align	2
 925              		.global	CapSense_PostScan
 926              		.code	16
 927              		.thumb_func
 928              		.type	CapSense_PostScan, %function
 929              	CapSense_PostScan:
 930              	.LFB55:
1537:.\Generated_Source\PSoC4/CapSense.c **** 
1538:.\Generated_Source\PSoC4/CapSense.c **** 
1539:.\Generated_Source\PSoC4/CapSense.c **** /*******************************************************************************
1540:.\Generated_Source\PSoC4/CapSense.c **** * Function Name: CapSense_PostScan
1541:.\Generated_Source\PSoC4/CapSense.c **** ********************************************************************************
1542:.\Generated_Source\PSoC4/CapSense.c **** *
1543:.\Generated_Source\PSoC4/CapSense.c **** * Summary:
1544:.\Generated_Source\PSoC4/CapSense.c **** *  Stores the results of measurement in the CapSense_sensorRaw[] array,
1545:.\Generated_Source\PSoC4/CapSense.c **** *  sets the scanning sensor in the non-sampling state, turns off Idac(Current Source IDAC),
1546:.\Generated_Source\PSoC4/CapSense.c **** *  disconnects the IDAC(Sink mode), and applies Vref on AMUX.
1547:.\Generated_Source\PSoC4/CapSense.c **** *
1548:.\Generated_Source\PSoC4/CapSense.c **** * Parameters:
ARM GAS  C:\Users\ALEXAN~1\AppData\Local\Temp\ccazldJ5.s 			page 45


1549:.\Generated_Source\PSoC4/CapSense.c **** *  sensor:  Sensor number.
1550:.\Generated_Source\PSoC4/CapSense.c **** *
1551:.\Generated_Source\PSoC4/CapSense.c **** * Return:
1552:.\Generated_Source\PSoC4/CapSense.c **** *  None
1553:.\Generated_Source\PSoC4/CapSense.c **** *
1554:.\Generated_Source\PSoC4/CapSense.c **** * Global Variables:
1555:.\Generated_Source\PSoC4/CapSense.c **** *  CapSense_sensorRaw[] - used to store sensors raw data.
1556:.\Generated_Source\PSoC4/CapSense.c **** *
1557:.\Generated_Source\PSoC4/CapSense.c **** * Side Effects:
1558:.\Generated_Source\PSoC4/CapSense.c **** *  None
1559:.\Generated_Source\PSoC4/CapSense.c **** *
1560:.\Generated_Source\PSoC4/CapSense.c **** *******************************************************************************/
1561:.\Generated_Source\PSoC4/CapSense.c **** void CapSense_PostScan(uint32 sensor)
1562:.\Generated_Source\PSoC4/CapSense.c **** {
 931              		.loc 1 1562 0
 932              		.cfi_startproc
 933              	.LVL121:
 934 0000 08B5     		push	{r3, lr}
 935              		.cfi_def_cfa_offset 8
 936              		.cfi_offset 3, -8
 937              		.cfi_offset 14, -4
1563:.\Generated_Source\PSoC4/CapSense.c ****     uint32 newRegValue;
1564:.\Generated_Source\PSoC4/CapSense.c **** #if ((CapSense_TUNING_METHOD == CapSense__TUNING_AUTO) &&\
1565:.\Generated_Source\PSoC4/CapSense.c ****      (0 != CapSense_IS_OVERSAMPLING_EN))
1566:.\Generated_Source\PSoC4/CapSense.c ****     uint32 oversamplingFactor;
1567:.\Generated_Source\PSoC4/CapSense.c ****     uint32 widget;
1568:.\Generated_Source\PSoC4/CapSense.c **** #endif /* ((CapSense_TUNING_METHOD == CapSense__TUNING_AUTO) &&\
1569:.\Generated_Source\PSoC4/CapSense.c ****            (0 != CapSense_IS_OVERSAMPLING_EN)) */
1570:.\Generated_Source\PSoC4/CapSense.c **** 
1571:.\Generated_Source\PSoC4/CapSense.c ****     /* `#START CapSense_PostScan_Debug` */
1572:.\Generated_Source\PSoC4/CapSense.c **** 
1573:.\Generated_Source\PSoC4/CapSense.c ****     /* `#END` */
1574:.\Generated_Source\PSoC4/CapSense.c ****     
1575:.\Generated_Source\PSoC4/CapSense.c **** #ifdef CapSense_POST_SCAN_DEBUG_CALLBACK
1576:.\Generated_Source\PSoC4/CapSense.c ****     CapSense_PostScan_Debug_Callback();
1577:.\Generated_Source\PSoC4/CapSense.c **** #endif /* CapSense_POST_SCAN_DEBUG_Callback */
1578:.\Generated_Source\PSoC4/CapSense.c **** 
1579:.\Generated_Source\PSoC4/CapSense.c ****     /* Read SlotResult from Raw Counter */
1580:.\Generated_Source\PSoC4/CapSense.c ****     CapSense_sensorRaw[sensor]  = (uint16)CapSense_CSD_CNT_REG;
 938              		.loc 1 1580 0
 939 0002 0E4B     		ldr	r3, .L54
 940 0004 1A68     		ldr	r2, [r3]
 941 0006 4300     		lsl	r3, r0, #1
 942 0008 0D49     		ldr	r1, .L54+4
 943 000a CB18     		add	r3, r1, r3
 944 000c 9A80     		strh	r2, [r3, #4]
1581:.\Generated_Source\PSoC4/CapSense.c **** 
1582:.\Generated_Source\PSoC4/CapSense.c **** #if ((CapSense_TUNING_METHOD == CapSense__TUNING_AUTO) &&\
1583:.\Generated_Source\PSoC4/CapSense.c ****      (0 != CapSense_IS_OVERSAMPLING_EN))
1584:.\Generated_Source\PSoC4/CapSense.c ****     widget = CapSense_widgetNumber[sensor];
1585:.\Generated_Source\PSoC4/CapSense.c ****     if(CapSense_widgetResolution[widget] < CapSense_RESOLUTION_16_BITS)
1586:.\Generated_Source\PSoC4/CapSense.c ****     {
1587:.\Generated_Source\PSoC4/CapSense.c ****         oversamplingFactor = CapSense_GetBitValue(CapSense_scanSpeedTbl, sensor);
1588:.\Generated_Source\PSoC4/CapSense.c ****         CapSense_sensorRaw[sensor] >>= oversamplingFactor;
1589:.\Generated_Source\PSoC4/CapSense.c ****     }
1590:.\Generated_Source\PSoC4/CapSense.c **** #endif /* ((CapSense_TUNING_METHOD == CapSense__TUNING_AUTO) &&\
1591:.\Generated_Source\PSoC4/CapSense.c ****            (0 != CapSense_IS_OVERSAMPLING_EN)) */
ARM GAS  C:\Users\ALEXAN~1\AppData\Local\Temp\ccazldJ5.s 			page 46


1592:.\Generated_Source\PSoC4/CapSense.c **** 
1593:.\Generated_Source\PSoC4/CapSense.c ****     /* Disable Sensor */
1594:.\Generated_Source\PSoC4/CapSense.c ****     CapSense_DisableScanSlot(sensor);
 945              		.loc 1 1594 0
 946 000e FFF7FEFF 		bl	CapSense_DisableSensor
 947              	.LVL122:
1595:.\Generated_Source\PSoC4/CapSense.c **** 
1596:.\Generated_Source\PSoC4/CapSense.c ****     CyIntDisable(CapSense_ISR_NUMBER);
 948              		.loc 1 1596 0
 949 0012 1020     		mov	r0, #16
 950 0014 FFF7FEFF 		bl	CyIntDisable
 951              	.LVL123:
1597:.\Generated_Source\PSoC4/CapSense.c **** 
1598:.\Generated_Source\PSoC4/CapSense.c **** #if(CapSense_CMOD_PREGARGE_OPTION == CapSense__CAPPRIOBUF)
1599:.\Generated_Source\PSoC4/CapSense.c ****     newRegValue = CapSense_CMOD_CONNECTION_REG;
1600:.\Generated_Source\PSoC4/CapSense.c ****     newRegValue &= ~(CapSense_CSD_CMOD_CONNECTION_MASK);
1601:.\Generated_Source\PSoC4/CapSense.c ****     newRegValue |= CapSense_CSD_CMOD_TO_AMUXBUS_B;
1602:.\Generated_Source\PSoC4/CapSense.c ****     CapSense_CMOD_CONNECTION_REG = newRegValue;
1603:.\Generated_Source\PSoC4/CapSense.c **** 
1604:.\Generated_Source\PSoC4/CapSense.c ****     newRegValue = CapSense_CMOD_PORT_PC_REG;
1605:.\Generated_Source\PSoC4/CapSense.c ****     newRegValue &= ~(CapSense_CSD_CMOD_PC_MASK);
1606:.\Generated_Source\PSoC4/CapSense.c ****     newRegValue |= CapSense_CMOD_PC_STRONG_MODE;
1607:.\Generated_Source\PSoC4/CapSense.c ****     CapSense_CMOD_PORT_PC_REG = newRegValue;
1608:.\Generated_Source\PSoC4/CapSense.c **** 
1609:.\Generated_Source\PSoC4/CapSense.c ****     newRegValue = CapSense_CMOD_PORT_DR_REG;
1610:.\Generated_Source\PSoC4/CapSense.c ****     newRegValue &= ~(CapSense_CMOD_DR_MASK);
1611:.\Generated_Source\PSoC4/CapSense.c ****     newRegValue |= CapSense_CMOD_DR_CONFIG;
1612:.\Generated_Source\PSoC4/CapSense.c ****     CapSense_CMOD_PORT_DR_REG = newRegValue;
1613:.\Generated_Source\PSoC4/CapSense.c **** #endif /* (CapSense_CMOD_PREGARGE_OPTION == CapSense__CAPPRIOBUF) */
1614:.\Generated_Source\PSoC4/CapSense.c **** 
1615:.\Generated_Source\PSoC4/CapSense.c ****     /* Connect Vref Buffer to AMUX bus  */
1616:.\Generated_Source\PSoC4/CapSense.c ****     newRegValue = CapSense_CSD_CFG_REG;
 952              		.loc 1 1616 0
 953 0018 0A4A     		ldr	r2, .L54+8
 954 001a 1168     		ldr	r1, [r2]
 955              	.LVL124:
1617:.\Generated_Source\PSoC4/CapSense.c ****     newRegValue &= ~(CapSense_PRECHARGE_CONFIG_MASK);
 956              		.loc 1 1617 0
 957 001c 0A4B     		ldr	r3, .L54+12
 958 001e 0B40     		and	r3, r1
 959              	.LVL125:
1618:.\Generated_Source\PSoC4/CapSense.c ****     newRegValue |= CapSense_CMOD_PRECHARGE_CONFIG;
 960              		.loc 1 1618 0
 961 0020 A021     		mov	r1, #160
 962 0022 0902     		lsl	r1, r1, #8
 963 0024 0B43     		orr	r3, r1
 964              	.LVL126:
1619:.\Generated_Source\PSoC4/CapSense.c ****     CapSense_CSD_CFG_REG = newRegValue;
 965              		.loc 1 1619 0
 966 0026 1360     		str	r3, [r2]
1620:.\Generated_Source\PSoC4/CapSense.c **** 
1621:.\Generated_Source\PSoC4/CapSense.c ****     /* Set Idac Value = 0 */
1622:.\Generated_Source\PSoC4/CapSense.c **** #if (CapSense_IDAC_CNT == 1u)
1623:.\Generated_Source\PSoC4/CapSense.c ****     CapSense_CSD_IDAC_REG &= ~(CapSense_CSD_IDAC1_DATA_MASK);
1624:.\Generated_Source\PSoC4/CapSense.c **** #else
1625:.\Generated_Source\PSoC4/CapSense.c ****     CapSense_CSD_IDAC_REG &= ~(CapSense_CSD_IDAC1_DATA_MASK | CapSense_CSD_IDAC2_DATA_MASK);
 967              		.loc 1 1625 0
ARM GAS  C:\Users\ALEXAN~1\AppData\Local\Temp\ccazldJ5.s 			page 47


 968 0028 084A     		ldr	r2, .L54+16
 969 002a 1168     		ldr	r1, [r2]
 970 002c 084B     		ldr	r3, .L54+20
 971              	.LVL127:
 972 002e 0B40     		and	r3, r1
 973 0030 1360     		str	r3, [r2]
 974              	.LVL128:
1626:.\Generated_Source\PSoC4/CapSense.c **** #endif /* (CapSense_IDAC_CNT == 1u) */
1627:.\Generated_Source\PSoC4/CapSense.c **** 
1628:.\Generated_Source\PSoC4/CapSense.c ****     CyIntEnable(CapSense_ISR_NUMBER);
 975              		.loc 1 1628 0
 976 0032 1020     		mov	r0, #16
 977 0034 FFF7FEFF 		bl	CyIntEnable
 978              	.LVL129:
1629:.\Generated_Source\PSoC4/CapSense.c **** }
 979              		.loc 1 1629 0
 980              		@ sp needed
 981 0038 08BD     		pop	{r3, pc}
 982              	.L55:
 983 003a C046     		.align	2
 984              	.L54:
 985 003c 0C002840 		.word	1076363276
 986 0040 00000000 		.word	.LANCHOR0
 987 0044 04002840 		.word	1076363268
 988 0048 FF1FDFFF 		.word	-2154497
 989 004c 08002840 		.word	1076363272
 990 0050 00FF80FF 		.word	-8323328
 991              		.cfi_endproc
 992              	.LFE55:
 993              		.size	CapSense_PostScan, .-CapSense_PostScan
 994              		.section	.text.CapSense_EnableShieldElectrode,"ax",%progbits
 995              		.align	2
 996              		.global	CapSense_EnableShieldElectrode
 997              		.code	16
 998              		.thumb_func
 999              		.type	CapSense_EnableShieldElectrode, %function
 1000              	CapSense_EnableShieldElectrode:
 1001              	.LFB56:
1630:.\Generated_Source\PSoC4/CapSense.c **** 
1631:.\Generated_Source\PSoC4/CapSense.c **** 
1632:.\Generated_Source\PSoC4/CapSense.c **** /*******************************************************************************
1633:.\Generated_Source\PSoC4/CapSense.c **** * Function Name: CapSense_EnableShieldElectrode
1634:.\Generated_Source\PSoC4/CapSense.c **** ********************************************************************************
1635:.\Generated_Source\PSoC4/CapSense.c **** *
1636:.\Generated_Source\PSoC4/CapSense.c **** * Summary:
1637:.\Generated_Source\PSoC4/CapSense.c **** *  This API enables or disables the shield electrode on a specified port pin.
1638:.\Generated_Source\PSoC4/CapSense.c **** *
1639:.\Generated_Source\PSoC4/CapSense.c **** * Parameters:
1640:.\Generated_Source\PSoC4/CapSense.c **** *  portNumber: contains the shield electrode port number (0, 1, 2).
1641:.\Generated_Source\PSoC4/CapSense.c **** *  pinNumber: contains the shield electrode pin number (0, 1, 2, ... , 7).
1642:.\Generated_Source\PSoC4/CapSense.c **** *
1643:.\Generated_Source\PSoC4/CapSense.c **** * Return:
1644:.\Generated_Source\PSoC4/CapSense.c **** *  None
1645:.\Generated_Source\PSoC4/CapSense.c **** *
1646:.\Generated_Source\PSoC4/CapSense.c **** * Global Variables:
1647:.\Generated_Source\PSoC4/CapSense.c **** *  CapSense_prtCfgTbl[] - Contains pointers to the port config registers for each port.
1648:.\Generated_Source\PSoC4/CapSense.c **** *  CapSense_prtSelTbl[] - Contains pointers to the HSIOM registers for each port.
ARM GAS  C:\Users\ALEXAN~1\AppData\Local\Temp\ccazldJ5.s 			page 48


1649:.\Generated_Source\PSoC4/CapSense.c **** *
1650:.\Generated_Source\PSoC4/CapSense.c **** * Side Effects:
1651:.\Generated_Source\PSoC4/CapSense.c **** *  None
1652:.\Generated_Source\PSoC4/CapSense.c **** *
1653:.\Generated_Source\PSoC4/CapSense.c **** *******************************************************************************/
1654:.\Generated_Source\PSoC4/CapSense.c **** void CapSense_EnableShieldElectrode(uint32 pinNumber, uint32 portNumber)
1655:.\Generated_Source\PSoC4/CapSense.c **** {
 1002              		.loc 1 1655 0
 1003              		.cfi_startproc
 1004              	.LVL130:
 1005 0000 30B5     		push	{r4, r5, lr}
 1006              		.cfi_def_cfa_offset 12
 1007              		.cfi_offset 4, -12
 1008              		.cfi_offset 5, -8
 1009              		.cfi_offset 14, -4
1656:.\Generated_Source\PSoC4/CapSense.c ****     uint32 newRegValue;
1657:.\Generated_Source\PSoC4/CapSense.c **** 
1658:.\Generated_Source\PSoC4/CapSense.c ****     *CapSense_prtCfgTbl[portNumber] &= ~(CapSense_CSD_PIN_MODE_MASK << (pinNumber * CapSense_PC_PIN
 1010              		.loc 1 1658 0
 1011 0002 8900     		lsl	r1, r1, #2
 1012              	.LVL131:
 1013 0004 0A4B     		ldr	r3, .L57
 1014 0006 5918     		add	r1, r3, r1
 1015 0008 4D6B     		ldr	r5, [r1, #52]
 1016 000a 2B68     		ldr	r3, [r5]
 1017 000c 4200     		lsl	r2, r0, #1
 1018 000e 1218     		add	r2, r2, r0
 1019 0010 0724     		mov	r4, #7
 1020 0012 9440     		lsl	r4, r4, r2
 1021 0014 A343     		bic	r3, r4
 1022 0016 2B60     		str	r3, [r5]
1659:.\Generated_Source\PSoC4/CapSense.c ****     newRegValue = *CapSense_prtSelTbl[portNumber];
 1023              		.loc 1 1659 0
 1024 0018 8969     		ldr	r1, [r1, #24]
 1025 001a 0B68     		ldr	r3, [r1]
 1026              	.LVL132:
1660:.\Generated_Source\PSoC4/CapSense.c ****     newRegValue &= ~(CapSense_CSD_HSIOM_MASK << (pinNumber * CapSense_HSIOM_PIN_CFG_SIZE));
 1027              		.loc 1 1660 0
 1028 001c 8000     		lsl	r0, r0, #2
 1029              	.LVL133:
 1030 001e 0F22     		mov	r2, #15
 1031 0020 8240     		lsl	r2, r2, r0
 1032 0022 9343     		bic	r3, r2
 1033              	.LVL134:
1661:.\Generated_Source\PSoC4/CapSense.c ****     newRegValue |= (CapSense_CSD_SHIELD_PORT_MODE << (pinNumber * CapSense_HSIOM_PIN_CFG_SIZE));
 1034              		.loc 1 1661 0
 1035 0024 0522     		mov	r2, #5
 1036 0026 8240     		lsl	r2, r2, r0
 1037 0028 101C     		mov	r0, r2
 1038 002a 1843     		orr	r0, r3
 1039              	.LVL135:
1662:.\Generated_Source\PSoC4/CapSense.c ****     *CapSense_prtSelTbl[portNumber] = newRegValue;
 1040              		.loc 1 1662 0
 1041 002c 0860     		str	r0, [r1]
1663:.\Generated_Source\PSoC4/CapSense.c **** }
 1042              		.loc 1 1663 0
 1043              		@ sp needed
ARM GAS  C:\Users\ALEXAN~1\AppData\Local\Temp\ccazldJ5.s 			page 49


 1044 002e 30BD     		pop	{r4, r5, pc}
 1045              	.L58:
 1046              		.align	2
 1047              	.L57:
 1048 0030 00000000 		.word	.LANCHOR1
 1049              		.cfi_endproc
 1050              	.LFE56:
 1051              		.size	CapSense_EnableShieldElectrode, .-CapSense_EnableShieldElectrode
 1052              		.section	.text.CapSense_SetShieldDelay,"ax",%progbits
 1053              		.align	2
 1054              		.global	CapSense_SetShieldDelay
 1055              		.code	16
 1056              		.thumb_func
 1057              		.type	CapSense_SetShieldDelay, %function
 1058              	CapSense_SetShieldDelay:
 1059              	.LFB57:
1664:.\Generated_Source\PSoC4/CapSense.c **** 
1665:.\Generated_Source\PSoC4/CapSense.c **** 
1666:.\Generated_Source\PSoC4/CapSense.c **** /*******************************************************************************
1667:.\Generated_Source\PSoC4/CapSense.c **** * Function Name: CapSense_SetShieldDelay
1668:.\Generated_Source\PSoC4/CapSense.c **** ********************************************************************************
1669:.\Generated_Source\PSoC4/CapSense.c **** *
1670:.\Generated_Source\PSoC4/CapSense.c **** * Summary:
1671:.\Generated_Source\PSoC4/CapSense.c **** *  This API sets a shield delay.
1672:.\Generated_Source\PSoC4/CapSense.c **** *
1673:.\Generated_Source\PSoC4/CapSense.c **** * Parameters:
1674:.\Generated_Source\PSoC4/CapSense.c **** *  delay:  shield delay value:
1675:.\Generated_Source\PSoC4/CapSense.c **** *                               0 - no delay
1676:.\Generated_Source\PSoC4/CapSense.c **** *                               1 - 1 cycle delay
1677:.\Generated_Source\PSoC4/CapSense.c **** *                               2 - 2 cycles delay
1678:.\Generated_Source\PSoC4/CapSense.c **** *
1679:.\Generated_Source\PSoC4/CapSense.c **** * Return:
1680:.\Generated_Source\PSoC4/CapSense.c **** *  None
1681:.\Generated_Source\PSoC4/CapSense.c **** *
1682:.\Generated_Source\PSoC4/CapSense.c **** * Global Variables:
1683:.\Generated_Source\PSoC4/CapSense.c **** *  None
1684:.\Generated_Source\PSoC4/CapSense.c **** *
1685:.\Generated_Source\PSoC4/CapSense.c **** * Side Effects:
1686:.\Generated_Source\PSoC4/CapSense.c **** *  None
1687:.\Generated_Source\PSoC4/CapSense.c **** *
1688:.\Generated_Source\PSoC4/CapSense.c **** *******************************************************************************/
1689:.\Generated_Source\PSoC4/CapSense.c **** void CapSense_SetShieldDelay(uint32 delay)
1690:.\Generated_Source\PSoC4/CapSense.c **** {
 1060              		.loc 1 1690 0
 1061              		.cfi_startproc
 1062              	.LVL136:
1691:.\Generated_Source\PSoC4/CapSense.c ****     uint32 newRegValue;
1692:.\Generated_Source\PSoC4/CapSense.c **** 
1693:.\Generated_Source\PSoC4/CapSense.c ****     delay &= 0x03u;
 1063              		.loc 1 1693 0
 1064 0000 0323     		mov	r3, #3
 1065 0002 1840     		and	r0, r3
 1066              	.LVL137:
1694:.\Generated_Source\PSoC4/CapSense.c **** 
1695:.\Generated_Source\PSoC4/CapSense.c ****     newRegValue = CapSense_CSD_CFG_REG;
 1067              		.loc 1 1695 0
 1068 0004 024B     		ldr	r3, .L60
ARM GAS  C:\Users\ALEXAN~1\AppData\Local\Temp\ccazldJ5.s 			page 50


 1069 0006 1A68     		ldr	r2, [r3]
 1070              	.LVL138:
1696:.\Generated_Source\PSoC4/CapSense.c ****     newRegValue &= (uint32)(~(uint32)CapSense_SHIELD_DELAY);
1697:.\Generated_Source\PSoC4/CapSense.c ****     newRegValue |= (delay << CapSense_CSD_CFG_SHIELD_DELAY_POS);
 1071              		.loc 1 1697 0
 1072 0008 4002     		lsl	r0, r0, #9
 1073              	.LVL139:
 1074 000a 1043     		orr	r0, r2
 1075              	.LVL140:
1698:.\Generated_Source\PSoC4/CapSense.c ****     CapSense_CSD_CFG_REG = newRegValue;
 1076              		.loc 1 1698 0
 1077 000c 1860     		str	r0, [r3]
1699:.\Generated_Source\PSoC4/CapSense.c **** }
 1078              		.loc 1 1699 0
 1079              		@ sp needed
 1080 000e 7047     		bx	lr
 1081              	.L61:
 1082              		.align	2
 1083              	.L60:
 1084 0010 04002840 		.word	1076363268
 1085              		.cfi_endproc
 1086              	.LFE57:
 1087              		.size	CapSense_SetShieldDelay, .-CapSense_SetShieldDelay
 1088              		.section	.text.CapSense_Init,"ax",%progbits
 1089              		.align	2
 1090              		.global	CapSense_Init
 1091              		.code	16
 1092              		.thumb_func
 1093              		.type	CapSense_Init, %function
 1094              	CapSense_Init:
 1095              	.LFB35:
 197:.\Generated_Source\PSoC4/CapSense.c ****     uint32 curSensor;
 1096              		.loc 1 197 0
 1097              		.cfi_startproc
 1098 0000 08B5     		push	{r3, lr}
 1099              		.cfi_def_cfa_offset 8
 1100              		.cfi_offset 3, -8
 1101              		.cfi_offset 14, -4
 1102              	.LVL141:
 228:.\Generated_Source\PSoC4/CapSense.c ****     {
 1103              		.loc 1 228 0
 1104 0002 0023     		mov	r3, #0
 1105 0004 03E0     		b	.L63
 1106              	.LVL142:
 1107              	.L64:
 230:.\Generated_Source\PSoC4/CapSense.c ****     }
 1108              		.loc 1 230 0 discriminator 3
 1109 0006 0021     		mov	r1, #0
 1110 0008 064A     		ldr	r2, .L65
 1111 000a D154     		strb	r1, [r2, r3]
 228:.\Generated_Source\PSoC4/CapSense.c ****     {
 1112              		.loc 1 228 0 discriminator 3
 1113 000c 0133     		add	r3, r3, #1
 1114              	.LVL143:
 1115              	.L63:
 228:.\Generated_Source\PSoC4/CapSense.c ****     {
 1116              		.loc 1 228 0 is_stmt 0 discriminator 1
ARM GAS  C:\Users\ALEXAN~1\AppData\Local\Temp\ccazldJ5.s 			page 51


 1117 000e 092B     		cmp	r3, #9
 1118 0010 F9D9     		bls	.L64
 233:.\Generated_Source\PSoC4/CapSense.c ****     CapSense_SetShieldDelay(CapSense_SHIELD_DELAY );
 1119              		.loc 1 233 0 is_stmt 1
 1120 0012 FFF7FEFF 		bl	CapSense_CsdHwBlockInit
 1121              	.LVL144:
 234:.\Generated_Source\PSoC4/CapSense.c **** 
 1122              		.loc 1 234 0
 1123 0016 0020     		mov	r0, #0
 1124 0018 FFF7FEFF 		bl	CapSense_SetShieldDelay
 1125              	.LVL145:
 237:.\Generated_Source\PSoC4/CapSense.c **** }
 1126              		.loc 1 237 0
 1127 001c FFF7FEFF 		bl	CapSense_ClearSensors
 1128              	.LVL146:
 238:.\Generated_Source\PSoC4/CapSense.c **** 
 1129              		.loc 1 238 0
 1130              		@ sp needed
 1131 0020 08BD     		pop	{r3, pc}
 1132              	.L66:
 1133 0022 C046     		.align	2
 1134              	.L65:
 1135 0024 00000000 		.word	CapSense_unscannedSnsDriveMode
 1136              		.cfi_endproc
 1137              	.LFE35:
 1138              		.size	CapSense_Init, .-CapSense_Init
 1139              		.section	.text.CapSense_Start,"ax",%progbits
 1140              		.align	2
 1141              		.global	CapSense_Start
 1142              		.code	16
 1143              		.thumb_func
 1144              		.type	CapSense_Start, %function
 1145              	CapSense_Start:
 1146              	.LFB38:
 406:.\Generated_Source\PSoC4/CapSense.c **** 
 1147              		.loc 1 406 0
 1148              		.cfi_startproc
 1149 0000 08B5     		push	{r3, lr}
 1150              		.cfi_def_cfa_offset 8
 1151              		.cfi_offset 3, -8
 1152              		.cfi_offset 14, -4
 416:.\Generated_Source\PSoC4/CapSense.c ****     {
 1153              		.loc 1 416 0
 1154 0002 094B     		ldr	r3, .L69
 1155 0004 5B7E     		ldrb	r3, [r3, #25]
 1156 0006 002B     		cmp	r3, #0
 1157 0008 04D1     		bne	.L68
 418:.\Generated_Source\PSoC4/CapSense.c ****         CapSense_initVar = 1u;
 1158              		.loc 1 418 0
 1159 000a FFF7FEFF 		bl	CapSense_Init
 1160              	.LVL147:
 419:.\Generated_Source\PSoC4/CapSense.c ****     }
 1161              		.loc 1 419 0
 1162 000e 0122     		mov	r2, #1
 1163 0010 054B     		ldr	r3, .L69
 1164 0012 5A76     		strb	r2, [r3, #25]
 1165              	.L68:
ARM GAS  C:\Users\ALEXAN~1\AppData\Local\Temp\ccazldJ5.s 			page 52


 421:.\Generated_Source\PSoC4/CapSense.c **** 
 1166              		.loc 1 421 0
 1167 0014 FFF7FEFF 		bl	CapSense_Enable
 1168              	.LVL148:
 470:.\Generated_Source\PSoC4/CapSense.c **** }
 1169              		.loc 1 470 0
 1170 0018 044A     		ldr	r2, .L69+4
 1171 001a 1368     		ldr	r3, [r2]
 1172 001c 8021     		mov	r1, #128
 1173 001e C903     		lsl	r1, r1, #15
 1174 0020 0B43     		orr	r3, r1
 1175 0022 1360     		str	r3, [r2]
 471:.\Generated_Source\PSoC4/CapSense.c **** 
 1176              		.loc 1 471 0
 1177              		@ sp needed
 1178 0024 08BD     		pop	{r3, pc}
 1179              	.L70:
 1180 0026 C046     		.align	2
 1181              	.L69:
 1182 0028 00000000 		.word	.LANCHOR0
 1183 002c 04002840 		.word	1076363268
 1184              		.cfi_endproc
 1185              	.LFE38:
 1186              		.size	CapSense_Start, .-CapSense_Start
 1187              		.section	.text.CapSense_ReadCurrentScanningSensor,"ax",%progbits
 1188              		.align	2
 1189              		.global	CapSense_ReadCurrentScanningSensor
 1190              		.code	16
 1191              		.thumb_func
 1192              		.type	CapSense_ReadCurrentScanningSensor, %function
 1193              	CapSense_ReadCurrentScanningSensor:
 1194              	.LFB58:
1700:.\Generated_Source\PSoC4/CapSense.c **** 
1701:.\Generated_Source\PSoC4/CapSense.c **** 
1702:.\Generated_Source\PSoC4/CapSense.c **** /*******************************************************************************
1703:.\Generated_Source\PSoC4/CapSense.c **** * Function Name: CapSense_ReadCurrentScanningSensor
1704:.\Generated_Source\PSoC4/CapSense.c **** ********************************************************************************
1705:.\Generated_Source\PSoC4/CapSense.c **** *
1706:.\Generated_Source\PSoC4/CapSense.c **** * Summary:
1707:.\Generated_Source\PSoC4/CapSense.c **** *  This API returns scanning sensor number when sensor scan is in progress.
1708:.\Generated_Source\PSoC4/CapSense.c **** *  When sensor scan is completed the API returns
1709:.\Generated_Source\PSoC4/CapSense.c **** *  $INSTANCE_NAME`_NOT_SENSOR (0xFFFFFFFF) (when no sensor is scanned).
1710:.\Generated_Source\PSoC4/CapSense.c **** *
1711:.\Generated_Source\PSoC4/CapSense.c **** * Parameters:
1712:.\Generated_Source\PSoC4/CapSense.c **** *   None.
1713:.\Generated_Source\PSoC4/CapSense.c **** *
1714:.\Generated_Source\PSoC4/CapSense.c **** * Return:
1715:.\Generated_Source\PSoC4/CapSense.c **** *  Returns Sensor number if sensor is being scanned and
1716:.\Generated_Source\PSoC4/CapSense.c **** *  $INSTANCE_NAME`_NOT_SENSOR (0xFFFFFFFF) if scanning is complete.
1717:.\Generated_Source\PSoC4/CapSense.c **** *
1718:.\Generated_Source\PSoC4/CapSense.c **** * Global Variables:
1719:.\Generated_Source\PSoC4/CapSense.c **** *  CapSense_sensorIndex - the sensor number is being scanned.
1720:.\Generated_Source\PSoC4/CapSense.c **** *
1721:.\Generated_Source\PSoC4/CapSense.c **** * Side Effects:
1722:.\Generated_Source\PSoC4/CapSense.c **** *  None
1723:.\Generated_Source\PSoC4/CapSense.c **** *
1724:.\Generated_Source\PSoC4/CapSense.c **** *******************************************************************************/
ARM GAS  C:\Users\ALEXAN~1\AppData\Local\Temp\ccazldJ5.s 			page 53


1725:.\Generated_Source\PSoC4/CapSense.c **** uint32 CapSense_ReadCurrentScanningSensor(void)
1726:.\Generated_Source\PSoC4/CapSense.c **** {
 1195              		.loc 1 1726 0
 1196              		.cfi_startproc
1727:.\Generated_Source\PSoC4/CapSense.c ****     return ((uint32)(( 0u != (CapSense_csdStatusVar & CapSense_SW_STS_BUSY)) ?
 1197              		.loc 1 1727 0
 1198 0000 054B     		ldr	r3, .L74
 1199 0002 1B78     		ldrb	r3, [r3]
 1200 0004 DB07     		lsl	r3, r3, #31
 1201 0006 03D5     		bpl	.L73
 1202              		.loc 1 1727 0 is_stmt 0 discriminator 1
 1203 0008 034B     		ldr	r3, .L74
 1204 000a 187E     		ldrb	r0, [r3, #24]
 1205 000c C0B2     		uxtb	r0, r0
 1206 000e 01E0     		b	.L72
 1207              	.L73:
 1208              		.loc 1 1727 0
 1209 0010 0120     		mov	r0, #1
 1210 0012 4042     		neg	r0, r0
 1211              	.L72:
1728:.\Generated_Source\PSoC4/CapSense.c ****                      CapSense_sensorIndex : CapSense_NOT_SENSOR));
1729:.\Generated_Source\PSoC4/CapSense.c **** }
 1212              		.loc 1 1729 0 is_stmt 1 discriminator 4
 1213              		@ sp needed
 1214 0014 7047     		bx	lr
 1215              	.L75:
 1216 0016 C046     		.align	2
 1217              	.L74:
 1218 0018 00000000 		.word	.LANCHOR0
 1219              		.cfi_endproc
 1220              	.LFE58:
 1221              		.size	CapSense_ReadCurrentScanningSensor, .-CapSense_ReadCurrentScanningSensor
 1222              		.section	.text.CapSense_GetBitValue,"ax",%progbits
 1223              		.align	2
 1224              		.global	CapSense_GetBitValue
 1225              		.code	16
 1226              		.thumb_func
 1227              		.type	CapSense_GetBitValue, %function
 1228              	CapSense_GetBitValue:
 1229              	.LFB59:
1730:.\Generated_Source\PSoC4/CapSense.c **** 
1731:.\Generated_Source\PSoC4/CapSense.c **** 
1732:.\Generated_Source\PSoC4/CapSense.c **** /*******************************************************************************
1733:.\Generated_Source\PSoC4/CapSense.c **** * Function Name: CapSense_GetBitValue
1734:.\Generated_Source\PSoC4/CapSense.c **** ********************************************************************************
1735:.\Generated_Source\PSoC4/CapSense.c **** *
1736:.\Generated_Source\PSoC4/CapSense.c **** * Summary:
1737:.\Generated_Source\PSoC4/CapSense.c **** *  The API returns a bit status of the bit in the table array which contains the masks.
1738:.\Generated_Source\PSoC4/CapSense.c **** *
1739:.\Generated_Source\PSoC4/CapSense.c **** * Parameters:
1740:.\Generated_Source\PSoC4/CapSense.c **** *  table[] - array with bit masks.
1741:.\Generated_Source\PSoC4/CapSense.c **** *  position - position of bit in the table[] array.
1742:.\Generated_Source\PSoC4/CapSense.c **** *
1743:.\Generated_Source\PSoC4/CapSense.c **** * Return:
1744:.\Generated_Source\PSoC4/CapSense.c **** *  0 - bit is not set; 1 - bit is set.
1745:.\Generated_Source\PSoC4/CapSense.c **** *
1746:.\Generated_Source\PSoC4/CapSense.c **** * Global Variables:
ARM GAS  C:\Users\ALEXAN~1\AppData\Local\Temp\ccazldJ5.s 			page 54


1747:.\Generated_Source\PSoC4/CapSense.c **** *  None
1748:.\Generated_Source\PSoC4/CapSense.c **** *
1749:.\Generated_Source\PSoC4/CapSense.c **** * Side Effects:
1750:.\Generated_Source\PSoC4/CapSense.c **** *  None
1751:.\Generated_Source\PSoC4/CapSense.c **** *
1752:.\Generated_Source\PSoC4/CapSense.c **** *******************************************************************************/
1753:.\Generated_Source\PSoC4/CapSense.c **** uint32 CapSense_GetBitValue(const uint8 table[], uint32 position)
1754:.\Generated_Source\PSoC4/CapSense.c **** {
 1230              		.loc 1 1754 0
 1231              		.cfi_startproc
 1232              	.LVL149:
1755:.\Generated_Source\PSoC4/CapSense.c ****     uint32 offset;
1756:.\Generated_Source\PSoC4/CapSense.c ****     uint8 enMask;
1757:.\Generated_Source\PSoC4/CapSense.c **** 
1758:.\Generated_Source\PSoC4/CapSense.c ****     /* position is divided by 8 to calculate the element of the
1759:.\Generated_Source\PSoC4/CapSense.c ****        table[] array that contains the enable bit
1760:.\Generated_Source\PSoC4/CapSense.c ****        for an appropriate sensor.
1761:.\Generated_Source\PSoC4/CapSense.c ****     */
1762:.\Generated_Source\PSoC4/CapSense.c ****     offset = (position >> 3u);
 1233              		.loc 1 1762 0
 1234 0000 CA08     		lsr	r2, r1, #3
 1235              	.LVL150:
1763:.\Generated_Source\PSoC4/CapSense.c **** 
1764:.\Generated_Source\PSoC4/CapSense.c ****     /* The enMask calculation for the appropriate sensor. Operation (position & 0x07u)
1765:.\Generated_Source\PSoC4/CapSense.c ****        intends to calculate the enable bit offset for the 8-bit element of the
1766:.\Generated_Source\PSoC4/CapSense.c ****        table[] array.
1767:.\Generated_Source\PSoC4/CapSense.c ****     */
1768:.\Generated_Source\PSoC4/CapSense.c ****     enMask = 0x01u << (position & 0x07u);
 1236              		.loc 1 1768 0
 1237 0002 0723     		mov	r3, #7
 1238 0004 1940     		and	r1, r3
 1239              	.LVL151:
 1240 0006 063B     		sub	r3, r3, #6
 1241 0008 8B40     		lsl	r3, r3, r1
 1242 000a 191C     		mov	r1, r3
 1243              	.LVL152:
1769:.\Generated_Source\PSoC4/CapSense.c **** 
1770:.\Generated_Source\PSoC4/CapSense.c ****     return ((0u !=(table[offset] & enMask)) ? 1Lu : 0Lu);
 1244              		.loc 1 1770 0
 1245 000c 835C     		ldrb	r3, [r0, r2]
 1246 000e 1942     		tst	r1, r3
 1247 0010 01D0     		beq	.L78
 1248 0012 0120     		mov	r0, #1
 1249              	.LVL153:
 1250 0014 00E0     		b	.L77
 1251              	.LVL154:
 1252              	.L78:
 1253 0016 0020     		mov	r0, #0
 1254              	.LVL155:
 1255              	.L77:
1771:.\Generated_Source\PSoC4/CapSense.c **** }
 1256              		.loc 1 1771 0 discriminator 4
 1257              		@ sp needed
 1258 0018 7047     		bx	lr
 1259              		.cfi_endproc
 1260              	.LFE59:
 1261              		.size	CapSense_GetBitValue, .-CapSense_GetBitValue
ARM GAS  C:\Users\ALEXAN~1\AppData\Local\Temp\ccazldJ5.s 			page 55


 1262 001a C046     		.section	.text.CapSense_FindNextSensor,"ax",%progbits
 1263              		.align	2
 1264              		.global	CapSense_FindNextSensor
 1265              		.code	16
 1266              		.thumb_func
 1267              		.type	CapSense_FindNextSensor, %function
 1268              	CapSense_FindNextSensor:
 1269              	.LFB40:
 536:.\Generated_Source\PSoC4/CapSense.c ****     uint32 enableFlag;
 1270              		.loc 1 536 0
 1271              		.cfi_startproc
 1272              	.LVL156:
 1273 0000 10B5     		push	{r4, lr}
 1274              		.cfi_def_cfa_offset 8
 1275              		.cfi_offset 4, -8
 1276              		.cfi_offset 14, -4
 1277 0002 041C     		mov	r4, r0
 1278              	.LVL157:
 1279              	.L81:
 543:.\Generated_Source\PSoC4/CapSense.c ****         if(snsIndex == CapSense_TOTAL_SENSOR_COUNT)
 1280              		.loc 1 543 0
 1281 0004 0134     		add	r4, r4, #1
 1282              	.LVL158:
 1283 0006 E4B2     		uxtb	r4, r4
 1284              	.LVL159:
 544:.\Generated_Source\PSoC4/CapSense.c ****         {
 1285              		.loc 1 544 0
 1286 0008 0A2C     		cmp	r4, #10
 1287 000a 05D0     		beq	.L80
 548:.\Generated_Source\PSoC4/CapSense.c ****     }
 1288              		.loc 1 548 0
 1289 000c 0348     		ldr	r0, .L82
 1290 000e 211C     		mov	r1, r4
 1291 0010 FFF7FEFF 		bl	CapSense_GetBitValue
 1292              	.LVL160:
 550:.\Generated_Source\PSoC4/CapSense.c **** 
 1293              		.loc 1 550 0
 1294 0014 0028     		cmp	r0, #0
 1295 0016 F5D0     		beq	.L81
 1296              	.LVL161:
 1297              	.L80:
 553:.\Generated_Source\PSoC4/CapSense.c **** 
 1298              		.loc 1 553 0
 1299 0018 201C     		mov	r0, r4
 1300              		@ sp needed
 1301              	.LVL162:
 1302 001a 10BD     		pop	{r4, pc}
 1303              	.L83:
 1304              		.align	2
 1305              	.L82:
 1306 001c 00000000 		.word	.LANCHOR3
 1307              		.cfi_endproc
 1308              	.LFE40:
 1309              		.size	CapSense_FindNextSensor, .-CapSense_FindNextSensor
 1310              		.section	.text.CapSense_ScanEnabledWidgets,"ax",%progbits
 1311              		.align	2
 1312              		.global	CapSense_ScanEnabledWidgets
ARM GAS  C:\Users\ALEXAN~1\AppData\Local\Temp\ccazldJ5.s 			page 56


 1313              		.code	16
 1314              		.thumb_func
 1315              		.type	CapSense_ScanEnabledWidgets, %function
 1316              	CapSense_ScanEnabledWidgets:
 1317              	.LFB43:
 708:.\Generated_Source\PSoC4/CapSense.c ****     /* Clears status/control variable and set sensorIndex */
 1318              		.loc 1 708 0
 1319              		.cfi_startproc
 1320 0000 10B5     		push	{r4, lr}
 1321              		.cfi_def_cfa_offset 8
 1322              		.cfi_offset 4, -8
 1323              		.cfi_offset 14, -4
 710:.\Generated_Source\PSoC4/CapSense.c ****     CapSense_sensorIndex = 0xFFu;
 1324              		.loc 1 710 0
 1325 0002 0B4C     		ldr	r4, .L86
 1326 0004 0023     		mov	r3, #0
 1327 0006 2370     		strb	r3, [r4]
 711:.\Generated_Source\PSoC4/CapSense.c **** 
 1328              		.loc 1 711 0
 1329 0008 FF33     		add	r3, r3, #255
 1330 000a 2376     		strb	r3, [r4, #24]
 714:.\Generated_Source\PSoC4/CapSense.c **** 
 1331              		.loc 1 714 0
 1332 000c 207E     		ldrb	r0, [r4, #24]
 1333 000e C0B2     		uxtb	r0, r0
 1334 0010 FFF7FEFF 		bl	CapSense_FindNextSensor
 1335              	.LVL163:
 1336 0014 2076     		strb	r0, [r4, #24]
 717:.\Generated_Source\PSoC4/CapSense.c ****     {
 1337              		.loc 1 717 0
 1338 0016 237E     		ldrb	r3, [r4, #24]
 1339 0018 DBB2     		uxtb	r3, r3
 1340 001a 092B     		cmp	r3, #9
 1341 001c 07D8     		bhi	.L84
 719:.\Generated_Source\PSoC4/CapSense.c ****         CapSense_PreScan((uint32)CapSense_sensorIndex);
 1342              		.loc 1 719 0
 1343 001e 2178     		ldrb	r1, [r4]
 1344 0020 0122     		mov	r2, #1
 1345 0022 0A43     		orr	r2, r1
 1346 0024 2270     		strb	r2, [r4]
 720:.\Generated_Source\PSoC4/CapSense.c ****     }
 1347              		.loc 1 720 0
 1348 0026 207E     		ldrb	r0, [r4, #24]
 1349 0028 C0B2     		uxtb	r0, r0
 1350 002a FFF7FEFF 		bl	CapSense_PreScan
 1351              	.LVL164:
 1352              	.L84:
 722:.\Generated_Source\PSoC4/CapSense.c **** 
 1353              		.loc 1 722 0
 1354              		@ sp needed
 1355 002e 10BD     		pop	{r4, pc}
 1356              	.L87:
 1357              		.align	2
 1358              	.L86:
 1359 0030 00000000 		.word	.LANCHOR0
 1360              		.cfi_endproc
 1361              	.LFE43:
ARM GAS  C:\Users\ALEXAN~1\AppData\Local\Temp\ccazldJ5.s 			page 57


 1362              		.size	CapSense_ScanEnabledWidgets, .-CapSense_ScanEnabledWidgets
 1363              		.section	.text.CapSense_SetBitValue,"ax",%progbits
 1364              		.align	2
 1365              		.global	CapSense_SetBitValue
 1366              		.code	16
 1367              		.thumb_func
 1368              		.type	CapSense_SetBitValue, %function
 1369              	CapSense_SetBitValue:
 1370              	.LFB60:
1772:.\Generated_Source\PSoC4/CapSense.c **** 
1773:.\Generated_Source\PSoC4/CapSense.c **** 
1774:.\Generated_Source\PSoC4/CapSense.c **** /*******************************************************************************
1775:.\Generated_Source\PSoC4/CapSense.c **** * Function Name: CapSense_SetBitValue
1776:.\Generated_Source\PSoC4/CapSense.c **** ********************************************************************************
1777:.\Generated_Source\PSoC4/CapSense.c **** *
1778:.\Generated_Source\PSoC4/CapSense.c **** * Summary:
1779:.\Generated_Source\PSoC4/CapSense.c **** *  The API sets a bit status of the bit in the table array which contains masks.
1780:.\Generated_Source\PSoC4/CapSense.c **** *
1781:.\Generated_Source\PSoC4/CapSense.c **** * Parameters:
1782:.\Generated_Source\PSoC4/CapSense.c **** *  table[] - array with bit masks.
1783:.\Generated_Source\PSoC4/CapSense.c **** *  position - position of bit in the table[] array.
1784:.\Generated_Source\PSoC4/CapSense.c **** *  value: 0 - bit is not set; 1 - bit is set.
1785:.\Generated_Source\PSoC4/CapSense.c **** *
1786:.\Generated_Source\PSoC4/CapSense.c **** * Return:
1787:.\Generated_Source\PSoC4/CapSense.c **** *  None
1788:.\Generated_Source\PSoC4/CapSense.c **** *
1789:.\Generated_Source\PSoC4/CapSense.c **** * Global Variables:
1790:.\Generated_Source\PSoC4/CapSense.c **** *  None
1791:.\Generated_Source\PSoC4/CapSense.c **** *
1792:.\Generated_Source\PSoC4/CapSense.c **** * Side Effects:
1793:.\Generated_Source\PSoC4/CapSense.c **** *  None
1794:.\Generated_Source\PSoC4/CapSense.c **** *
1795:.\Generated_Source\PSoC4/CapSense.c **** *******************************************************************************/
1796:.\Generated_Source\PSoC4/CapSense.c **** void CapSense_SetBitValue(uint8 table[], uint32 position, uint32 value)
1797:.\Generated_Source\PSoC4/CapSense.c **** {
 1371              		.loc 1 1797 0
 1372              		.cfi_startproc
 1373              	.LVL165:
 1374 0000 10B5     		push	{r4, lr}
 1375              		.cfi_def_cfa_offset 8
 1376              		.cfi_offset 4, -8
 1377              		.cfi_offset 14, -4
1798:.\Generated_Source\PSoC4/CapSense.c ****     uint32 offset;
1799:.\Generated_Source\PSoC4/CapSense.c ****     uint8 enMask;
1800:.\Generated_Source\PSoC4/CapSense.c **** 
1801:.\Generated_Source\PSoC4/CapSense.c ****     /* position is divided by 8 to calculate the element of the
1802:.\Generated_Source\PSoC4/CapSense.c ****        table[] array that contains the enable bit
1803:.\Generated_Source\PSoC4/CapSense.c ****        for an appropriate sensor.
1804:.\Generated_Source\PSoC4/CapSense.c ****     */
1805:.\Generated_Source\PSoC4/CapSense.c ****     offset = (position >> 3u);
 1378              		.loc 1 1805 0
 1379 0002 CC08     		lsr	r4, r1, #3
 1380              	.LVL166:
1806:.\Generated_Source\PSoC4/CapSense.c **** 
1807:.\Generated_Source\PSoC4/CapSense.c ****     /* The enMask calculation for the appropriate sensor. Operation (position & 0x07u)
1808:.\Generated_Source\PSoC4/CapSense.c ****        intends to calculate the enable bit offset for the 8-bit element of the
1809:.\Generated_Source\PSoC4/CapSense.c ****        table[] array.
ARM GAS  C:\Users\ALEXAN~1\AppData\Local\Temp\ccazldJ5.s 			page 58


1810:.\Generated_Source\PSoC4/CapSense.c ****     */
1811:.\Generated_Source\PSoC4/CapSense.c ****     enMask = 0x01u << (position & 0x07u);
 1381              		.loc 1 1811 0
 1382 0004 0723     		mov	r3, #7
 1383 0006 1940     		and	r1, r3
 1384              	.LVL167:
 1385 0008 063B     		sub	r3, r3, #6
 1386 000a 8B40     		lsl	r3, r3, r1
 1387 000c D9B2     		uxtb	r1, r3
 1388              	.LVL168:
1812:.\Generated_Source\PSoC4/CapSense.c **** 
1813:.\Generated_Source\PSoC4/CapSense.c ****     if(0u != value)
 1389              		.loc 1 1813 0
 1390 000e 002A     		cmp	r2, #0
 1391 0010 04D0     		beq	.L89
1814:.\Generated_Source\PSoC4/CapSense.c ****     {
1815:.\Generated_Source\PSoC4/CapSense.c ****         table[offset] |= enMask;
 1392              		.loc 1 1815 0
 1393 0012 0419     		add	r4, r0, r4
 1394              	.LVL169:
 1395 0014 2378     		ldrb	r3, [r4]
 1396 0016 1943     		orr	r1, r3
 1397              	.LVL170:
 1398 0018 2170     		strb	r1, [r4]
 1399 001a 03E0     		b	.L88
 1400              	.LVL171:
 1401              	.L89:
1816:.\Generated_Source\PSoC4/CapSense.c ****     }
1817:.\Generated_Source\PSoC4/CapSense.c ****     else
1818:.\Generated_Source\PSoC4/CapSense.c ****     {
1819:.\Generated_Source\PSoC4/CapSense.c ****         table[offset] &= (uint8)~(enMask);
 1402              		.loc 1 1819 0
 1403 001c 0419     		add	r4, r0, r4
 1404              	.LVL172:
 1405 001e 2378     		ldrb	r3, [r4]
 1406 0020 8B43     		bic	r3, r1
 1407 0022 2370     		strb	r3, [r4]
 1408              	.LVL173:
 1409              	.L88:
1820:.\Generated_Source\PSoC4/CapSense.c ****     }
1821:.\Generated_Source\PSoC4/CapSense.c **** }
 1410              		.loc 1 1821 0
 1411              		@ sp needed
 1412 0024 10BD     		pop	{r4, pc}
 1413              		.cfi_endproc
 1414              	.LFE60:
 1415              		.size	CapSense_SetBitValue, .-CapSense_SetBitValue
 1416 0026 C046     		.section	.text.CapSense_ScanWidget,"ax",%progbits
 1417              		.align	2
 1418              		.global	CapSense_ScanWidget
 1419              		.code	16
 1420              		.thumb_func
 1421              		.type	CapSense_ScanWidget, %function
 1422              	CapSense_ScanWidget:
 1423              	.LFB42:
 623:.\Generated_Source\PSoC4/CapSense.c ****     uint32 sensorsPerWidget;
 1424              		.loc 1 623 0
ARM GAS  C:\Users\ALEXAN~1\AppData\Local\Temp\ccazldJ5.s 			page 59


 1425              		.cfi_startproc
 1426              	.LVL174:
 1427 0000 38B5     		push	{r3, r4, r5, lr}
 1428              		.cfi_def_cfa_offset 16
 1429              		.cfi_offset 3, -16
 1430              		.cfi_offset 4, -12
 1431              		.cfi_offset 5, -8
 1432              		.cfi_offset 14, -4
 629:.\Generated_Source\PSoC4/CapSense.c **** 
 1433              		.loc 1 629 0
 1434 0002 1C4B     		ldr	r3, .L101
 1435 0004 1D5C     		ldrb	r5, [r3, r0]
 1436 0006 1C4B     		ldr	r3, .L101+4
 1437 0008 1D76     		strb	r5, [r3, #24]
 632:.\Generated_Source\PSoC4/CapSense.c **** 
 1438              		.loc 1 632 0
 1439 000a 1C4B     		ldr	r3, .L101+8
 1440 000c 1B5C     		ldrb	r3, [r3, r0]
 1441              	.LVL175:
 635:.\Generated_Source\PSoC4/CapSense.c ****     {
 1442              		.loc 1 635 0
 1443 000e 002B     		cmp	r3, #0
 1444 0010 00D1     		bne	.L92
 637:.\Generated_Source\PSoC4/CapSense.c ****     }
 1445              		.loc 1 637 0
 1446 0012 0133     		add	r3, r3, #1
 1447              	.LVL176:
 1448              	.L92:
 641:.\Generated_Source\PSoC4/CapSense.c **** 
 1449              		.loc 1 641 0
 1450 0014 ED18     		add	r5, r5, r3
 1451 0016 013D     		sub	r5, r5, #1
 1452              	.LVL177:
 644:.\Generated_Source\PSoC4/CapSense.c ****     {
 1453              		.loc 1 644 0
 1454 0018 0023     		mov	r3, #0
 1455              	.LVL178:
 1456 001a 04E0     		b	.L93
 1457              	.LVL179:
 1458              	.L94:
 647:.\Generated_Source\PSoC4/CapSense.c ****     }
 1459              		.loc 1 647 0 discriminator 3
 1460 001c 184A     		ldr	r2, .L101+12
 1461 001e D15C     		ldrb	r1, [r2, r3]
 1462 0020 184A     		ldr	r2, .L101+16
 1463 0022 D154     		strb	r1, [r2, r3]
 644:.\Generated_Source\PSoC4/CapSense.c ****     {
 1464              		.loc 1 644 0 discriminator 3
 1465 0024 0133     		add	r3, r3, #1
 1466              	.LVL180:
 1467              	.L93:
 644:.\Generated_Source\PSoC4/CapSense.c ****     {
 1468              		.loc 1 644 0 is_stmt 0 discriminator 1
 1469 0026 012B     		cmp	r3, #1
 1470 0028 F8D9     		bls	.L94
 1471 002a 0024     		mov	r4, #0
 1472 002c 12E0     		b	.L95
ARM GAS  C:\Users\ALEXAN~1\AppData\Local\Temp\ccazldJ5.s 			page 60


 1473              	.LVL181:
 1474              	.L98:
 654:.\Generated_Source\PSoC4/CapSense.c ****         {
 1475              		.loc 1 654 0 is_stmt 1
 1476 002e 124B     		ldr	r3, .L101+4
 1477 0030 1B7E     		ldrb	r3, [r3, #24]
 1478 0032 DBB2     		uxtb	r3, r3
 1479 0034 A342     		cmp	r3, r4
 1480 0036 07D8     		bhi	.L96
 654:.\Generated_Source\PSoC4/CapSense.c ****         {
 1481              		.loc 1 654 0 is_stmt 0 discriminator 1
 1482 0038 AC42     		cmp	r4, r5
 1483 003a 05D8     		bhi	.L96
 657:.\Generated_Source\PSoC4/CapSense.c ****         }
 1484              		.loc 1 657 0 is_stmt 1
 1485 003c 1048     		ldr	r0, .L101+12
 1486 003e 211C     		mov	r1, r4
 1487 0040 0122     		mov	r2, #1
 1488 0042 FFF7FEFF 		bl	CapSense_SetBitValue
 1489              	.LVL182:
 1490 0046 04E0     		b	.L97
 1491              	.L96:
 662:.\Generated_Source\PSoC4/CapSense.c ****         }
 1492              		.loc 1 662 0
 1493 0048 0D48     		ldr	r0, .L101+12
 1494 004a 211C     		mov	r1, r4
 1495 004c 0022     		mov	r2, #0
 1496 004e FFF7FEFF 		bl	CapSense_SetBitValue
 1497              	.LVL183:
 1498              	.L97:
 651:.\Generated_Source\PSoC4/CapSense.c ****     {
 1499              		.loc 1 651 0 discriminator 2
 1500 0052 0134     		add	r4, r4, #1
 1501              	.LVL184:
 1502              	.L95:
 651:.\Generated_Source\PSoC4/CapSense.c ****     {
 1503              		.loc 1 651 0 is_stmt 0 discriminator 1
 1504 0054 092C     		cmp	r4, #9
 1505 0056 EAD9     		bls	.L98
 667:.\Generated_Source\PSoC4/CapSense.c ****     {
 1506              		.loc 1 667 0 is_stmt 1
 1507 0058 074B     		ldr	r3, .L101+4
 1508 005a 1B7E     		ldrb	r3, [r3, #24]
 1509 005c DBB2     		uxtb	r3, r3
 1510 005e 092B     		cmp	r3, #9
 1511 0060 06D8     		bhi	.L91
 670:.\Generated_Source\PSoC4/CapSense.c ****         /* Scan first sensor of widget*/
 1512              		.loc 1 670 0
 1513 0062 054B     		ldr	r3, .L101+4
 1514 0064 4122     		mov	r2, #65
 1515 0066 1A70     		strb	r2, [r3]
 672:.\Generated_Source\PSoC4/CapSense.c ****     }
 1516              		.loc 1 672 0
 1517 0068 187E     		ldrb	r0, [r3, #24]
 1518 006a C0B2     		uxtb	r0, r0
 1519 006c FFF7FEFF 		bl	CapSense_PreScan
 1520              	.LVL185:
ARM GAS  C:\Users\ALEXAN~1\AppData\Local\Temp\ccazldJ5.s 			page 61


 1521              	.L91:
 674:.\Generated_Source\PSoC4/CapSense.c **** #endif /* (0u != CapSense_CSHL_API_GENERATE) */
 1522              		.loc 1 674 0
 1523              		@ sp needed
 1524              	.LVL186:
 1525              	.LVL187:
 1526 0070 38BD     		pop	{r3, r4, r5, pc}
 1527              	.L102:
 1528 0072 C046     		.align	2
 1529              	.L101:
 1530 0074 00000000 		.word	CapSense_rawDataIndex
 1531 0078 00000000 		.word	.LANCHOR0
 1532 007c 00000000 		.word	CapSense_numberOfSensors
 1533 0080 00000000 		.word	.LANCHOR3
 1534 0084 00000000 		.word	CapSense_sensorEnableMaskBackup
 1535              		.cfi_endproc
 1536              	.LFE42:
 1537              		.size	CapSense_ScanWidget, .-CapSense_ScanWidget
 1538              		.section	.text.CapSense_GetSenseClkDivider,"ax",%progbits
 1539              		.align	2
 1540              		.global	CapSense_GetSenseClkDivider
 1541              		.code	16
 1542              		.thumb_func
 1543              		.type	CapSense_GetSenseClkDivider, %function
 1544              	CapSense_GetSenseClkDivider:
 1545              	.LFB61:
1822:.\Generated_Source\PSoC4/CapSense.c **** 
1823:.\Generated_Source\PSoC4/CapSense.c **** 
1824:.\Generated_Source\PSoC4/CapSense.c **** 
1825:.\Generated_Source\PSoC4/CapSense.c **** /*******************************************************************************
1826:.\Generated_Source\PSoC4/CapSense.c **** * Function Name: CapSense_GetSenseClkDivider
1827:.\Generated_Source\PSoC4/CapSense.c **** ********************************************************************************
1828:.\Generated_Source\PSoC4/CapSense.c **** *
1829:.\Generated_Source\PSoC4/CapSense.c **** * Summary:
1830:.\Generated_Source\PSoC4/CapSense.c **** *  This API returns a value of the sense clock divider for the  sensor.
1831:.\Generated_Source\PSoC4/CapSense.c **** *
1832:.\Generated_Source\PSoC4/CapSense.c **** * Parameters:
1833:.\Generated_Source\PSoC4/CapSense.c **** *  sensor: sensor index. The index value can be
1834:.\Generated_Source\PSoC4/CapSense.c **** *  from 0 to (CapSense_TOTAL_SENSOR_COUNT-1).
1835:.\Generated_Source\PSoC4/CapSense.c **** *
1836:.\Generated_Source\PSoC4/CapSense.c **** * Return:
1837:.\Generated_Source\PSoC4/CapSense.c **** *  This API returns the sense clock divider of the sensor.
1838:.\Generated_Source\PSoC4/CapSense.c **** *
1839:.\Generated_Source\PSoC4/CapSense.c **** * Global Variables:
1840:.\Generated_Source\PSoC4/CapSense.c **** *  CapSense_senseClkDividerVal[] - stores the sense clock divider values.
1841:.\Generated_Source\PSoC4/CapSense.c **** *
1842:.\Generated_Source\PSoC4/CapSense.c **** * Side Effects:
1843:.\Generated_Source\PSoC4/CapSense.c **** *  None
1844:.\Generated_Source\PSoC4/CapSense.c **** *
1845:.\Generated_Source\PSoC4/CapSense.c **** *******************************************************************************/
1846:.\Generated_Source\PSoC4/CapSense.c **** uint32 CapSense_GetSenseClkDivider(uint32 sensor)
1847:.\Generated_Source\PSoC4/CapSense.c **** {
 1546              		.loc 1 1847 0
 1547              		.cfi_startproc
 1548              	.LVL188:
1848:.\Generated_Source\PSoC4/CapSense.c ****     #if(0u != CapSense_MULTIPLE_FREQUENCY_SET)
1849:.\Generated_Source\PSoC4/CapSense.c ****         return((uint32)CapSense_senseClkDividerVal[sensor]);
ARM GAS  C:\Users\ALEXAN~1\AppData\Local\Temp\ccazldJ5.s 			page 62


 1549              		.loc 1 1849 0
 1550 0000 014B     		ldr	r3, .L104
 1551 0002 7833     		add	r3, r3, #120
 1552 0004 185C     		ldrb	r0, [r3, r0]
 1553              	.LVL189:
1850:.\Generated_Source\PSoC4/CapSense.c ****     #else
1851:.\Generated_Source\PSoC4/CapSense.c ****         return((uint32)CapSense_senseClkDividerVal);
1852:.\Generated_Source\PSoC4/CapSense.c ****     #endif /* (0u != CapSense_MULTIPLE_FREQUENCY_SET) */
1853:.\Generated_Source\PSoC4/CapSense.c **** }
 1554              		.loc 1 1853 0
 1555              		@ sp needed
 1556 0006 7047     		bx	lr
 1557              	.L105:
 1558              		.align	2
 1559              	.L104:
 1560 0008 00000000 		.word	.LANCHOR1
 1561              		.cfi_endproc
 1562              	.LFE61:
 1563              		.size	CapSense_GetSenseClkDivider, .-CapSense_GetSenseClkDivider
 1564              		.section	.text.CapSense_GetModulatorClkDivider,"ax",%progbits
 1565              		.align	2
 1566              		.global	CapSense_GetModulatorClkDivider
 1567              		.code	16
 1568              		.thumb_func
 1569              		.type	CapSense_GetModulatorClkDivider, %function
 1570              	CapSense_GetModulatorClkDivider:
 1571              	.LFB62:
1854:.\Generated_Source\PSoC4/CapSense.c **** 
1855:.\Generated_Source\PSoC4/CapSense.c **** #if (CapSense_TUNING_METHOD != CapSense__TUNING_NONE)
1856:.\Generated_Source\PSoC4/CapSense.c ****     /*******************************************************************************
1857:.\Generated_Source\PSoC4/CapSense.c ****     * Function Name: CapSense_SetSenseClkDivider
1858:.\Generated_Source\PSoC4/CapSense.c ****     ********************************************************************************
1859:.\Generated_Source\PSoC4/CapSense.c ****     *
1860:.\Generated_Source\PSoC4/CapSense.c ****     * Summary:
1861:.\Generated_Source\PSoC4/CapSense.c ****     *  This API sets a value of the sense clock divider for the  sensor.
1862:.\Generated_Source\PSoC4/CapSense.c ****     *
1863:.\Generated_Source\PSoC4/CapSense.c ****     * Parameters:
1864:.\Generated_Source\PSoC4/CapSense.c ****     *  sensor:  Sensor index.
1865:.\Generated_Source\PSoC4/CapSense.c ****     *  senseClk: represents the sense clock value.
1866:.\Generated_Source\PSoC4/CapSense.c ****     *
1867:.\Generated_Source\PSoC4/CapSense.c ****     * Return:
1868:.\Generated_Source\PSoC4/CapSense.c ****     *  None.
1869:.\Generated_Source\PSoC4/CapSense.c ****     *
1870:.\Generated_Source\PSoC4/CapSense.c ****     * Global Variables:
1871:.\Generated_Source\PSoC4/CapSense.c ****     *  CapSense_senseClkDividerVal[] - stores the sense clock divider values.
1872:.\Generated_Source\PSoC4/CapSense.c ****     *
1873:.\Generated_Source\PSoC4/CapSense.c ****     * Side Effects:
1874:.\Generated_Source\PSoC4/CapSense.c ****     *  None
1875:.\Generated_Source\PSoC4/CapSense.c ****     *
1876:.\Generated_Source\PSoC4/CapSense.c ****     *******************************************************************************/
1877:.\Generated_Source\PSoC4/CapSense.c ****     void CapSense_SetSenseClkDivider(uint32 sensor, uint32 senseClk)
1878:.\Generated_Source\PSoC4/CapSense.c ****     {
1879:.\Generated_Source\PSoC4/CapSense.c ****         #if(0u != CapSense_MULTIPLE_FREQUENCY_SET)
1880:.\Generated_Source\PSoC4/CapSense.c ****             CapSense_senseClkDividerVal[sensor] = (uint8)senseClk;
1881:.\Generated_Source\PSoC4/CapSense.c ****         #else
1882:.\Generated_Source\PSoC4/CapSense.c ****             CapSense_senseClkDividerVal = (uint8)senseClk;
1883:.\Generated_Source\PSoC4/CapSense.c ****         #endif /* (0u != CapSense_MULTIPLE_FREQUENCY_SET) */
ARM GAS  C:\Users\ALEXAN~1\AppData\Local\Temp\ccazldJ5.s 			page 63


1884:.\Generated_Source\PSoC4/CapSense.c ****     }
1885:.\Generated_Source\PSoC4/CapSense.c **** #endif /* (CapSense_TUNING_METHOD != CapSense__TUNING_NONE) */
1886:.\Generated_Source\PSoC4/CapSense.c **** 
1887:.\Generated_Source\PSoC4/CapSense.c **** 
1888:.\Generated_Source\PSoC4/CapSense.c **** /*******************************************************************************
1889:.\Generated_Source\PSoC4/CapSense.c **** * Function Name: CapSense_GetModulatorClkDivider
1890:.\Generated_Source\PSoC4/CapSense.c **** ********************************************************************************
1891:.\Generated_Source\PSoC4/CapSense.c **** *
1892:.\Generated_Source\PSoC4/CapSense.c **** * Summary:
1893:.\Generated_Source\PSoC4/CapSense.c **** *  This API returns a value of the modulator sample clock divider for the  sensor.
1894:.\Generated_Source\PSoC4/CapSense.c **** *
1895:.\Generated_Source\PSoC4/CapSense.c **** * Parameters:
1896:.\Generated_Source\PSoC4/CapSense.c **** *  sensor: sensor index. The value of index can be
1897:.\Generated_Source\PSoC4/CapSense.c **** *  from 0 to (CapSense_TOTAL_SENSOR_COUNT-1).
1898:.\Generated_Source\PSoC4/CapSense.c **** *
1899:.\Generated_Source\PSoC4/CapSense.c **** * Return:
1900:.\Generated_Source\PSoC4/CapSense.c **** *  This API returns the modulator sample clock divider for the  sensor.
1901:.\Generated_Source\PSoC4/CapSense.c **** *
1902:.\Generated_Source\PSoC4/CapSense.c **** * Global Variables:
1903:.\Generated_Source\PSoC4/CapSense.c **** *  CapSense_sampleClkDividerVal[] - stores the modulator sample divider values.
1904:.\Generated_Source\PSoC4/CapSense.c **** *
1905:.\Generated_Source\PSoC4/CapSense.c **** * Side Effects:
1906:.\Generated_Source\PSoC4/CapSense.c **** *  None
1907:.\Generated_Source\PSoC4/CapSense.c **** *
1908:.\Generated_Source\PSoC4/CapSense.c **** *******************************************************************************/
1909:.\Generated_Source\PSoC4/CapSense.c **** uint32 CapSense_GetModulatorClkDivider(uint32 sensor)
1910:.\Generated_Source\PSoC4/CapSense.c **** {
 1572              		.loc 1 1910 0
 1573              		.cfi_startproc
 1574              	.LVL190:
1911:.\Generated_Source\PSoC4/CapSense.c ****     #if(0u != CapSense_MULTIPLE_FREQUENCY_SET)
1912:.\Generated_Source\PSoC4/CapSense.c ****         return((uint32)CapSense_sampleClkDividerVal[sensor]);
 1575              		.loc 1 1912 0
 1576 0000 014B     		ldr	r3, .L107
 1577 0002 6C33     		add	r3, r3, #108
 1578 0004 185C     		ldrb	r0, [r3, r0]
 1579              	.LVL191:
1913:.\Generated_Source\PSoC4/CapSense.c ****     #else
1914:.\Generated_Source\PSoC4/CapSense.c ****         return((uint32)CapSense_sampleClkDividerVal);
1915:.\Generated_Source\PSoC4/CapSense.c ****     #endif /* (0u != CapSense_MULTIPLE_FREQUENCY_SET) */
1916:.\Generated_Source\PSoC4/CapSense.c **** }
 1580              		.loc 1 1916 0
 1581              		@ sp needed
 1582 0006 7047     		bx	lr
 1583              	.L108:
 1584              		.align	2
 1585              	.L107:
 1586 0008 00000000 		.word	.LANCHOR1
 1587              		.cfi_endproc
 1588              	.LFE62:
 1589              		.size	CapSense_GetModulatorClkDivider, .-CapSense_GetModulatorClkDivider
 1590              		.section	.text.CapSense_GetModulationIDAC,"ax",%progbits
 1591              		.align	2
 1592              		.global	CapSense_GetModulationIDAC
 1593              		.code	16
 1594              		.thumb_func
 1595              		.type	CapSense_GetModulationIDAC, %function
ARM GAS  C:\Users\ALEXAN~1\AppData\Local\Temp\ccazldJ5.s 			page 64


 1596              	CapSense_GetModulationIDAC:
 1597              	.LFB63:
1917:.\Generated_Source\PSoC4/CapSense.c **** 
1918:.\Generated_Source\PSoC4/CapSense.c **** #if (CapSense_TUNING_METHOD != CapSense__TUNING_NONE)
1919:.\Generated_Source\PSoC4/CapSense.c ****     /*******************************************************************************
1920:.\Generated_Source\PSoC4/CapSense.c ****     * Function Name: CapSense_SetModulatorClkDivider
1921:.\Generated_Source\PSoC4/CapSense.c ****     ********************************************************************************
1922:.\Generated_Source\PSoC4/CapSense.c ****     *
1923:.\Generated_Source\PSoC4/CapSense.c ****     * Summary:
1924:.\Generated_Source\PSoC4/CapSense.c ****     *  This API sets a value of the modulator sample clock divider for the  sensor.
1925:.\Generated_Source\PSoC4/CapSense.c ****     *
1926:.\Generated_Source\PSoC4/CapSense.c ****     * Parameters:
1927:.\Generated_Source\PSoC4/CapSense.c ****     *  sensor:  Sensor index.
1928:.\Generated_Source\PSoC4/CapSense.c ****     *  modulatorClk: represents the modulator sample clock value.
1929:.\Generated_Source\PSoC4/CapSense.c ****     *
1930:.\Generated_Source\PSoC4/CapSense.c ****     * Return:
1931:.\Generated_Source\PSoC4/CapSense.c ****     *  None.
1932:.\Generated_Source\PSoC4/CapSense.c ****     *
1933:.\Generated_Source\PSoC4/CapSense.c ****     * Global Variables:
1934:.\Generated_Source\PSoC4/CapSense.c ****     *  CapSense_sampleClkDividerVal[] - stores the modulator sample divider values.
1935:.\Generated_Source\PSoC4/CapSense.c ****     *
1936:.\Generated_Source\PSoC4/CapSense.c ****     * Side Effects:
1937:.\Generated_Source\PSoC4/CapSense.c ****     *  None
1938:.\Generated_Source\PSoC4/CapSense.c ****     *
1939:.\Generated_Source\PSoC4/CapSense.c ****     *******************************************************************************/
1940:.\Generated_Source\PSoC4/CapSense.c ****     void CapSense_SetModulatorClkDivider(uint32 sensor, uint32 modulatorClk)
1941:.\Generated_Source\PSoC4/CapSense.c ****     {
1942:.\Generated_Source\PSoC4/CapSense.c ****         #if(0u != CapSense_MULTIPLE_FREQUENCY_SET)
1943:.\Generated_Source\PSoC4/CapSense.c ****             CapSense_sampleClkDividerVal[sensor] = (uint8)modulatorClk;
1944:.\Generated_Source\PSoC4/CapSense.c ****         #else
1945:.\Generated_Source\PSoC4/CapSense.c ****             CapSense_sampleClkDividerVal = (uint8)modulatorClk;
1946:.\Generated_Source\PSoC4/CapSense.c ****         #endif /* (0u != CapSense_MULTIPLE_FREQUENCY_SET) */
1947:.\Generated_Source\PSoC4/CapSense.c ****     }
1948:.\Generated_Source\PSoC4/CapSense.c **** #endif /* (CapSense_TUNING_METHOD != CapSense__TUNING_NONE) */
1949:.\Generated_Source\PSoC4/CapSense.c **** 
1950:.\Generated_Source\PSoC4/CapSense.c **** /*******************************************************************************
1951:.\Generated_Source\PSoC4/CapSense.c **** * Function Name: CapSense_GetModulationIDAC
1952:.\Generated_Source\PSoC4/CapSense.c **** ********************************************************************************
1953:.\Generated_Source\PSoC4/CapSense.c **** *
1954:.\Generated_Source\PSoC4/CapSense.c **** * Summary:
1955:.\Generated_Source\PSoC4/CapSense.c **** *  This API returns a value of the modulation IDAC for the  sensor.
1956:.\Generated_Source\PSoC4/CapSense.c **** *
1957:.\Generated_Source\PSoC4/CapSense.c **** * Parameters:
1958:.\Generated_Source\PSoC4/CapSense.c **** *  sensor: sensor index. The index value can be
1959:.\Generated_Source\PSoC4/CapSense.c **** *  from 0 to (CapSense_TOTAL_SENSOR_COUNT-1).
1960:.\Generated_Source\PSoC4/CapSense.c **** *
1961:.\Generated_Source\PSoC4/CapSense.c **** * Return:
1962:.\Generated_Source\PSoC4/CapSense.c **** *  This API returns the modulation IDAC of the sensor.
1963:.\Generated_Source\PSoC4/CapSense.c **** *
1964:.\Generated_Source\PSoC4/CapSense.c **** * Global Variables:
1965:.\Generated_Source\PSoC4/CapSense.c **** *  CapSense_modulationIDAC[] - stores modulation IDAC values.
1966:.\Generated_Source\PSoC4/CapSense.c **** *
1967:.\Generated_Source\PSoC4/CapSense.c **** * Side Effects:
1968:.\Generated_Source\PSoC4/CapSense.c **** *  None
1969:.\Generated_Source\PSoC4/CapSense.c **** *
1970:.\Generated_Source\PSoC4/CapSense.c **** *******************************************************************************/
1971:.\Generated_Source\PSoC4/CapSense.c **** uint32 CapSense_GetModulationIDAC(uint32 sensor)
ARM GAS  C:\Users\ALEXAN~1\AppData\Local\Temp\ccazldJ5.s 			page 65


1972:.\Generated_Source\PSoC4/CapSense.c **** {
 1598              		.loc 1 1972 0
 1599              		.cfi_startproc
 1600              	.LVL192:
1973:.\Generated_Source\PSoC4/CapSense.c ****         return((uint32)CapSense_modulationIDAC[sensor]);
 1601              		.loc 1 1973 0
 1602 0000 014B     		ldr	r3, .L110
 1603 0002 1818     		add	r0, r3, r0
 1604              	.LVL193:
 1605 0004 0079     		ldrb	r0, [r0, #4]
1974:.\Generated_Source\PSoC4/CapSense.c **** }
 1606              		.loc 1 1974 0
 1607              		@ sp needed
 1608 0006 7047     		bx	lr
 1609              	.L111:
 1610              		.align	2
 1611              	.L110:
 1612 0008 80000000 		.word	.LANCHOR2
 1613              		.cfi_endproc
 1614              	.LFE63:
 1615              		.size	CapSense_GetModulationIDAC, .-CapSense_GetModulationIDAC
 1616              		.section	.text.CapSense_GetCompensationIDAC,"ax",%progbits
 1617              		.align	2
 1618              		.global	CapSense_GetCompensationIDAC
 1619              		.code	16
 1620              		.thumb_func
 1621              		.type	CapSense_GetCompensationIDAC, %function
 1622              	CapSense_GetCompensationIDAC:
 1623              	.LFB64:
1975:.\Generated_Source\PSoC4/CapSense.c **** 
1976:.\Generated_Source\PSoC4/CapSense.c **** #if (CapSense_TUNING_METHOD != CapSense__TUNING_NONE)
1977:.\Generated_Source\PSoC4/CapSense.c ****     /*******************************************************************************
1978:.\Generated_Source\PSoC4/CapSense.c ****     * Function Name: CapSense_SetModulationIDAC
1979:.\Generated_Source\PSoC4/CapSense.c ****     ********************************************************************************
1980:.\Generated_Source\PSoC4/CapSense.c ****     *
1981:.\Generated_Source\PSoC4/CapSense.c ****     * Summary:
1982:.\Generated_Source\PSoC4/CapSense.c ****     *  This API sets a value of the modulation IDAC for the  sensor.
1983:.\Generated_Source\PSoC4/CapSense.c ****     *
1984:.\Generated_Source\PSoC4/CapSense.c ****     * Parameters:
1985:.\Generated_Source\PSoC4/CapSense.c ****     *  sensor:  Sensor index.
1986:.\Generated_Source\PSoC4/CapSense.c ****     *  compIdacValue: represents the modulation IDAC data register value.
1987:.\Generated_Source\PSoC4/CapSense.c ****     *
1988:.\Generated_Source\PSoC4/CapSense.c ****     * Return:
1989:.\Generated_Source\PSoC4/CapSense.c ****     *  None.
1990:.\Generated_Source\PSoC4/CapSense.c ****     *
1991:.\Generated_Source\PSoC4/CapSense.c ****     * Global Variables:
1992:.\Generated_Source\PSoC4/CapSense.c ****     *  CapSense_modulationIDAC[] - array with modulation IDAC values
1993:.\Generated_Source\PSoC4/CapSense.c ****     *
1994:.\Generated_Source\PSoC4/CapSense.c ****     * Side Effects:
1995:.\Generated_Source\PSoC4/CapSense.c ****     *  None
1996:.\Generated_Source\PSoC4/CapSense.c ****     *
1997:.\Generated_Source\PSoC4/CapSense.c ****     *******************************************************************************/
1998:.\Generated_Source\PSoC4/CapSense.c ****     void CapSense_SetModulationIDAC(uint32 sensor, uint32 modIdacValue)
1999:.\Generated_Source\PSoC4/CapSense.c ****     {
2000:.\Generated_Source\PSoC4/CapSense.c ****         CapSense_modulationIDAC[sensor] = (uint8)modIdacValue;
2001:.\Generated_Source\PSoC4/CapSense.c ****     }
2002:.\Generated_Source\PSoC4/CapSense.c **** #endif /* (CapSense_TUNING_METHOD != CapSense__TUNING_NONE) */
ARM GAS  C:\Users\ALEXAN~1\AppData\Local\Temp\ccazldJ5.s 			page 66


2003:.\Generated_Source\PSoC4/CapSense.c **** 
2004:.\Generated_Source\PSoC4/CapSense.c **** 
2005:.\Generated_Source\PSoC4/CapSense.c **** #if(CapSense_IDAC_CNT > 1u)
2006:.\Generated_Source\PSoC4/CapSense.c ****     /*******************************************************************************
2007:.\Generated_Source\PSoC4/CapSense.c ****     * Function Name: CapSense_GetCompensationIDAC
2008:.\Generated_Source\PSoC4/CapSense.c ****     ********************************************************************************
2009:.\Generated_Source\PSoC4/CapSense.c ****     *
2010:.\Generated_Source\PSoC4/CapSense.c ****     * Summary:
2011:.\Generated_Source\PSoC4/CapSense.c ****     *  This API returns a value of the compensation IDAC for the  sensor.
2012:.\Generated_Source\PSoC4/CapSense.c ****     *
2013:.\Generated_Source\PSoC4/CapSense.c ****     * Parameters:
2014:.\Generated_Source\PSoC4/CapSense.c ****     *  sensor: sensor index. The index value can be
2015:.\Generated_Source\PSoC4/CapSense.c ****     *  from 0 to (CapSense_TOTAL_SENSOR_COUNT-1).
2016:.\Generated_Source\PSoC4/CapSense.c ****     *
2017:.\Generated_Source\PSoC4/CapSense.c ****     * Return:
2018:.\Generated_Source\PSoC4/CapSense.c ****     *  This API returns the compensation IDAC of the sensor.
2019:.\Generated_Source\PSoC4/CapSense.c ****     *
2020:.\Generated_Source\PSoC4/CapSense.c ****     * Global Variables:
2021:.\Generated_Source\PSoC4/CapSense.c ****     *  CapSense_compensationIDAC[] - stores the compensation IDAC values.
2022:.\Generated_Source\PSoC4/CapSense.c ****     *
2023:.\Generated_Source\PSoC4/CapSense.c ****     * Side Effects:
2024:.\Generated_Source\PSoC4/CapSense.c ****     *  None
2025:.\Generated_Source\PSoC4/CapSense.c ****     *
2026:.\Generated_Source\PSoC4/CapSense.c ****     *******************************************************************************/
2027:.\Generated_Source\PSoC4/CapSense.c ****     uint32 CapSense_GetCompensationIDAC(uint32 sensor)
2028:.\Generated_Source\PSoC4/CapSense.c ****     {
 1624              		.loc 1 2028 0
 1625              		.cfi_startproc
 1626              	.LVL194:
2029:.\Generated_Source\PSoC4/CapSense.c ****         return((uint32)CapSense_compensationIDAC[sensor]);
 1627              		.loc 1 2029 0
 1628 0000 014B     		ldr	r3, .L113
 1629 0002 1818     		add	r0, r3, r0
 1630              	.LVL195:
 1631 0004 007C     		ldrb	r0, [r0, #16]
2030:.\Generated_Source\PSoC4/CapSense.c ****     }
 1632              		.loc 1 2030 0
 1633              		@ sp needed
 1634 0006 7047     		bx	lr
 1635              	.L114:
 1636              		.align	2
 1637              	.L113:
 1638 0008 80000000 		.word	.LANCHOR2
 1639              		.cfi_endproc
 1640              	.LFE64:
 1641              		.size	CapSense_GetCompensationIDAC, .-CapSense_GetCompensationIDAC
 1642              		.section	.text.CapSense_GetIDACRange,"ax",%progbits
 1643              		.align	2
 1644              		.global	CapSense_GetIDACRange
 1645              		.code	16
 1646              		.thumb_func
 1647              		.type	CapSense_GetIDACRange, %function
 1648              	CapSense_GetIDACRange:
 1649              	.LFB65:
2031:.\Generated_Source\PSoC4/CapSense.c **** #endif /* (CapSense_IDAC_CNT > 1u) */
2032:.\Generated_Source\PSoC4/CapSense.c **** 
2033:.\Generated_Source\PSoC4/CapSense.c **** 
ARM GAS  C:\Users\ALEXAN~1\AppData\Local\Temp\ccazldJ5.s 			page 67


2034:.\Generated_Source\PSoC4/CapSense.c **** #if((CapSense_TUNING_METHOD != CapSense__TUNING_NONE) && (CapSense_IDAC_CNT > 1u))
2035:.\Generated_Source\PSoC4/CapSense.c ****     /*******************************************************************************
2036:.\Generated_Source\PSoC4/CapSense.c ****     * Function Name: CapSense_SetCompensationIDAC
2037:.\Generated_Source\PSoC4/CapSense.c ****     ********************************************************************************
2038:.\Generated_Source\PSoC4/CapSense.c ****     *
2039:.\Generated_Source\PSoC4/CapSense.c ****     * Summary:
2040:.\Generated_Source\PSoC4/CapSense.c ****     *  This API sets a value of compensation IDAC for the  sensor.
2041:.\Generated_Source\PSoC4/CapSense.c ****     *
2042:.\Generated_Source\PSoC4/CapSense.c ****     * Parameters:
2043:.\Generated_Source\PSoC4/CapSense.c ****     *  sensor:  Sensor index.
2044:.\Generated_Source\PSoC4/CapSense.c ****     *  compIdacValue: represents the compensation IDAC data register value.
2045:.\Generated_Source\PSoC4/CapSense.c ****     *
2046:.\Generated_Source\PSoC4/CapSense.c ****     * Return:
2047:.\Generated_Source\PSoC4/CapSense.c ****     *  None.
2048:.\Generated_Source\PSoC4/CapSense.c ****     *
2049:.\Generated_Source\PSoC4/CapSense.c ****     * Global Variables:
2050:.\Generated_Source\PSoC4/CapSense.c ****     *  CapSense_compensationIDAC[] - an array with compensation IDAC values
2051:.\Generated_Source\PSoC4/CapSense.c ****     *
2052:.\Generated_Source\PSoC4/CapSense.c ****     * Side Effects:
2053:.\Generated_Source\PSoC4/CapSense.c ****     *  None
2054:.\Generated_Source\PSoC4/CapSense.c ****     *
2055:.\Generated_Source\PSoC4/CapSense.c ****     *******************************************************************************/
2056:.\Generated_Source\PSoC4/CapSense.c ****     void CapSense_SetCompensationIDAC(uint32 sensor, uint32 compIdacValue)
2057:.\Generated_Source\PSoC4/CapSense.c ****     {
2058:.\Generated_Source\PSoC4/CapSense.c ****         CapSense_compensationIDAC[sensor] = (uint8)compIdacValue;
2059:.\Generated_Source\PSoC4/CapSense.c ****     }
2060:.\Generated_Source\PSoC4/CapSense.c **** #endif /* ((CapSense_TUNING_METHOD != CapSense__TUNING_NONE) && (CapSense_IDAC_CNT > 1u)) */
2061:.\Generated_Source\PSoC4/CapSense.c **** 
2062:.\Generated_Source\PSoC4/CapSense.c **** /*******************************************************************************
2063:.\Generated_Source\PSoC4/CapSense.c **** * Function Name: CapSense_GetIDACRange
2064:.\Generated_Source\PSoC4/CapSense.c **** ********************************************************************************
2065:.\Generated_Source\PSoC4/CapSense.c **** *
2066:.\Generated_Source\PSoC4/CapSense.c **** * Summary:
2067:.\Generated_Source\PSoC4/CapSense.c **** *  This API returns a value that indicates the IDAC range used by the
2068:.\Generated_Source\PSoC4/CapSense.c **** *  component to scan sensors. The IDAC range is common for all the sensors.
2069:.\Generated_Source\PSoC4/CapSense.c **** *
2070:.\Generated_Source\PSoC4/CapSense.c **** * Parameters:
2071:.\Generated_Source\PSoC4/CapSense.c **** *  None
2072:.\Generated_Source\PSoC4/CapSense.c **** *
2073:.\Generated_Source\PSoC4/CapSense.c **** * Return:
2074:.\Generated_Source\PSoC4/CapSense.c **** *  This API Returns a value that indicates the IDAC range:
2075:.\Generated_Source\PSoC4/CapSense.c **** *      0 - IDAC range set to 4x
2076:.\Generated_Source\PSoC4/CapSense.c **** *      1 - IDAC range set to 8x
2077:.\Generated_Source\PSoC4/CapSense.c **** *
2078:.\Generated_Source\PSoC4/CapSense.c **** * Global Variables:
2079:.\Generated_Source\PSoC4/CapSense.c **** *  None
2080:.\Generated_Source\PSoC4/CapSense.c **** *
2081:.\Generated_Source\PSoC4/CapSense.c **** * Side Effects:
2082:.\Generated_Source\PSoC4/CapSense.c **** *  None
2083:.\Generated_Source\PSoC4/CapSense.c **** *
2084:.\Generated_Source\PSoC4/CapSense.c **** *******************************************************************************/
2085:.\Generated_Source\PSoC4/CapSense.c **** uint32 CapSense_GetIDACRange(void)
2086:.\Generated_Source\PSoC4/CapSense.c **** {
 1650              		.loc 1 2086 0
 1651              		.cfi_startproc
2087:.\Generated_Source\PSoC4/CapSense.c ****     return((0u != (CapSense_CSD_IDAC_REG & CapSense_CSD_IDAC1_RANGE_8X)) ? 1uL : 0uL);
 1652              		.loc 1 2087 0
ARM GAS  C:\Users\ALEXAN~1\AppData\Local\Temp\ccazldJ5.s 			page 68


 1653 0000 034B     		ldr	r3, .L117
 1654 0002 1868     		ldr	r0, [r3]
 1655 0004 8023     		mov	r3, #128
 1656 0006 DB00     		lsl	r3, r3, #3
 1657 0008 1840     		and	r0, r3
 1658 000a 00D0     		beq	.L116
 1659 000c 0120     		mov	r0, #1
 1660              	.L116:
2088:.\Generated_Source\PSoC4/CapSense.c **** }
 1661              		.loc 1 2088 0 discriminator 4
 1662              		@ sp needed
 1663 000e 7047     		bx	lr
 1664              	.L118:
 1665              		.align	2
 1666              	.L117:
 1667 0010 08002840 		.word	1076363272
 1668              		.cfi_endproc
 1669              	.LFE65:
 1670              		.size	CapSense_GetIDACRange, .-CapSense_GetIDACRange
 1671              		.section	.text.CapSense_SetUnscannedSensorState,"ax",%progbits
 1672              		.align	2
 1673              		.global	CapSense_SetUnscannedSensorState
 1674              		.code	16
 1675              		.thumb_func
 1676              		.type	CapSense_SetUnscannedSensorState, %function
 1677              	CapSense_SetUnscannedSensorState:
 1678              	.LFB66:
2089:.\Generated_Source\PSoC4/CapSense.c **** 
2090:.\Generated_Source\PSoC4/CapSense.c **** #if (CapSense_TUNING_METHOD != CapSense__TUNING_NONE)
2091:.\Generated_Source\PSoC4/CapSense.c ****     /*******************************************************************************
2092:.\Generated_Source\PSoC4/CapSense.c ****     * Function Name: CapSense_SetIDACRange
2093:.\Generated_Source\PSoC4/CapSense.c ****     ********************************************************************************
2094:.\Generated_Source\PSoC4/CapSense.c ****     *
2095:.\Generated_Source\PSoC4/CapSense.c ****     * Summary:
2096:.\Generated_Source\PSoC4/CapSense.c ****     *  This API sets the IDAC range to the 4x (1.2uA/bit) or 8x (2.4uA/bit) mode.
2097:.\Generated_Source\PSoC4/CapSense.c ****     *  The IDAC range is common for all the sensors and common for the modulation and
2098:.\Generated_Source\PSoC4/CapSense.c ****     *  compensation IDACs.
2099:.\Generated_Source\PSoC4/CapSense.c ****     *
2100:.\Generated_Source\PSoC4/CapSense.c ****     * Parameters:
2101:.\Generated_Source\PSoC4/CapSense.c ****     *  iDacRange:  represents value for IDAC range
2102:.\Generated_Source\PSoC4/CapSense.c ****     *  0 -  IDAC range set to 4x (1.2uA/bit)
2103:.\Generated_Source\PSoC4/CapSense.c ****     *  1 or >1 - IDAC range set to 8x (2.4uA/bit)
2104:.\Generated_Source\PSoC4/CapSense.c ****     *
2105:.\Generated_Source\PSoC4/CapSense.c ****     * Return:
2106:.\Generated_Source\PSoC4/CapSense.c ****     *  None.
2107:.\Generated_Source\PSoC4/CapSense.c ****     *
2108:.\Generated_Source\PSoC4/CapSense.c ****     * Global Variables:
2109:.\Generated_Source\PSoC4/CapSense.c ****     *  None
2110:.\Generated_Source\PSoC4/CapSense.c ****     *
2111:.\Generated_Source\PSoC4/CapSense.c ****     * Side Effects:
2112:.\Generated_Source\PSoC4/CapSense.c ****     *  None
2113:.\Generated_Source\PSoC4/CapSense.c ****     *
2114:.\Generated_Source\PSoC4/CapSense.c ****     *******************************************************************************/
2115:.\Generated_Source\PSoC4/CapSense.c ****     void CapSense_SetIDACRange(uint32 iDacRange)
2116:.\Generated_Source\PSoC4/CapSense.c ****     {
2117:.\Generated_Source\PSoC4/CapSense.c ****         if(iDacRange != 0u)
2118:.\Generated_Source\PSoC4/CapSense.c ****         {
ARM GAS  C:\Users\ALEXAN~1\AppData\Local\Temp\ccazldJ5.s 			page 69


2119:.\Generated_Source\PSoC4/CapSense.c ****             /*  IDAC range = 8x (2.4uA/bit) */
2120:.\Generated_Source\PSoC4/CapSense.c ****             CapSense_CSD_IDAC_REG |= (CapSense_CSD_IDAC1_RANGE_8X |\
2121:.\Generated_Source\PSoC4/CapSense.c ****                                               CapSense_CSD_IDAC2_RANGE_8X);
2122:.\Generated_Source\PSoC4/CapSense.c ****         }
2123:.\Generated_Source\PSoC4/CapSense.c ****         else
2124:.\Generated_Source\PSoC4/CapSense.c ****         {
2125:.\Generated_Source\PSoC4/CapSense.c ****             /*  IDAC range = 4x (1.2uA/bit) */
2126:.\Generated_Source\PSoC4/CapSense.c ****             /*  IDAC range = 8x (2.4uA/bit) */
2127:.\Generated_Source\PSoC4/CapSense.c ****             CapSense_CSD_IDAC_REG &= ~(CapSense_CSD_IDAC1_RANGE_8X |\
2128:.\Generated_Source\PSoC4/CapSense.c ****                                                CapSense_CSD_IDAC2_RANGE_8X);
2129:.\Generated_Source\PSoC4/CapSense.c ****         }
2130:.\Generated_Source\PSoC4/CapSense.c ****     }
2131:.\Generated_Source\PSoC4/CapSense.c **** #endif /* (CapSense_TUNING_METHOD != CapSense__TUNING_NONE) */
2132:.\Generated_Source\PSoC4/CapSense.c **** 
2133:.\Generated_Source\PSoC4/CapSense.c **** 
2134:.\Generated_Source\PSoC4/CapSense.c **** #if((0u != CapSense_AUTOCALIBRATION_ENABLE) || (CapSense_TUNING_METHOD == CapSense__TUNING_AUTO))
2135:.\Generated_Source\PSoC4/CapSense.c ****     /*******************************************************************************
2136:.\Generated_Source\PSoC4/CapSense.c ****     * Function Name: CapSense_GetSensorRaw
2137:.\Generated_Source\PSoC4/CapSense.c ****     ********************************************************************************
2138:.\Generated_Source\PSoC4/CapSense.c ****     *
2139:.\Generated_Source\PSoC4/CapSense.c ****     * Summary:
2140:.\Generated_Source\PSoC4/CapSense.c ****     *  The API updates and gets uprated raw data from the sensor.
2141:.\Generated_Source\PSoC4/CapSense.c ****     *
2142:.\Generated_Source\PSoC4/CapSense.c ****     * Parameters:
2143:.\Generated_Source\PSoC4/CapSense.c ****     *  sensor - Sensor number.
2144:.\Generated_Source\PSoC4/CapSense.c ****     *
2145:.\Generated_Source\PSoC4/CapSense.c ****     * Return:
2146:.\Generated_Source\PSoC4/CapSense.c ****     *  Returns the current raw data value for a defined sensor number.
2147:.\Generated_Source\PSoC4/CapSense.c ****     *
2148:.\Generated_Source\PSoC4/CapSense.c ****     * Global Variables:
2149:.\Generated_Source\PSoC4/CapSense.c ****     *  None
2150:.\Generated_Source\PSoC4/CapSense.c ****     *
2151:.\Generated_Source\PSoC4/CapSense.c ****     * Side Effects:
2152:.\Generated_Source\PSoC4/CapSense.c ****     *  None
2153:.\Generated_Source\PSoC4/CapSense.c ****     *
2154:.\Generated_Source\PSoC4/CapSense.c ****     *******************************************************************************/
2155:.\Generated_Source\PSoC4/CapSense.c ****     uint16  CapSense_GetSensorRaw(uint32 sensor)
2156:.\Generated_Source\PSoC4/CapSense.c ****     {
2157:.\Generated_Source\PSoC4/CapSense.c ****         uint32 curSample;
2158:.\Generated_Source\PSoC4/CapSense.c ****         uint32 avgVal = 0u;
2159:.\Generated_Source\PSoC4/CapSense.c **** 
2160:.\Generated_Source\PSoC4/CapSense.c ****         for(curSample = 0u; curSample < CapSense_AVG_SAMPLES_NUM; curSample++)
2161:.\Generated_Source\PSoC4/CapSense.c ****         {
2162:.\Generated_Source\PSoC4/CapSense.c **** 
2163:.\Generated_Source\PSoC4/CapSense.c ****             CapSense_ScanSensor((uint32)sensor);
2164:.\Generated_Source\PSoC4/CapSense.c ****             while(CapSense_IsBusy() == 1u)
2165:.\Generated_Source\PSoC4/CapSense.c ****             {
2166:.\Generated_Source\PSoC4/CapSense.c ****                 /* Wait while sensor is busy */
2167:.\Generated_Source\PSoC4/CapSense.c ****             }
2168:.\Generated_Source\PSoC4/CapSense.c ****             avgVal += CapSense_ReadSensorRaw((uint32)sensor);
2169:.\Generated_Source\PSoC4/CapSense.c ****         }
2170:.\Generated_Source\PSoC4/CapSense.c **** 
2171:.\Generated_Source\PSoC4/CapSense.c ****         return((uint16)(avgVal / CapSense_AVG_SAMPLES_NUM));
2172:.\Generated_Source\PSoC4/CapSense.c ****     }
2173:.\Generated_Source\PSoC4/CapSense.c **** #endif /* ((0u != CapSense_AUTOCALIBRATION_ENABLE) && (CapSense_TUNING_METHOD == CapSense__TUNING_A
2174:.\Generated_Source\PSoC4/CapSense.c **** 
2175:.\Generated_Source\PSoC4/CapSense.c **** 
ARM GAS  C:\Users\ALEXAN~1\AppData\Local\Temp\ccazldJ5.s 			page 70


2176:.\Generated_Source\PSoC4/CapSense.c **** #if((0u != CapSense_AUTOCALIBRATION_ENABLE) && (CapSense_TUNING_METHOD != CapSense__TUNING_AUTO))
2177:.\Generated_Source\PSoC4/CapSense.c ****     /*******************************************************************************
2178:.\Generated_Source\PSoC4/CapSense.c ****     * Function Name: CapSense_CalibrateSensor
2179:.\Generated_Source\PSoC4/CapSense.c ****     ********************************************************************************
2180:.\Generated_Source\PSoC4/CapSense.c ****     *
2181:.\Generated_Source\PSoC4/CapSense.c ****     * Summary:
2182:.\Generated_Source\PSoC4/CapSense.c ****     *  Computes the one sensor IDAC value, which provides the raw signal on
2183:.\Generated_Source\PSoC4/CapSense.c ****     *  a specified level, with a specified prescaler, speed, and resolution.
2184:.\Generated_Source\PSoC4/CapSense.c ****     *
2185:.\Generated_Source\PSoC4/CapSense.c ****     * Parameters:
2186:.\Generated_Source\PSoC4/CapSense.c ****     *  sensor - Sensor Number.
2187:.\Generated_Source\PSoC4/CapSense.c ****     *
2188:.\Generated_Source\PSoC4/CapSense.c ****     *  rawLevel -  Raw data level which should be reached during the calibration
2189:.\Generated_Source\PSoC4/CapSense.c ****     *              procedure.
2190:.\Generated_Source\PSoC4/CapSense.c ****     *
2191:.\Generated_Source\PSoC4/CapSense.c ****     *  idacLevelsTbl - Pointer to the modulatorIdac data register configuration table.
2192:.\Generated_Source\PSoC4/CapSense.c ****     *
2193:.\Generated_Source\PSoC4/CapSense.c ****     * Return:
2194:.\Generated_Source\PSoC4/CapSense.c ****     *  None
2195:.\Generated_Source\PSoC4/CapSense.c ****     *
2196:.\Generated_Source\PSoC4/CapSense.c ****     *******************************************************************************/
2197:.\Generated_Source\PSoC4/CapSense.c ****     void CapSense_CalibrateSensor(uint32 sensor, uint32 rawLevel, uint8 idacLevelsTbl[])
2198:.\Generated_Source\PSoC4/CapSense.c ****     {
2199:.\Generated_Source\PSoC4/CapSense.c ****         uint8 mask;
2200:.\Generated_Source\PSoC4/CapSense.c ****         uint16 rawData;
2201:.\Generated_Source\PSoC4/CapSense.c **** 
2202:.\Generated_Source\PSoC4/CapSense.c ****         rawData = 0u;
2203:.\Generated_Source\PSoC4/CapSense.c **** 
2204:.\Generated_Source\PSoC4/CapSense.c ****         mask = 0x80u;
2205:.\Generated_Source\PSoC4/CapSense.c ****         /* Init IDAC for null Channel */
2206:.\Generated_Source\PSoC4/CapSense.c ****         idacLevelsTbl[sensor] = 0x00u;
2207:.\Generated_Source\PSoC4/CapSense.c **** 
2208:.\Generated_Source\PSoC4/CapSense.c ****         do
2209:.\Generated_Source\PSoC4/CapSense.c ****         {
2210:.\Generated_Source\PSoC4/CapSense.c ****             /* Set bit for null Channel */
2211:.\Generated_Source\PSoC4/CapSense.c ****             idacLevelsTbl[sensor] |= mask;
2212:.\Generated_Source\PSoC4/CapSense.c **** 
2213:.\Generated_Source\PSoC4/CapSense.c ****             /* Scan null Channel and get Rawdata */
2214:.\Generated_Source\PSoC4/CapSense.c ****             rawData = CapSense_GetSensorRaw(sensor);
2215:.\Generated_Source\PSoC4/CapSense.c **** 
2216:.\Generated_Source\PSoC4/CapSense.c ****             /* Decrease IDAC until Rawdata reaches rawLevel */
2217:.\Generated_Source\PSoC4/CapSense.c ****             if(rawData < rawLevel)
2218:.\Generated_Source\PSoC4/CapSense.c ****             {
2219:.\Generated_Source\PSoC4/CapSense.c ****                 /* Reset bit for null Channel  */
2220:.\Generated_Source\PSoC4/CapSense.c ****                 idacLevelsTbl[sensor] &= (uint8)~mask;
2221:.\Generated_Source\PSoC4/CapSense.c ****             }
2222:.\Generated_Source\PSoC4/CapSense.c **** 
2223:.\Generated_Source\PSoC4/CapSense.c ****             mask >>= 1u;
2224:.\Generated_Source\PSoC4/CapSense.c ****         }
2225:.\Generated_Source\PSoC4/CapSense.c ****         while(mask > 0u);
2226:.\Generated_Source\PSoC4/CapSense.c **** 
2227:.\Generated_Source\PSoC4/CapSense.c ****     }
2228:.\Generated_Source\PSoC4/CapSense.c **** #endif /* ((0u != CapSense_AUTOCALIBRATION_ENABLE) && (CapSense_TUNING_METHOD != CapSense__TUNING_A
2229:.\Generated_Source\PSoC4/CapSense.c **** 
2230:.\Generated_Source\PSoC4/CapSense.c **** 
2231:.\Generated_Source\PSoC4/CapSense.c **** /*******************************************************************************
2232:.\Generated_Source\PSoC4/CapSense.c **** * Function Name: CapSense_SetUnscannedSensorState
ARM GAS  C:\Users\ALEXAN~1\AppData\Local\Temp\ccazldJ5.s 			page 71


2233:.\Generated_Source\PSoC4/CapSense.c **** ********************************************************************************
2234:.\Generated_Source\PSoC4/CapSense.c **** *
2235:.\Generated_Source\PSoC4/CapSense.c **** * Summary:
2236:.\Generated_Source\PSoC4/CapSense.c **** *  This API sets a state for un-scanned sensors.
2237:.\Generated_Source\PSoC4/CapSense.c **** *  It is possible to set the state to Ground, High-Z, or the shield electrode.
2238:.\Generated_Source\PSoC4/CapSense.c **** *  The un-scanned sensor can be connected to a shield electrode only if the shield is
2239:.\Generated_Source\PSoC4/CapSense.c **** *  enabled. If the shield is disabled and this API is called with the parameter which
2240:.\Generated_Source\PSoC4/CapSense.c **** *  indicates the shield state, the un-scanned sensor will be connected to Ground.
2241:.\Generated_Source\PSoC4/CapSense.c **** *
2242:.\Generated_Source\PSoC4/CapSense.c **** * Parameters:
2243:.\Generated_Source\PSoC4/CapSense.c **** *  sensor - Sensor Number.
2244:.\Generated_Source\PSoC4/CapSense.c **** *  sensorState: This parameter indicates un-scanned sensor state:
2245:.\Generated_Source\PSoC4/CapSense.c **** *
2246:.\Generated_Source\PSoC4/CapSense.c **** *     CapSense__GROUND 0
