ARM GAS  C:\Users\ALEXAN~1\AppData\Local\Temp\ccCdetCh.s 			page 1


   1              		.cpu cortex-m0
   2              		.fpu softvfp
   3              		.eabi_attribute 20, 1
   4              		.eabi_attribute 21, 1
   5              		.eabi_attribute 23, 3
   6              		.eabi_attribute 24, 1
   7              		.eabi_attribute 25, 1
   8              		.eabi_attribute 26, 1
   9              		.eabi_attribute 30, 1
  10              		.eabi_attribute 34, 0
  11              		.eabi_attribute 18, 4
  12              		.code	16
  13              		.file	"CapSense_CSHL.c"
  14              		.text
  15              	.Ltext0:
  16              		.cfi_sections	.debug_frame
  17              		.section	.text.CapSense_BaseInit,"ax",%progbits
  18              		.align	2
  19              		.global	CapSense_BaseInit
  20              		.code	16
  21              		.thumb_func
  22              		.type	CapSense_BaseInit, %function
  23              	CapSense_BaseInit:
  24              	.LFB35:
  25              		.file 1 ".\\Generated_Source\\PSoC4\\CapSense_CSHL.c"
   1:.\Generated_Source\PSoC4/CapSense_CSHL.c **** /*******************************************************************************
   2:.\Generated_Source\PSoC4/CapSense_CSHL.c **** * File Name: CapSense_CSHL.c
   3:.\Generated_Source\PSoC4/CapSense_CSHL.c **** * Version 2.20
   4:.\Generated_Source\PSoC4/CapSense_CSHL.c **** *
   5:.\Generated_Source\PSoC4/CapSense_CSHL.c **** * Description:
   6:.\Generated_Source\PSoC4/CapSense_CSHL.c **** *  This file provides the source code to the High Level APIs for the CapSesne
   7:.\Generated_Source\PSoC4/CapSense_CSHL.c **** *  CSD component.
   8:.\Generated_Source\PSoC4/CapSense_CSHL.c **** *
   9:.\Generated_Source\PSoC4/CapSense_CSHL.c **** * Note:
  10:.\Generated_Source\PSoC4/CapSense_CSHL.c **** *
  11:.\Generated_Source\PSoC4/CapSense_CSHL.c **** ********************************************************************************
  12:.\Generated_Source\PSoC4/CapSense_CSHL.c **** * Copyright 2013-2015, Cypress Semiconductor Corporation.  All rights reserved.
  13:.\Generated_Source\PSoC4/CapSense_CSHL.c **** * You may use this file only in accordance with the license, terms, conditions,
  14:.\Generated_Source\PSoC4/CapSense_CSHL.c **** * disclaimers, and limitations in the end user license agreement accompanying
  15:.\Generated_Source\PSoC4/CapSense_CSHL.c **** * the software package with which this file was provided.
  16:.\Generated_Source\PSoC4/CapSense_CSHL.c **** *******************************************************************************/
  17:.\Generated_Source\PSoC4/CapSense_CSHL.c **** 
  18:.\Generated_Source\PSoC4/CapSense_CSHL.c **** #include "CapSense_CSHL.h"
  19:.\Generated_Source\PSoC4/CapSense_CSHL.c **** #include "CapSense_PVT.h"
  20:.\Generated_Source\PSoC4/CapSense_CSHL.c **** 
  21:.\Generated_Source\PSoC4/CapSense_CSHL.c **** /* SmartSense functions */
  22:.\Generated_Source\PSoC4/CapSense_CSHL.c **** #if (CapSense_TUNING_METHOD == CapSense__TUNING_AUTO)
  23:.\Generated_Source\PSoC4/CapSense_CSHL.c ****     extern void CapSense_UpdateThresholds(uint32 sensor);
  24:.\Generated_Source\PSoC4/CapSense_CSHL.c **** #endif /* (CapSense_TUNING_METHOD == CapSense__TUNING_AUTO) */
  25:.\Generated_Source\PSoC4/CapSense_CSHL.c **** 
  26:.\Generated_Source\PSoC4/CapSense_CSHL.c **** /* Storage of filters data */
  27:.\Generated_Source\PSoC4/CapSense_CSHL.c **** #if ( (0u != (CapSense_RAW_FILTER_MASK & CapSense_MEDIAN_FILTER)) || \
  28:.\Generated_Source\PSoC4/CapSense_CSHL.c ****       (0u != (CapSense_RAW_FILTER_MASK & CapSense_AVERAGING_FILTER)) )
  29:.\Generated_Source\PSoC4/CapSense_CSHL.c **** 
  30:.\Generated_Source\PSoC4/CapSense_CSHL.c ****     uint16 CapSense_rawFilterData1[CapSense_TOTAL_SENSOR_COUNT];
  31:.\Generated_Source\PSoC4/CapSense_CSHL.c ****     uint16 CapSense_rawFilterData2[CapSense_TOTAL_SENSOR_COUNT];
  32:.\Generated_Source\PSoC4/CapSense_CSHL.c **** 
ARM GAS  C:\Users\ALEXAN~1\AppData\Local\Temp\ccCdetCh.s 			page 2


  33:.\Generated_Source\PSoC4/CapSense_CSHL.c **** #elif ( (0u != (CapSense_RAW_FILTER_MASK & CapSense_IIR2_FILTER))   || \
  34:.\Generated_Source\PSoC4/CapSense_CSHL.c ****         (0u != (CapSense_RAW_FILTER_MASK & CapSense_IIR4_FILTER))   || \
  35:.\Generated_Source\PSoC4/CapSense_CSHL.c ****         (0u != (CapSense_RAW_FILTER_MASK & CapSense_JITTER_FILTER)) || \
  36:.\Generated_Source\PSoC4/CapSense_CSHL.c ****         (0u != (CapSense_RAW_FILTER_MASK & CapSense_IIR8_FILTER))   || \
  37:.\Generated_Source\PSoC4/CapSense_CSHL.c ****         (0u != (CapSense_RAW_FILTER_MASK & CapSense_IIR16_FILTER)) )
  38:.\Generated_Source\PSoC4/CapSense_CSHL.c **** 
  39:.\Generated_Source\PSoC4/CapSense_CSHL.c ****     uint16 CapSense_rawFilterData1[CapSense_TOTAL_SENSOR_COUNT];
  40:.\Generated_Source\PSoC4/CapSense_CSHL.c **** #endif  /* ( (CapSense_RAW_FILTER_MASK & CapSense_MEDIAN_FILTER) || \
  41:.\Generated_Source\PSoC4/CapSense_CSHL.c ****         *    (CapSense_RAW_FILTER_MASK & CapSense_AVERAGING_FILTER) )
  42:.\Generated_Source\PSoC4/CapSense_CSHL.c ****         */
  43:.\Generated_Source\PSoC4/CapSense_CSHL.c **** 
  44:.\Generated_Source\PSoC4/CapSense_CSHL.c **** extern uint16 CapSense_sensorRaw[CapSense_TOTAL_SENSOR_COUNT];
  45:.\Generated_Source\PSoC4/CapSense_CSHL.c **** extern uint8 CapSense_sensorEnableMask[CapSense_TOTAL_SENSOR_MASK];
  46:.\Generated_Source\PSoC4/CapSense_CSHL.c **** extern const uint8 CapSense_widgetNumber[CapSense_TOTAL_SENSOR_COUNT];
  47:.\Generated_Source\PSoC4/CapSense_CSHL.c **** 
  48:.\Generated_Source\PSoC4/CapSense_CSHL.c **** #if (CapSense_TUNING_METHOD != CapSense__TUNING_NONE)
  49:.\Generated_Source\PSoC4/CapSense_CSHL.c ****     extern uint32 CapSense_widgetResolution[CapSense_RESOLUTIONS_TBL_SIZE];
  50:.\Generated_Source\PSoC4/CapSense_CSHL.c **** #endif /* (CapSense_TUNING_METHOD != CapSense__TUNING_NONE) */
  51:.\Generated_Source\PSoC4/CapSense_CSHL.c **** 
  52:.\Generated_Source\PSoC4/CapSense_CSHL.c **** uint16 CapSense_sensorBaseline[CapSense_TOTAL_SENSOR_COUNT] = {0u};
  53:.\Generated_Source\PSoC4/CapSense_CSHL.c **** uint8 CapSense_sensorBaselineLow[CapSense_TOTAL_SENSOR_COUNT] = {0u};
  54:.\Generated_Source\PSoC4/CapSense_CSHL.c **** uint16 CapSense_sensorSignal[CapSense_TOTAL_SENSOR_COUNT] = {0u};
  55:.\Generated_Source\PSoC4/CapSense_CSHL.c **** uint8 CapSense_sensorOnMask[CapSense_TOTAL_SENSOR_MASK] = {0u};
  56:.\Generated_Source\PSoC4/CapSense_CSHL.c **** 
  57:.\Generated_Source\PSoC4/CapSense_CSHL.c **** uint8 CapSense_lowBaselineResetCnt[CapSense_TOTAL_SENSOR_COUNT];
  58:.\Generated_Source\PSoC4/CapSense_CSHL.c **** uint8 CapSense_lowBaselineReset[CapSense_TOTAL_SENSOR_COUNT] = {
  59:.\Generated_Source\PSoC4/CapSense_CSHL.c ****     5u, 5u, 5u, 5u, 5u, 5u, 5u, 5u, 5u, 5u, 
  60:.\Generated_Source\PSoC4/CapSense_CSHL.c **** };
  61:.\Generated_Source\PSoC4/CapSense_CSHL.c **** 
  62:.\Generated_Source\PSoC4/CapSense_CSHL.c **** 
  63:.\Generated_Source\PSoC4/CapSense_CSHL.c **** 
  64:.\Generated_Source\PSoC4/CapSense_CSHL.c **** #if (CapSense_TUNING_METHOD == CapSense__TUNING_AUTO)
  65:.\Generated_Source\PSoC4/CapSense_CSHL.c ****     extern CapSense_CONFIG_TYPE_P4_v2_30 CapSense_config;
  66:.\Generated_Source\PSoC4/CapSense_CSHL.c **** #endif  /* (CapSense_TUNING_METHOD == CapSense__TUNING_AUTO) */
  67:.\Generated_Source\PSoC4/CapSense_CSHL.c **** 
  68:.\Generated_Source\PSoC4/CapSense_CSHL.c **** #if (CapSense_RAW_FILTER_MASK != 0u)
  69:.\Generated_Source\PSoC4/CapSense_CSHL.c **** uint8 CapSense_enableRawFilters = CapSense_RAW_FILTERS_ENABLED;
  70:.\Generated_Source\PSoC4/CapSense_CSHL.c **** #endif  /* (CapSense_RAW_FILTER_MASK != 0u) */
  71:.\Generated_Source\PSoC4/CapSense_CSHL.c **** 
  72:.\Generated_Source\PSoC4/CapSense_CSHL.c **** /* Generated by Customizer */
  73:.\Generated_Source\PSoC4/CapSense_CSHL.c **** const uint16 CapSense_fingerThreshold[] = {
  74:.\Generated_Source\PSoC4/CapSense_CSHL.c ****     1u, 1u, 1u, 1u, 1u, 1u, 1u, 1u, 1u, 1u, 
  75:.\Generated_Source\PSoC4/CapSense_CSHL.c **** };
  76:.\Generated_Source\PSoC4/CapSense_CSHL.c **** 
  77:.\Generated_Source\PSoC4/CapSense_CSHL.c **** const uint16 CapSense_noiseThreshold[] = {
  78:.\Generated_Source\PSoC4/CapSense_CSHL.c ****     1u, 1u, 1u, 1u, 1u, 1u, 1u, 1u, 1u, 1u, 
  79:.\Generated_Source\PSoC4/CapSense_CSHL.c **** };
  80:.\Generated_Source\PSoC4/CapSense_CSHL.c **** 
  81:.\Generated_Source\PSoC4/CapSense_CSHL.c **** const uint16 CapSense_hysteresis[] = {
  82:.\Generated_Source\PSoC4/CapSense_CSHL.c ****     1u, 1u, 1u, 1u, 1u, 1u, 1u, 1u, 1u, 1u, 
  83:.\Generated_Source\PSoC4/CapSense_CSHL.c **** };
  84:.\Generated_Source\PSoC4/CapSense_CSHL.c **** 
  85:.\Generated_Source\PSoC4/CapSense_CSHL.c **** const uint8 CapSense_debounce[] = {
  86:.\Generated_Source\PSoC4/CapSense_CSHL.c ****     1u, 1u, 1u, 1u, 1u, 1u, 1u, 1u, 1u, 1u, 
  87:.\Generated_Source\PSoC4/CapSense_CSHL.c **** };
  88:.\Generated_Source\PSoC4/CapSense_CSHL.c **** 
  89:.\Generated_Source\PSoC4/CapSense_CSHL.c **** static uint8 CapSense_debounceCounter[] = {
ARM GAS  C:\Users\ALEXAN~1\AppData\Local\Temp\ccCdetCh.s 			page 3


  90:.\Generated_Source\PSoC4/CapSense_CSHL.c ****     0u, 0u, 0u, 0u, 0u, 0u, 0u, 0u, 0u, 0u, 0u, 
  91:.\Generated_Source\PSoC4/CapSense_CSHL.c **** };
  92:.\Generated_Source\PSoC4/CapSense_CSHL.c **** 
  93:.\Generated_Source\PSoC4/CapSense_CSHL.c **** const uint8 CapSense_rawDataIndex[] = {
  94:.\Generated_Source\PSoC4/CapSense_CSHL.c ****     0u, /* Button0__BTN */
  95:.\Generated_Source\PSoC4/CapSense_CSHL.c ****     1u, /* Button1__BTN */
  96:.\Generated_Source\PSoC4/CapSense_CSHL.c ****     2u, /* Button2__BTN */
  97:.\Generated_Source\PSoC4/CapSense_CSHL.c ****     3u, /* Button3__BTN */
  98:.\Generated_Source\PSoC4/CapSense_CSHL.c ****     4u, /* Button4__BTN */
  99:.\Generated_Source\PSoC4/CapSense_CSHL.c ****     5u, /* Button5__BTN */
 100:.\Generated_Source\PSoC4/CapSense_CSHL.c ****     6u, /* Button6__BTN */
 101:.\Generated_Source\PSoC4/CapSense_CSHL.c ****     7u, /* Button7__BTN */
 102:.\Generated_Source\PSoC4/CapSense_CSHL.c ****     8u, /* Button8__BTN */
 103:.\Generated_Source\PSoC4/CapSense_CSHL.c ****     9u, /* Button9__BTN */
 104:.\Generated_Source\PSoC4/CapSense_CSHL.c **** };
 105:.\Generated_Source\PSoC4/CapSense_CSHL.c **** 
 106:.\Generated_Source\PSoC4/CapSense_CSHL.c **** const uint8 CapSense_numberOfSensors[] = {
 107:.\Generated_Source\PSoC4/CapSense_CSHL.c ****     1u, /* Button0__BTN */
 108:.\Generated_Source\PSoC4/CapSense_CSHL.c ****     1u, /* Button1__BTN */
 109:.\Generated_Source\PSoC4/CapSense_CSHL.c ****     1u, /* Button2__BTN */
 110:.\Generated_Source\PSoC4/CapSense_CSHL.c ****     1u, /* Button3__BTN */
 111:.\Generated_Source\PSoC4/CapSense_CSHL.c ****     1u, /* Button4__BTN */
 112:.\Generated_Source\PSoC4/CapSense_CSHL.c ****     1u, /* Button5__BTN */
 113:.\Generated_Source\PSoC4/CapSense_CSHL.c ****     1u, /* Button6__BTN */
 114:.\Generated_Source\PSoC4/CapSense_CSHL.c ****     1u, /* Button7__BTN */
 115:.\Generated_Source\PSoC4/CapSense_CSHL.c ****     1u, /* Button8__BTN */
 116:.\Generated_Source\PSoC4/CapSense_CSHL.c ****     1u, /* Button9__BTN */
 117:.\Generated_Source\PSoC4/CapSense_CSHL.c **** };
 118:.\Generated_Source\PSoC4/CapSense_CSHL.c **** 
 119:.\Generated_Source\PSoC4/CapSense_CSHL.c **** 
 120:.\Generated_Source\PSoC4/CapSense_CSHL.c **** 
 121:.\Generated_Source\PSoC4/CapSense_CSHL.c **** 
 122:.\Generated_Source\PSoC4/CapSense_CSHL.c **** /*******************************************************************************
 123:.\Generated_Source\PSoC4/CapSense_CSHL.c **** * Function Name: CapSense_BaseInit
 124:.\Generated_Source\PSoC4/CapSense_CSHL.c **** ********************************************************************************
 125:.\Generated_Source\PSoC4/CapSense_CSHL.c **** *
 126:.\Generated_Source\PSoC4/CapSense_CSHL.c **** * Summary:
 127:.\Generated_Source\PSoC4/CapSense_CSHL.c **** *  Loads the CapSense_sensorBaseline[sensor] array element with an
 128:.\Generated_Source\PSoC4/CapSense_CSHL.c **** *  initial value which is equal to the raw count value.
 129:.\Generated_Source\PSoC4/CapSense_CSHL.c **** *  Resets to zero CapSense_sensorBaselineLow[sensor] and
 130:.\Generated_Source\PSoC4/CapSense_CSHL.c **** *  CapSense_sensorSignal[sensor] array element.
 131:.\Generated_Source\PSoC4/CapSense_CSHL.c **** *  Loads the CapSense_rawFilterData2[sensor] and
 132:.\Generated_Source\PSoC4/CapSense_CSHL.c **** *  CapSense_rawFilterData2[sensor] array element with an
 133:.\Generated_Source\PSoC4/CapSense_CSHL.c **** *  initial value which is equal to the raw count value if the raw data filter is enabled.
 134:.\Generated_Source\PSoC4/CapSense_CSHL.c **** *
 135:.\Generated_Source\PSoC4/CapSense_CSHL.c **** * Parameters:
 136:.\Generated_Source\PSoC4/CapSense_CSHL.c **** *  sensor:  Sensor number.
 137:.\Generated_Source\PSoC4/CapSense_CSHL.c **** *
 138:.\Generated_Source\PSoC4/CapSense_CSHL.c **** * Return:
 139:.\Generated_Source\PSoC4/CapSense_CSHL.c **** *  None
 140:.\Generated_Source\PSoC4/CapSense_CSHL.c **** *
 141:.\Generated_Source\PSoC4/CapSense_CSHL.c **** * Global Variables:
 142:.\Generated_Source\PSoC4/CapSense_CSHL.c **** *  CapSense_sensorBaseline[]    - used to store the baseline value.
 143:.\Generated_Source\PSoC4/CapSense_CSHL.c **** *  CapSense_sensorBaselineLow[] - used to store the fraction byte of
 144:.\Generated_Source\PSoC4/CapSense_CSHL.c **** *  the baseline value.
 145:.\Generated_Source\PSoC4/CapSense_CSHL.c **** *  CapSense_sensorSignal[]      - used to store a difference between
 146:.\Generated_Source\PSoC4/CapSense_CSHL.c **** *  the current value of raw data and the previous value of the baseline.
ARM GAS  C:\Users\ALEXAN~1\AppData\Local\Temp\ccCdetCh.s 			page 4


 147:.\Generated_Source\PSoC4/CapSense_CSHL.c **** *  CapSense_rawFilterData1[]    - used to store a previous sample of
 148:.\Generated_Source\PSoC4/CapSense_CSHL.c **** *  any enabled raw data filter.
 149:.\Generated_Source\PSoC4/CapSense_CSHL.c **** *  CapSense_rawFilterData2[]    - used to store before a previous sample
 150:.\Generated_Source\PSoC4/CapSense_CSHL.c **** *  of the enabled raw data filter. Required only for median or average filters.
 151:.\Generated_Source\PSoC4/CapSense_CSHL.c **** *
 152:.\Generated_Source\PSoC4/CapSense_CSHL.c **** * Side Effects:
 153:.\Generated_Source\PSoC4/CapSense_CSHL.c **** *  None
 154:.\Generated_Source\PSoC4/CapSense_CSHL.c **** *
 155:.\Generated_Source\PSoC4/CapSense_CSHL.c **** *******************************************************************************/
 156:.\Generated_Source\PSoC4/CapSense_CSHL.c **** void CapSense_BaseInit(uint32 sensor)
 157:.\Generated_Source\PSoC4/CapSense_CSHL.c **** {
  26              		.loc 1 157 0
  27              		.cfi_startproc
  28              	.LVL0:
  29 0000 30B5     		push	{r4, r5, lr}
  30              		.cfi_def_cfa_offset 12
  31              		.cfi_offset 4, -12
  32              		.cfi_offset 5, -8
  33              		.cfi_offset 14, -4
 158:.\Generated_Source\PSoC4/CapSense_CSHL.c ****     #if ((CapSense_TOTAL_BUTTONS_COUNT) || (CapSense_TOTAL_MATRIX_BUTTONS_COUNT) || \
 159:.\Generated_Source\PSoC4/CapSense_CSHL.c ****          (CapSense_TOTAL_GENERICS_COUNT))
 160:.\Generated_Source\PSoC4/CapSense_CSHL.c ****         uint8 widget = CapSense_widgetNumber[sensor];
  34              		.loc 1 160 0
  35 0002 094B     		ldr	r3, .L2
  36 0004 1C5C     		ldrb	r4, [r3, r0]
  37              	.LVL1:
 161:.\Generated_Source\PSoC4/CapSense_CSHL.c ****     #endif /* ((CapSense_TOTAL_MATRIX_BUTTONS_COUNT) || (CapSense_TOTAL_MATRIX_BUTTONS_COUNT)) */
 162:.\Generated_Source\PSoC4/CapSense_CSHL.c **** 
 163:.\Generated_Source\PSoC4/CapSense_CSHL.c ****     #if (CapSense_TOTAL_MATRIX_BUTTONS_COUNT)
 164:.\Generated_Source\PSoC4/CapSense_CSHL.c ****         uint8 debounceIndex;
 165:.\Generated_Source\PSoC4/CapSense_CSHL.c ****     #endif  /* (CapSense_TOTAL_MATRIX_BUTTONS_COUNT) */
 166:.\Generated_Source\PSoC4/CapSense_CSHL.c **** 
 167:.\Generated_Source\PSoC4/CapSense_CSHL.c ****     #if (CapSense_TOTAL_GENERICS_COUNT)
 168:.\Generated_Source\PSoC4/CapSense_CSHL.c ****         /* Exclude generic widget */
 169:.\Generated_Source\PSoC4/CapSense_CSHL.c ****         if(widget < CapSense_END_OF_WIDGETS_INDEX)
 170:.\Generated_Source\PSoC4/CapSense_CSHL.c ****         {
 171:.\Generated_Source\PSoC4/CapSense_CSHL.c ****     #endif  /* CapSense_TOTAL_GENERICS_COUNT */
 172:.\Generated_Source\PSoC4/CapSense_CSHL.c **** 
 173:.\Generated_Source\PSoC4/CapSense_CSHL.c ****     /* Initialize Baseline */
 174:.\Generated_Source\PSoC4/CapSense_CSHL.c ****     CapSense_sensorBaseline[sensor] = CapSense_sensorRaw[sensor];
  38              		.loc 1 174 0
  39 0006 4200     		lsl	r2, r0, #1
  40 0008 084B     		ldr	r3, .L2+4
  41 000a D15A     		ldrh	r1, [r2, r3]
  42 000c 084B     		ldr	r3, .L2+8
  43 000e D152     		strh	r1, [r2, r3]
 175:.\Generated_Source\PSoC4/CapSense_CSHL.c ****     CapSense_sensorBaselineLow[sensor] = 0u;
  44              		.loc 1 175 0
  45 0010 1818     		add	r0, r3, r0
  46              	.LVL2:
  47 0012 0025     		mov	r5, #0
  48 0014 0575     		strb	r5, [r0, #20]
 176:.\Generated_Source\PSoC4/CapSense_CSHL.c ****     CapSense_sensorSignal[sensor] = 0u;
  49              		.loc 1 176 0
  50 0016 9818     		add	r0, r3, r2
  51 0018 0584     		strh	r5, [r0, #32]
 177:.\Generated_Source\PSoC4/CapSense_CSHL.c **** 
ARM GAS  C:\Users\ALEXAN~1\AppData\Local\Temp\ccCdetCh.s 			page 5


 178:.\Generated_Source\PSoC4/CapSense_CSHL.c ****     CapSense_debounceCounter[widget] =  CapSense_debounce[widget];
  52              		.loc 1 178 0
  53 001a 0648     		ldr	r0, .L2+12
  54 001c 005D     		ldrb	r0, [r0, r4]
  55 001e 3433     		add	r3, r3, #52
  56 0020 1855     		strb	r0, [r3, r4]
 179:.\Generated_Source\PSoC4/CapSense_CSHL.c **** 
 180:.\Generated_Source\PSoC4/CapSense_CSHL.c **** 
 181:.\Generated_Source\PSoC4/CapSense_CSHL.c ****     #if ((0u != (CapSense_RAW_FILTER_MASK & CapSense_MEDIAN_FILTER)) ||\
 182:.\Generated_Source\PSoC4/CapSense_CSHL.c ****          (0u != (CapSense_RAW_FILTER_MASK & CapSense_AVERAGING_FILTER)))
 183:.\Generated_Source\PSoC4/CapSense_CSHL.c **** 
 184:.\Generated_Source\PSoC4/CapSense_CSHL.c ****         CapSense_rawFilterData1[sensor] = CapSense_sensorRaw[sensor];
 185:.\Generated_Source\PSoC4/CapSense_CSHL.c ****         CapSense_rawFilterData2[sensor] = CapSense_sensorRaw[sensor];
 186:.\Generated_Source\PSoC4/CapSense_CSHL.c **** 
 187:.\Generated_Source\PSoC4/CapSense_CSHL.c ****     #elif ((CapSense_RAW_FILTER_MASK & CapSense_IIR2_FILTER) ||\
 188:.\Generated_Source\PSoC4/CapSense_CSHL.c ****            (CapSense_RAW_FILTER_MASK & CapSense_IIR4_FILTER) ||\
 189:.\Generated_Source\PSoC4/CapSense_CSHL.c ****            (CapSense_RAW_FILTER_MASK & CapSense_JITTER_FILTER) ||\
 190:.\Generated_Source\PSoC4/CapSense_CSHL.c ****            (CapSense_RAW_FILTER_MASK & CapSense_IIR8_FILTER) ||\
 191:.\Generated_Source\PSoC4/CapSense_CSHL.c ****            (CapSense_RAW_FILTER_MASK & CapSense_IIR16_FILTER))
 192:.\Generated_Source\PSoC4/CapSense_CSHL.c **** 
 193:.\Generated_Source\PSoC4/CapSense_CSHL.c ****         CapSense_rawFilterData1[sensor] = CapSense_sensorRaw[sensor];
  57              		.loc 1 193 0
  58 0022 054B     		ldr	r3, .L2+16
  59 0024 D152     		strh	r1, [r2, r3]
 194:.\Generated_Source\PSoC4/CapSense_CSHL.c **** 
 195:.\Generated_Source\PSoC4/CapSense_CSHL.c ****     #else
 196:.\Generated_Source\PSoC4/CapSense_CSHL.c ****         /* No Raw filters */
 197:.\Generated_Source\PSoC4/CapSense_CSHL.c ****     #endif  /* ((CapSense_RAW_FILTER_MASK & CapSense_MEDIAN_FILTER) || \
 198:.\Generated_Source\PSoC4/CapSense_CSHL.c ****             *   (CapSense_RAW_FILTER_MASK & CapSense_AVERAGING_FILTER))
 199:.\Generated_Source\PSoC4/CapSense_CSHL.c ****             */
 200:.\Generated_Source\PSoC4/CapSense_CSHL.c **** 
 201:.\Generated_Source\PSoC4/CapSense_CSHL.c ****     #if (CapSense_TOTAL_GENERICS_COUNT)
 202:.\Generated_Source\PSoC4/CapSense_CSHL.c ****         /* Exclude generic widget */
 203:.\Generated_Source\PSoC4/CapSense_CSHL.c ****         }
 204:.\Generated_Source\PSoC4/CapSense_CSHL.c ****     #endif  /* CapSense_TOTAL_GENERICS_COUNT */
 205:.\Generated_Source\PSoC4/CapSense_CSHL.c **** }
  60              		.loc 1 205 0
  61              		@ sp needed
  62              	.LVL3:
  63 0026 30BD     		pop	{r4, r5, pc}
  64              	.L3:
  65              		.align	2
  66              	.L2:
  67 0028 00000000 		.word	CapSense_widgetNumber
  68 002c 00000000 		.word	CapSense_sensorRaw
  69 0030 00000000 		.word	.LANCHOR0
  70 0034 00000000 		.word	.LANCHOR1
  71 0038 00000000 		.word	CapSense_rawFilterData1
  72              		.cfi_endproc
  73              	.LFE35:
  74              		.size	CapSense_BaseInit, .-CapSense_BaseInit
  75              		.section	.text.CapSense_InitializeSensorBaseline,"ax",%progbits
  76              		.align	2
  77              		.global	CapSense_InitializeSensorBaseline
  78              		.code	16
  79              		.thumb_func
  80              		.type	CapSense_InitializeSensorBaseline, %function
ARM GAS  C:\Users\ALEXAN~1\AppData\Local\Temp\ccCdetCh.s 			page 6


  81              	CapSense_InitializeSensorBaseline:
  82              	.LFB36:
 206:.\Generated_Source\PSoC4/CapSense_CSHL.c **** 
 207:.\Generated_Source\PSoC4/CapSense_CSHL.c **** 
 208:.\Generated_Source\PSoC4/CapSense_CSHL.c **** /*******************************************************************************
 209:.\Generated_Source\PSoC4/CapSense_CSHL.c **** * Function Name: CapSense_InitializeSensorBaseline
 210:.\Generated_Source\PSoC4/CapSense_CSHL.c **** ********************************************************************************
 211:.\Generated_Source\PSoC4/CapSense_CSHL.c **** *
 212:.\Generated_Source\PSoC4/CapSense_CSHL.c **** * Summary:
 213:.\Generated_Source\PSoC4/CapSense_CSHL.c **** *  Loads the CapSense_sensorBaseline[sensor] array element with an
 214:.\Generated_Source\PSoC4/CapSense_CSHL.c **** *  initial value by scanning the selected sensor (one channel design) or a pair
 215:.\Generated_Source\PSoC4/CapSense_CSHL.c **** *  of sensors (two channels designs). The raw count value is copied into the
 216:.\Generated_Source\PSoC4/CapSense_CSHL.c **** *  baseline array for each sensor. The raw data filters are initialized if
 217:.\Generated_Source\PSoC4/CapSense_CSHL.c **** *  enabled.
 218:.\Generated_Source\PSoC4/CapSense_CSHL.c **** *
 219:.\Generated_Source\PSoC4/CapSense_CSHL.c **** * Parameters:
 220:.\Generated_Source\PSoC4/CapSense_CSHL.c **** *  sensor:  Sensor number.
 221:.\Generated_Source\PSoC4/CapSense_CSHL.c **** *
 222:.\Generated_Source\PSoC4/CapSense_CSHL.c **** * Return:
 223:.\Generated_Source\PSoC4/CapSense_CSHL.c **** *  None
 224:.\Generated_Source\PSoC4/CapSense_CSHL.c **** *
 225:.\Generated_Source\PSoC4/CapSense_CSHL.c **** * Global Variables:
 226:.\Generated_Source\PSoC4/CapSense_CSHL.c **** *  None
 227:.\Generated_Source\PSoC4/CapSense_CSHL.c **** *
 228:.\Generated_Source\PSoC4/CapSense_CSHL.c **** * Side Effects:
 229:.\Generated_Source\PSoC4/CapSense_CSHL.c **** *  None
 230:.\Generated_Source\PSoC4/CapSense_CSHL.c **** *
 231:.\Generated_Source\PSoC4/CapSense_CSHL.c **** *******************************************************************************/
 232:.\Generated_Source\PSoC4/CapSense_CSHL.c **** void CapSense_InitializeSensorBaseline(uint32 sensor)
 233:.\Generated_Source\PSoC4/CapSense_CSHL.c **** {
  83              		.loc 1 233 0
  84              		.cfi_startproc
  85              	.LVL4:
  86 0000 10B5     		push	{r4, lr}
  87              		.cfi_def_cfa_offset 8
  88              		.cfi_offset 4, -8
  89              		.cfi_offset 14, -4
  90 0002 041C     		mov	r4, r0
 234:.\Generated_Source\PSoC4/CapSense_CSHL.c ****     /* Scan sensor */
 235:.\Generated_Source\PSoC4/CapSense_CSHL.c ****     CapSense_ScanSensor(sensor);
  91              		.loc 1 235 0
  92 0004 FFF7FEFF 		bl	CapSense_ScanSensor
  93              	.LVL5:
  94              	.L5:
 236:.\Generated_Source\PSoC4/CapSense_CSHL.c ****     while(CapSense_IsBusy() != 0u)
  95              		.loc 1 236 0 discriminator 1
  96 0008 FFF7FEFF 		bl	CapSense_IsBusy
  97              	.LVL6:
  98 000c 0028     		cmp	r0, #0
  99 000e FBD1     		bne	.L5
 237:.\Generated_Source\PSoC4/CapSense_CSHL.c ****     {
 238:.\Generated_Source\PSoC4/CapSense_CSHL.c ****         /* Wait while sensor is busy */
 239:.\Generated_Source\PSoC4/CapSense_CSHL.c ****     }
 240:.\Generated_Source\PSoC4/CapSense_CSHL.c **** 
 241:.\Generated_Source\PSoC4/CapSense_CSHL.c ****     /* Initialize Baseline, Signal and debounce counters */
 242:.\Generated_Source\PSoC4/CapSense_CSHL.c ****     CapSense_BaseInit(sensor);
 100              		.loc 1 242 0
ARM GAS  C:\Users\ALEXAN~1\AppData\Local\Temp\ccCdetCh.s 			page 7


 101 0010 201C     		mov	r0, r4
 102 0012 FFF7FEFF 		bl	CapSense_BaseInit
 103              	.LVL7:
 243:.\Generated_Source\PSoC4/CapSense_CSHL.c **** }
 104              		.loc 1 243 0
 105              		@ sp needed
 106              	.LVL8:
 107 0016 10BD     		pop	{r4, pc}
 108              		.cfi_endproc
 109              	.LFE36:
 110              		.size	CapSense_InitializeSensorBaseline, .-CapSense_InitializeSensorBaseline
 111              		.section	.text.CapSense_InitializeAllBaselines,"ax",%progbits
 112              		.align	2
 113              		.global	CapSense_InitializeAllBaselines
 114              		.code	16
 115              		.thumb_func
 116              		.type	CapSense_InitializeAllBaselines, %function
 117              	CapSense_InitializeAllBaselines:
 118              	.LFB37:
 244:.\Generated_Source\PSoC4/CapSense_CSHL.c **** 
 245:.\Generated_Source\PSoC4/CapSense_CSHL.c **** 
 246:.\Generated_Source\PSoC4/CapSense_CSHL.c **** /*******************************************************************************
 247:.\Generated_Source\PSoC4/CapSense_CSHL.c **** * Function Name: CapSense_InitializeAllBaselines
 248:.\Generated_Source\PSoC4/CapSense_CSHL.c **** ********************************************************************************
 249:.\Generated_Source\PSoC4/CapSense_CSHL.c **** *
 250:.\Generated_Source\PSoC4/CapSense_CSHL.c **** * Summary:
 251:.\Generated_Source\PSoC4/CapSense_CSHL.c **** *  Uses the CapSense_InitializeSensorBaseline function to load the
 252:.\Generated_Source\PSoC4/CapSense_CSHL.c **** *  CapSense_sensorBaseline[] array with an initial values by scanning
 253:.\Generated_Source\PSoC4/CapSense_CSHL.c **** *  all the sensors. The raw count values are copied into the baseline array for
 254:.\Generated_Source\PSoC4/CapSense_CSHL.c **** *  all the sensors. The raw data filters are initialized if enabled.
 255:.\Generated_Source\PSoC4/CapSense_CSHL.c **** *
 256:.\Generated_Source\PSoC4/CapSense_CSHL.c **** * Parameters:
 257:.\Generated_Source\PSoC4/CapSense_CSHL.c **** *  None
 258:.\Generated_Source\PSoC4/CapSense_CSHL.c **** *
 259:.\Generated_Source\PSoC4/CapSense_CSHL.c **** * Return:
 260:.\Generated_Source\PSoC4/CapSense_CSHL.c **** *  None
 261:.\Generated_Source\PSoC4/CapSense_CSHL.c **** *
 262:.\Generated_Source\PSoC4/CapSense_CSHL.c **** * Global Variables:
 263:.\Generated_Source\PSoC4/CapSense_CSHL.c **** *  None
 264:.\Generated_Source\PSoC4/CapSense_CSHL.c **** *
 265:.\Generated_Source\PSoC4/CapSense_CSHL.c **** * Side Effects:
 266:.\Generated_Source\PSoC4/CapSense_CSHL.c **** *  None
 267:.\Generated_Source\PSoC4/CapSense_CSHL.c **** *
 268:.\Generated_Source\PSoC4/CapSense_CSHL.c **** *******************************************************************************/
 269:.\Generated_Source\PSoC4/CapSense_CSHL.c **** void CapSense_InitializeAllBaselines(void)
 270:.\Generated_Source\PSoC4/CapSense_CSHL.c **** {
 119              		.loc 1 270 0
 120              		.cfi_startproc
 121 0000 10B5     		push	{r4, lr}
 122              		.cfi_def_cfa_offset 8
 123              		.cfi_offset 4, -8
 124              		.cfi_offset 14, -4
 125              	.LVL9:
 271:.\Generated_Source\PSoC4/CapSense_CSHL.c ****     uint32 i;
 272:.\Generated_Source\PSoC4/CapSense_CSHL.c **** 
 273:.\Generated_Source\PSoC4/CapSense_CSHL.c ****     for(i = 0u; i < CapSense_TOTAL_SCANSLOT_COUNT; i++)
 126              		.loc 1 273 0
ARM GAS  C:\Users\ALEXAN~1\AppData\Local\Temp\ccCdetCh.s 			page 8


 127 0002 0024     		mov	r4, #0
 128 0004 03E0     		b	.L7
 129              	.LVL10:
 130              	.L8:
 274:.\Generated_Source\PSoC4/CapSense_CSHL.c ****     {
 275:.\Generated_Source\PSoC4/CapSense_CSHL.c ****         CapSense_InitializeSensorBaseline(i);
 131              		.loc 1 275 0 discriminator 3
 132 0006 201C     		mov	r0, r4
 133 0008 FFF7FEFF 		bl	CapSense_InitializeSensorBaseline
 134              	.LVL11:
 273:.\Generated_Source\PSoC4/CapSense_CSHL.c ****     {
 135              		.loc 1 273 0 discriminator 3
 136 000c 0134     		add	r4, r4, #1
 137              	.LVL12:
 138              	.L7:
 273:.\Generated_Source\PSoC4/CapSense_CSHL.c ****     {
 139              		.loc 1 273 0 is_stmt 0 discriminator 1
 140 000e 092C     		cmp	r4, #9
 141 0010 F9D9     		bls	.L8
 276:.\Generated_Source\PSoC4/CapSense_CSHL.c ****     }
 277:.\Generated_Source\PSoC4/CapSense_CSHL.c **** }
 142              		.loc 1 277 0 is_stmt 1
 143              		@ sp needed
 144              	.LVL13:
 145 0012 10BD     		pop	{r4, pc}
 146              		.cfi_endproc
 147              	.LFE37:
 148              		.size	CapSense_InitializeAllBaselines, .-CapSense_InitializeAllBaselines
 149              		.section	.text.CapSense_InitializeEnabledBaselines,"ax",%progbits
 150              		.align	2
 151              		.global	CapSense_InitializeEnabledBaselines
 152              		.code	16
 153              		.thumb_func
 154              		.type	CapSense_InitializeEnabledBaselines, %function
 155              	CapSense_InitializeEnabledBaselines:
 156              	.LFB38:
 278:.\Generated_Source\PSoC4/CapSense_CSHL.c **** 
 279:.\Generated_Source\PSoC4/CapSense_CSHL.c **** 
 280:.\Generated_Source\PSoC4/CapSense_CSHL.c **** /*******************************************************************************
 281:.\Generated_Source\PSoC4/CapSense_CSHL.c **** * Function Name: CapSense_InitializeEnabledBaselines
 282:.\Generated_Source\PSoC4/CapSense_CSHL.c **** ********************************************************************************
 283:.\Generated_Source\PSoC4/CapSense_CSHL.c **** *
 284:.\Generated_Source\PSoC4/CapSense_CSHL.c **** * Summary:
 285:.\Generated_Source\PSoC4/CapSense_CSHL.c **** *  Scans all the enabled widgets and the raw count values are copied into the
 286:.\Generated_Source\PSoC4/CapSense_CSHL.c **** *  baseline array for all the sensors enabled in the scanning process. The baselines
 287:.\Generated_Source\PSoC4/CapSense_CSHL.c **** *  are initialized with zero values for sensors disabled from the scanning process.
 288:.\Generated_Source\PSoC4/CapSense_CSHL.c **** *  The raw data filters are initialized if enabled.
 289:.\Generated_Source\PSoC4/CapSense_CSHL.c **** *
 290:.\Generated_Source\PSoC4/CapSense_CSHL.c **** * Parameters:
 291:.\Generated_Source\PSoC4/CapSense_CSHL.c **** *  None
 292:.\Generated_Source\PSoC4/CapSense_CSHL.c **** *
 293:.\Generated_Source\PSoC4/CapSense_CSHL.c **** * Return:
 294:.\Generated_Source\PSoC4/CapSense_CSHL.c **** *  None
 295:.\Generated_Source\PSoC4/CapSense_CSHL.c **** *
 296:.\Generated_Source\PSoC4/CapSense_CSHL.c **** * Global Variables:
 297:.\Generated_Source\PSoC4/CapSense_CSHL.c **** *  CapSense_sensorRaw[] - used to store the sensors raw data.
 298:.\Generated_Source\PSoC4/CapSense_CSHL.c **** *  CapSense_sensorEnableMask[ ] - used to store bit masks of the enabled sensors.
ARM GAS  C:\Users\ALEXAN~1\AppData\Local\Temp\ccCdetCh.s 			page 9


 299:.\Generated_Source\PSoC4/CapSense_CSHL.c **** *
 300:.\Generated_Source\PSoC4/CapSense_CSHL.c **** * Side Effects:
 301:.\Generated_Source\PSoC4/CapSense_CSHL.c **** *  None
 302:.\Generated_Source\PSoC4/CapSense_CSHL.c **** *
 303:.\Generated_Source\PSoC4/CapSense_CSHL.c **** *******************************************************************************/
 304:.\Generated_Source\PSoC4/CapSense_CSHL.c **** void CapSense_InitializeEnabledBaselines(void)
 305:.\Generated_Source\PSoC4/CapSense_CSHL.c **** {
 157              		.loc 1 305 0
 158              		.cfi_startproc
 159 0000 10B5     		push	{r4, lr}
 160              		.cfi_def_cfa_offset 8
 161              		.cfi_offset 4, -8
 162              		.cfi_offset 14, -4
 306:.\Generated_Source\PSoC4/CapSense_CSHL.c ****     uint32 i;
 307:.\Generated_Source\PSoC4/CapSense_CSHL.c ****     uint32 isSensorEnabled;
 308:.\Generated_Source\PSoC4/CapSense_CSHL.c **** 
 309:.\Generated_Source\PSoC4/CapSense_CSHL.c ****     CapSense_ScanEnabledWidgets();
 163              		.loc 1 309 0
 164 0002 FFF7FEFF 		bl	CapSense_ScanEnabledWidgets
 165              	.LVL14:
 166              	.L10:
 310:.\Generated_Source\PSoC4/CapSense_CSHL.c ****     while(CapSense_IsBusy() != 0u)
 167              		.loc 1 310 0 discriminator 1
 168 0006 FFF7FEFF 		bl	CapSense_IsBusy
 169              	.LVL15:
 170 000a 0028     		cmp	r0, #0
 171 000c FBD1     		bne	.L10
 172 000e 0024     		mov	r4, #0
 173 0010 09E0     		b	.L11
 174              	.LVL16:
 175              	.L13:
 311:.\Generated_Source\PSoC4/CapSense_CSHL.c ****     {
 312:.\Generated_Source\PSoC4/CapSense_CSHL.c ****         /* Wait while sensor is busy */
 313:.\Generated_Source\PSoC4/CapSense_CSHL.c ****     }
 314:.\Generated_Source\PSoC4/CapSense_CSHL.c **** 
 315:.\Generated_Source\PSoC4/CapSense_CSHL.c ****     for(i = 0u; i < CapSense_TOTAL_SENSOR_COUNT; i++)
 316:.\Generated_Source\PSoC4/CapSense_CSHL.c ****     {
 317:.\Generated_Source\PSoC4/CapSense_CSHL.c ****         isSensorEnabled = CapSense_GetBitValue(CapSense_sensorEnableMask, i);
 176              		.loc 1 317 0
 177 0012 0648     		ldr	r0, .L14
 178 0014 211C     		mov	r1, r4
 179 0016 FFF7FEFF 		bl	CapSense_GetBitValue
 180              	.LVL17:
 318:.\Generated_Source\PSoC4/CapSense_CSHL.c **** 
 319:.\Generated_Source\PSoC4/CapSense_CSHL.c ****         /* Clear raw data if sensor is disabled from scanning process */
 320:.\Generated_Source\PSoC4/CapSense_CSHL.c ****         if(isSensorEnabled != 0u)
 181              		.loc 1 320 0
 182 001a 0028     		cmp	r0, #0
 183 001c 02D0     		beq	.L12
 321:.\Generated_Source\PSoC4/CapSense_CSHL.c ****         {
 322:.\Generated_Source\PSoC4/CapSense_CSHL.c ****             /* Initialize baselines */
 323:.\Generated_Source\PSoC4/CapSense_CSHL.c ****             CapSense_BaseInit(i);
 184              		.loc 1 323 0
 185 001e 201C     		mov	r0, r4
 186              	.LVL18:
 187 0020 FFF7FEFF 		bl	CapSense_BaseInit
 188              	.LVL19:
ARM GAS  C:\Users\ALEXAN~1\AppData\Local\Temp\ccCdetCh.s 			page 10


 189              	.L12:
 315:.\Generated_Source\PSoC4/CapSense_CSHL.c ****     {
 190              		.loc 1 315 0 discriminator 2
 191 0024 0134     		add	r4, r4, #1
 192              	.LVL20:
 193              	.L11:
 315:.\Generated_Source\PSoC4/CapSense_CSHL.c ****     {
 194              		.loc 1 315 0 is_stmt 0 discriminator 1
 195 0026 092C     		cmp	r4, #9
 196 0028 F3D9     		bls	.L13
 324:.\Generated_Source\PSoC4/CapSense_CSHL.c ****         }
 325:.\Generated_Source\PSoC4/CapSense_CSHL.c ****     }
 326:.\Generated_Source\PSoC4/CapSense_CSHL.c **** }
 197              		.loc 1 326 0 is_stmt 1
 198              		@ sp needed
 199              	.LVL21:
 200 002a 10BD     		pop	{r4, pc}
 201              	.L15:
 202              		.align	2
 203              	.L14:
 204 002c 00000000 		.word	CapSense_sensorEnableMask
 205              		.cfi_endproc
 206              	.LFE38:
 207              		.size	CapSense_InitializeEnabledBaselines, .-CapSense_InitializeEnabledBaselines
 208              		.section	.text.CapSense_GetBaselineData,"ax",%progbits
 209              		.align	2
 210              		.global	CapSense_GetBaselineData
 211              		.code	16
 212              		.thumb_func
 213              		.type	CapSense_GetBaselineData, %function
 214              	CapSense_GetBaselineData:
 215              	.LFB43:
 327:.\Generated_Source\PSoC4/CapSense_CSHL.c **** 
 328:.\Generated_Source\PSoC4/CapSense_CSHL.c **** 
 329:.\Generated_Source\PSoC4/CapSense_CSHL.c **** /*******************************************************************************
 330:.\Generated_Source\PSoC4/CapSense_CSHL.c **** * Function Name: CapSense_UpdateBaselineNoThreshold
 331:.\Generated_Source\PSoC4/CapSense_CSHL.c **** ********************************************************************************
 332:.\Generated_Source\PSoC4/CapSense_CSHL.c **** *
 333:.\Generated_Source\PSoC4/CapSense_CSHL.c **** * Summary:
 334:.\Generated_Source\PSoC4/CapSense_CSHL.c **** *  Updates the CapSense_sensorBaseline[sensor] array element using the
 335:.\Generated_Source\PSoC4/CapSense_CSHL.c **** *  LP filter with k = 256. The signal calculates the difference of count by
 336:.\Generated_Source\PSoC4/CapSense_CSHL.c **** *  subtracting the previous baseline from the current raw count value and stores
 337:.\Generated_Source\PSoC4/CapSense_CSHL.c **** *  it in CapSense_sensorSignal[sensor].
 338:.\Generated_Source\PSoC4/CapSense_CSHL.c **** *  If the auto reset option is enabled, the baseline updated regards the noise threshold.
 339:.\Generated_Source\PSoC4/CapSense_CSHL.c **** *  If the auto reset option is disabled, the baseline stops updating; baseline is loaded
 340:.\Generated_Source\PSoC4/CapSense_CSHL.c **** *  with a raw count value if a signal is greater than zero and if signal is less
 341:.\Generated_Source\PSoC4/CapSense_CSHL.c **** *  than noise threshold.
 342:.\Generated_Source\PSoC4/CapSense_CSHL.c **** *  Raw data filters are applied to the values if enabled before baseline
 343:.\Generated_Source\PSoC4/CapSense_CSHL.c **** *  calculation.
 344:.\Generated_Source\PSoC4/CapSense_CSHL.c **** *
 345:.\Generated_Source\PSoC4/CapSense_CSHL.c **** *  This API does not update the thresholds in the Smartsense Mode.
 346:.\Generated_Source\PSoC4/CapSense_CSHL.c **** *
 347:.\Generated_Source\PSoC4/CapSense_CSHL.c **** * Parameters:
 348:.\Generated_Source\PSoC4/CapSense_CSHL.c **** *  sensor:  Sensor number.
 349:.\Generated_Source\PSoC4/CapSense_CSHL.c **** *
 350:.\Generated_Source\PSoC4/CapSense_CSHL.c **** * Return:
 351:.\Generated_Source\PSoC4/CapSense_CSHL.c **** *  None
ARM GAS  C:\Users\ALEXAN~1\AppData\Local\Temp\ccCdetCh.s 			page 11


 352:.\Generated_Source\PSoC4/CapSense_CSHL.c **** *
 353:.\Generated_Source\PSoC4/CapSense_CSHL.c **** * Global Variables:
 354:.\Generated_Source\PSoC4/CapSense_CSHL.c **** *  CapSense_widgetNumber[]  - stores widget numbers.
 355:.\Generated_Source\PSoC4/CapSense_CSHL.c **** *  CapSense_sensorBaseline[]    - used to store baseline value.
 356:.\Generated_Source\PSoC4/CapSense_CSHL.c **** *  CapSense_sensorBaselineLow[] - used to store fraction byte of
 357:.\Generated_Source\PSoC4/CapSense_CSHL.c **** *  baseline value.
 358:.\Generated_Source\PSoC4/CapSense_CSHL.c **** *  CapSense_sensorSignal[]      - used to store difference between
 359:.\Generated_Source\PSoC4/CapSense_CSHL.c **** *  current value of raw data and previous value of baseline.
 360:.\Generated_Source\PSoC4/CapSense_CSHL.c **** *  CapSense_rawFilterData1[]    - used to store previous sample of
 361:.\Generated_Source\PSoC4/CapSense_CSHL.c **** *  any enabled raw data filter.
 362:.\Generated_Source\PSoC4/CapSense_CSHL.c **** *  CapSense_rawFilterData2[]    - used to store before previous sample
 363:.\Generated_Source\PSoC4/CapSense_CSHL.c **** *  of enabled raw data filter. Only required for median or average filters.
 364:.\Generated_Source\PSoC4/CapSense_CSHL.c **** *
 365:.\Generated_Source\PSoC4/CapSense_CSHL.c **** * Side Effects:
 366:.\Generated_Source\PSoC4/CapSense_CSHL.c **** *  None
 367:.\Generated_Source\PSoC4/CapSense_CSHL.c **** *
 368:.\Generated_Source\PSoC4/CapSense_CSHL.c **** *******************************************************************************/
 369:.\Generated_Source\PSoC4/CapSense_CSHL.c **** void CapSense_UpdateBaselineNoThreshold(uint32 sensor)
 370:.\Generated_Source\PSoC4/CapSense_CSHL.c **** {
 371:.\Generated_Source\PSoC4/CapSense_CSHL.c ****     uint32 calc;
 372:.\Generated_Source\PSoC4/CapSense_CSHL.c ****     uint32 sign;
 373:.\Generated_Source\PSoC4/CapSense_CSHL.c ****     uint16 tempRaw;
 374:.\Generated_Source\PSoC4/CapSense_CSHL.c ****     uint16 filteredRawData;
 375:.\Generated_Source\PSoC4/CapSense_CSHL.c ****     uint8 widget = CapSense_widgetNumber[sensor];
 376:.\Generated_Source\PSoC4/CapSense_CSHL.c ****     uint16 noiseThreshold;
 377:.\Generated_Source\PSoC4/CapSense_CSHL.c **** 
 378:.\Generated_Source\PSoC4/CapSense_CSHL.c ****     #if (CapSense_TOTAL_GENERICS_COUNT)
 379:.\Generated_Source\PSoC4/CapSense_CSHL.c ****         /* Exclude generic widget */
 380:.\Generated_Source\PSoC4/CapSense_CSHL.c ****         if(widget < CapSense_END_OF_WIDGETS_INDEX)
 381:.\Generated_Source\PSoC4/CapSense_CSHL.c ****         {
 382:.\Generated_Source\PSoC4/CapSense_CSHL.c ****     #endif  /* CapSense_TOTAL_GENERICS_COUNT */
 383:.\Generated_Source\PSoC4/CapSense_CSHL.c **** 
 384:.\Generated_Source\PSoC4/CapSense_CSHL.c ****     noiseThreshold = CapSense_noiseThreshold[widget];
 385:.\Generated_Source\PSoC4/CapSense_CSHL.c ****     filteredRawData = CapSense_sensorRaw[sensor];
 386:.\Generated_Source\PSoC4/CapSense_CSHL.c **** 
 387:.\Generated_Source\PSoC4/CapSense_CSHL.c ****     #if (CapSense_RAW_FILTER_MASK != 0u)
 388:.\Generated_Source\PSoC4/CapSense_CSHL.c ****     if(CapSense_enableRawFilters != 0u)
 389:.\Generated_Source\PSoC4/CapSense_CSHL.c ****     {
 390:.\Generated_Source\PSoC4/CapSense_CSHL.c ****         #if (CapSense_RAW_FILTER_MASK & CapSense_MEDIAN_FILTER)
 391:.\Generated_Source\PSoC4/CapSense_CSHL.c ****             tempRaw = filteredRawData;
 392:.\Generated_Source\PSoC4/CapSense_CSHL.c ****             filteredRawData = CapSense_MedianFilter(filteredRawData, CapSense_rawFilterData1[sensor
 393:.\Generated_Source\PSoC4/CapSense_CSHL.c ****                                                             CapSense_rawFilterData2[sensor]);
 394:.\Generated_Source\PSoC4/CapSense_CSHL.c ****             CapSense_rawFilterData2[sensor] = CapSense_rawFilterData1[sensor];
 395:.\Generated_Source\PSoC4/CapSense_CSHL.c ****             CapSense_rawFilterData1[sensor] = tempRaw;
 396:.\Generated_Source\PSoC4/CapSense_CSHL.c **** 
 397:.\Generated_Source\PSoC4/CapSense_CSHL.c ****         #elif (CapSense_RAW_FILTER_MASK & CapSense_AVERAGING_FILTER)
 398:.\Generated_Source\PSoC4/CapSense_CSHL.c ****             tempRaw = filteredRawData;
 399:.\Generated_Source\PSoC4/CapSense_CSHL.c ****             filteredRawData = CapSense_AveragingFilter(filteredRawData, CapSense_rawFilterData1[sen
 400:.\Generated_Source\PSoC4/CapSense_CSHL.c ****                                                                CapSense_rawFilterData2[sensor]);
 401:.\Generated_Source\PSoC4/CapSense_CSHL.c ****             CapSense_rawFilterData2[sensor] = CapSense_rawFilterData1[sensor];
 402:.\Generated_Source\PSoC4/CapSense_CSHL.c ****             CapSense_rawFilterData1[sensor] = tempRaw;
 403:.\Generated_Source\PSoC4/CapSense_CSHL.c **** 
 404:.\Generated_Source\PSoC4/CapSense_CSHL.c ****         #elif (CapSense_RAW_FILTER_MASK & CapSense_IIR2_FILTER)
 405:.\Generated_Source\PSoC4/CapSense_CSHL.c ****             filteredRawData = CapSense_IIR2Filter(filteredRawData, CapSense_rawFilterData1[sensor])
 406:.\Generated_Source\PSoC4/CapSense_CSHL.c ****             CapSense_rawFilterData1[sensor] = filteredRawData;
 407:.\Generated_Source\PSoC4/CapSense_CSHL.c **** 
 408:.\Generated_Source\PSoC4/CapSense_CSHL.c ****         #elif (CapSense_RAW_FILTER_MASK & CapSense_IIR4_FILTER)
ARM GAS  C:\Users\ALEXAN~1\AppData\Local\Temp\ccCdetCh.s 			page 12


 409:.\Generated_Source\PSoC4/CapSense_CSHL.c ****             filteredRawData = CapSense_IIR4Filter(filteredRawData, CapSense_rawFilterData1[sensor])
 410:.\Generated_Source\PSoC4/CapSense_CSHL.c ****             CapSense_rawFilterData1[sensor] = filteredRawData;
 411:.\Generated_Source\PSoC4/CapSense_CSHL.c **** 
 412:.\Generated_Source\PSoC4/CapSense_CSHL.c ****         #elif (CapSense_RAW_FILTER_MASK & CapSense_JITTER_FILTER)
 413:.\Generated_Source\PSoC4/CapSense_CSHL.c ****             filteredRawData = CapSense_JitterFilter(filteredRawData, CapSense_rawFilterData1[sensor
 414:.\Generated_Source\PSoC4/CapSense_CSHL.c ****             CapSense_rawFilterData1[sensor] = filteredRawData;
 415:.\Generated_Source\PSoC4/CapSense_CSHL.c **** 
 416:.\Generated_Source\PSoC4/CapSense_CSHL.c ****         #elif (CapSense_RAW_FILTER_MASK & CapSense_IIR8_FILTER)
 417:.\Generated_Source\PSoC4/CapSense_CSHL.c ****             filteredRawData = CapSense_IIR8Filter(filteredRawData, CapSense_rawFilterData1[sensor])
 418:.\Generated_Source\PSoC4/CapSense_CSHL.c ****             CapSense_rawFilterData1[sensor] = filteredRawData;
 419:.\Generated_Source\PSoC4/CapSense_CSHL.c **** 
 420:.\Generated_Source\PSoC4/CapSense_CSHL.c ****         #elif (CapSense_RAW_FILTER_MASK & CapSense_IIR16_FILTER)
 421:.\Generated_Source\PSoC4/CapSense_CSHL.c ****             filteredRawData = CapSense_IIR16Filter(filteredRawData, CapSense_rawFilterData1[sensor]
 422:.\Generated_Source\PSoC4/CapSense_CSHL.c ****             CapSense_rawFilterData1[sensor] = filteredRawData;
 423:.\Generated_Source\PSoC4/CapSense_CSHL.c **** 
 424:.\Generated_Source\PSoC4/CapSense_CSHL.c ****         #else
 425:.\Generated_Source\PSoC4/CapSense_CSHL.c ****             /* No Raw filters */
 426:.\Generated_Source\PSoC4/CapSense_CSHL.c ****         #endif  /* (CapSense_RAW_FILTER_MASK & CapSense_MEDIAN_FILTER) */
 427:.\Generated_Source\PSoC4/CapSense_CSHL.c ****     }
 428:.\Generated_Source\PSoC4/CapSense_CSHL.c ****     #endif  /* (CapSense_RAW_FILTER_MASK != 0u) */
 429:.\Generated_Source\PSoC4/CapSense_CSHL.c **** 
 430:.\Generated_Source\PSoC4/CapSense_CSHL.c ****     #if (CapSense_TUNING_METHOD == CapSense__TUNING_AUTO)
 431:.\Generated_Source\PSoC4/CapSense_CSHL.c ****         MeasureNoiseEnvelope_P4_v2_30(&CapSense_config, (uint8)sensor, CapSense_sensorRaw);
 432:.\Generated_Source\PSoC4/CapSense_CSHL.c ****     #endif /* (CapSense_TUNING_METHOD == CapSense__TUNING_AUTO) */
 433:.\Generated_Source\PSoC4/CapSense_CSHL.c **** 
 434:.\Generated_Source\PSoC4/CapSense_CSHL.c ****     /* Baseline calculation */
 435:.\Generated_Source\PSoC4/CapSense_CSHL.c ****     /* Calculate difference RawData[cur] - Baseline[prev] */
 436:.\Generated_Source\PSoC4/CapSense_CSHL.c ****     if(filteredRawData >= CapSense_sensorBaseline[sensor])
 437:.\Generated_Source\PSoC4/CapSense_CSHL.c ****     {
 438:.\Generated_Source\PSoC4/CapSense_CSHL.c ****         CapSense_lowBaselineResetCnt[sensor] = 0u;
 439:.\Generated_Source\PSoC4/CapSense_CSHL.c ****         tempRaw = filteredRawData - CapSense_sensorBaseline[sensor];
 440:.\Generated_Source\PSoC4/CapSense_CSHL.c ****         sign = 1u;    /* Positive difference - Calculate the Signal */
 441:.\Generated_Source\PSoC4/CapSense_CSHL.c ****     }
 442:.\Generated_Source\PSoC4/CapSense_CSHL.c ****     else
 443:.\Generated_Source\PSoC4/CapSense_CSHL.c ****     {
 444:.\Generated_Source\PSoC4/CapSense_CSHL.c ****         tempRaw = CapSense_sensorBaseline[sensor] - filteredRawData;
 445:.\Generated_Source\PSoC4/CapSense_CSHL.c ****         sign = 0u;    /* Negative difference - Do NOT calculate the Signal */
 446:.\Generated_Source\PSoC4/CapSense_CSHL.c ****     }
 447:.\Generated_Source\PSoC4/CapSense_CSHL.c **** 
 448:.\Generated_Source\PSoC4/CapSense_CSHL.c ****     #if (CapSense_TUNING_METHOD != CapSense__TUNING_NONE)
 449:.\Generated_Source\PSoC4/CapSense_CSHL.c ****     if((sign == 0u) && (tempRaw > (uint16) CapSense_negativeNoiseThreshold[widget]))
 450:.\Generated_Source\PSoC4/CapSense_CSHL.c ****     #else
 451:.\Generated_Source\PSoC4/CapSense_CSHL.c ****     if((sign == 0u) && (tempRaw > (uint16) CapSense_NEGATIVE_NOISE_THRESHOLD))
 452:.\Generated_Source\PSoC4/CapSense_CSHL.c ****     #endif /* (CapSense_TUNING_METHOD != CapSense__TUNING_NONE) */
 453:.\Generated_Source\PSoC4/CapSense_CSHL.c ****     {
 454:.\Generated_Source\PSoC4/CapSense_CSHL.c ****         if(CapSense_lowBaselineResetCnt[sensor] >= CapSense_lowBaselineReset[sensor])
 455:.\Generated_Source\PSoC4/CapSense_CSHL.c ****         {
 456:.\Generated_Source\PSoC4/CapSense_CSHL.c ****             CapSense_BaseInit(sensor);
 457:.\Generated_Source\PSoC4/CapSense_CSHL.c ****             CapSense_lowBaselineResetCnt[sensor] = 0u;
 458:.\Generated_Source\PSoC4/CapSense_CSHL.c ****         }
 459:.\Generated_Source\PSoC4/CapSense_CSHL.c ****         else
 460:.\Generated_Source\PSoC4/CapSense_CSHL.c ****         {
 461:.\Generated_Source\PSoC4/CapSense_CSHL.c ****             CapSense_lowBaselineResetCnt[sensor]++;
 462:.\Generated_Source\PSoC4/CapSense_CSHL.c ****         }
 463:.\Generated_Source\PSoC4/CapSense_CSHL.c ****     }
 464:.\Generated_Source\PSoC4/CapSense_CSHL.c ****     else
 465:.\Generated_Source\PSoC4/CapSense_CSHL.c ****     {
ARM GAS  C:\Users\ALEXAN~1\AppData\Local\Temp\ccCdetCh.s 			page 13


 466:.\Generated_Source\PSoC4/CapSense_CSHL.c ****         #if (CapSense_AUTO_RESET == CapSense_AUTO_RESET_DISABLE)
 467:.\Generated_Source\PSoC4/CapSense_CSHL.c ****         #if (CapSense_TUNING_METHOD != CapSense__TUNING_NONE)
 468:.\Generated_Source\PSoC4/CapSense_CSHL.c ****             /* Update Baseline if lower than noiseThreshold */
 469:.\Generated_Source\PSoC4/CapSense_CSHL.c ****             if ( (tempRaw <= noiseThreshold) ||
 470:.\Generated_Source\PSoC4/CapSense_CSHL.c ****              ((tempRaw < (uint16) CapSense_negativeNoiseThreshold[widget])
 471:.\Generated_Source\PSoC4/CapSense_CSHL.c ****                && (sign == 0u)))
 472:.\Generated_Source\PSoC4/CapSense_CSHL.c ****             {
 473:.\Generated_Source\PSoC4/CapSense_CSHL.c ****         #else
 474:.\Generated_Source\PSoC4/CapSense_CSHL.c ****             /* Update Baseline if lower than noiseThreshold */
 475:.\Generated_Source\PSoC4/CapSense_CSHL.c ****             if ( (tempRaw <= noiseThreshold) ||
 476:.\Generated_Source\PSoC4/CapSense_CSHL.c ****                  ((tempRaw < (uint16) CapSense_NEGATIVE_NOISE_THRESHOLD)
 477:.\Generated_Source\PSoC4/CapSense_CSHL.c ****                    && (sign == 0u)))
 478:.\Generated_Source\PSoC4/CapSense_CSHL.c ****             {
 479:.\Generated_Source\PSoC4/CapSense_CSHL.c ****         #endif /* (CapSense_TUNING_METHOD != CapSense__TUNING_NONE) */
 480:.\Generated_Source\PSoC4/CapSense_CSHL.c ****         #endif /* (CapSense_AUTO_RESET == CapSense_AUTO_RESET_DISABLE) */
 481:.\Generated_Source\PSoC4/CapSense_CSHL.c ****                 /* Make full Baseline 23 bits */
 482:.\Generated_Source\PSoC4/CapSense_CSHL.c ****                 calc = (uint32) CapSense_sensorBaseline[sensor] << 8u;
 483:.\Generated_Source\PSoC4/CapSense_CSHL.c ****                 calc |= (uint32) CapSense_sensorBaselineLow[sensor];
 484:.\Generated_Source\PSoC4/CapSense_CSHL.c **** 
 485:.\Generated_Source\PSoC4/CapSense_CSHL.c ****                 /* Add Raw Data to Baseline */
 486:.\Generated_Source\PSoC4/CapSense_CSHL.c ****                 calc += filteredRawData;
 487:.\Generated_Source\PSoC4/CapSense_CSHL.c **** 
 488:.\Generated_Source\PSoC4/CapSense_CSHL.c ****                 /* Sub the high Baseline */
 489:.\Generated_Source\PSoC4/CapSense_CSHL.c ****                 calc -= CapSense_sensorBaseline[sensor];
 490:.\Generated_Source\PSoC4/CapSense_CSHL.c **** 
 491:.\Generated_Source\PSoC4/CapSense_CSHL.c ****                 /* Put Baseline and BaselineLow */
 492:.\Generated_Source\PSoC4/CapSense_CSHL.c ****                 CapSense_sensorBaseline[sensor] = ((uint16) (calc >> 8u));
 493:.\Generated_Source\PSoC4/CapSense_CSHL.c ****                 CapSense_sensorBaselineLow[sensor] = ((uint8) calc);
 494:.\Generated_Source\PSoC4/CapSense_CSHL.c **** 
 495:.\Generated_Source\PSoC4/CapSense_CSHL.c ****                 CapSense_lowBaselineResetCnt[sensor] = 0u;
 496:.\Generated_Source\PSoC4/CapSense_CSHL.c ****         #if (CapSense_AUTO_RESET == CapSense_AUTO_RESET_DISABLE)
 497:.\Generated_Source\PSoC4/CapSense_CSHL.c ****             }
 498:.\Generated_Source\PSoC4/CapSense_CSHL.c ****         #endif /* (CapSense_AUTO_RESET == CapSense_AUTO_RESET_DISABLE) */
 499:.\Generated_Source\PSoC4/CapSense_CSHL.c ****     }
 500:.\Generated_Source\PSoC4/CapSense_CSHL.c **** 
 501:.\Generated_Source\PSoC4/CapSense_CSHL.c ****     /* Calculate Signal if positive difference > noiseThreshold */
 502:.\Generated_Source\PSoC4/CapSense_CSHL.c ****     if((tempRaw > (uint16) noiseThreshold) && (sign != 0u))
 503:.\Generated_Source\PSoC4/CapSense_CSHL.c ****     {
 504:.\Generated_Source\PSoC4/CapSense_CSHL.c ****         #if (CapSense_SIGNAL_SIZE == CapSense_SIGNAL_SIZE_UINT8)
 505:.\Generated_Source\PSoC4/CapSense_CSHL.c ****             /* Over flow defence for uint8 */
 506:.\Generated_Source\PSoC4/CapSense_CSHL.c ****             if (tempRaw > 0xFFu)
 507:.\Generated_Source\PSoC4/CapSense_CSHL.c ****             {
 508:.\Generated_Source\PSoC4/CapSense_CSHL.c ****                 CapSense_sensorSignal[sensor] = 0xFFu;
 509:.\Generated_Source\PSoC4/CapSense_CSHL.c ****             }
 510:.\Generated_Source\PSoC4/CapSense_CSHL.c ****             else
 511:.\Generated_Source\PSoC4/CapSense_CSHL.c ****             {
 512:.\Generated_Source\PSoC4/CapSense_CSHL.c ****                 CapSense_sensorSignal[sensor] = ((uint8) tempRaw);
 513:.\Generated_Source\PSoC4/CapSense_CSHL.c ****             }
 514:.\Generated_Source\PSoC4/CapSense_CSHL.c ****         #else
 515:.\Generated_Source\PSoC4/CapSense_CSHL.c ****             CapSense_sensorSignal[sensor] = ((uint16) tempRaw);
 516:.\Generated_Source\PSoC4/CapSense_CSHL.c ****         #endif  /* (CapSense_SIGNAL_SIZE == CapSense_SIGNAL_SIZE_UINT8) */
 517:.\Generated_Source\PSoC4/CapSense_CSHL.c ****     }
 518:.\Generated_Source\PSoC4/CapSense_CSHL.c ****     else
 519:.\Generated_Source\PSoC4/CapSense_CSHL.c ****     {
 520:.\Generated_Source\PSoC4/CapSense_CSHL.c ****         /* Signal is zero */
 521:.\Generated_Source\PSoC4/CapSense_CSHL.c ****         CapSense_sensorSignal[sensor] = 0u;
 522:.\Generated_Source\PSoC4/CapSense_CSHL.c ****     }
ARM GAS  C:\Users\ALEXAN~1\AppData\Local\Temp\ccCdetCh.s 			page 14


 523:.\Generated_Source\PSoC4/CapSense_CSHL.c **** 
 524:.\Generated_Source\PSoC4/CapSense_CSHL.c ****     #if (CapSense_TOTAL_GENERICS_COUNT)
 525:.\Generated_Source\PSoC4/CapSense_CSHL.c ****         /* Exclude generic widget */
 526:.\Generated_Source\PSoC4/CapSense_CSHL.c ****         }
 527:.\Generated_Source\PSoC4/CapSense_CSHL.c ****     #endif  /* CapSense_TOTAL_GENERICS_COUNT */
 528:.\Generated_Source\PSoC4/CapSense_CSHL.c **** }
 529:.\Generated_Source\PSoC4/CapSense_CSHL.c **** 
 530:.\Generated_Source\PSoC4/CapSense_CSHL.c **** 
 531:.\Generated_Source\PSoC4/CapSense_CSHL.c **** /*******************************************************************************
 532:.\Generated_Source\PSoC4/CapSense_CSHL.c **** * Function Name: CapSense_UpdateSensorBaseline
 533:.\Generated_Source\PSoC4/CapSense_CSHL.c **** ********************************************************************************
 534:.\Generated_Source\PSoC4/CapSense_CSHL.c **** *
 535:.\Generated_Source\PSoC4/CapSense_CSHL.c **** * Summary:
 536:.\Generated_Source\PSoC4/CapSense_CSHL.c **** *  Updates the CapSense_sensorBaseline[sensor] array element using the
 537:.\Generated_Source\PSoC4/CapSense_CSHL.c **** *  LP filter with k = 256. The signal calculates the difference of count by
 538:.\Generated_Source\PSoC4/CapSense_CSHL.c **** *  subtracting the previous baseline from the current raw count value and stores
 539:.\Generated_Source\PSoC4/CapSense_CSHL.c **** *  it in CapSense_sensorSignal[sensor].
 540:.\Generated_Source\PSoC4/CapSense_CSHL.c **** *  If the auto reset option is enabled, the baseline updated regards the noise threshold.
 541:.\Generated_Source\PSoC4/CapSense_CSHL.c **** *  If the auto reset option is disabled, the baseline stops updating.
 542:.\Generated_Source\PSoC4/CapSense_CSHL.c **** *  Baseline is loaded with raw count value if a signal is greater than zero and
 543:.\Generated_Source\PSoC4/CapSense_CSHL.c **** *  if signal is less than noise threshold.
 544:.\Generated_Source\PSoC4/CapSense_CSHL.c **** *  Raw data filters are applied to the values if enabled before baseline
 545:.\Generated_Source\PSoC4/CapSense_CSHL.c **** *  calculation.
 546:.\Generated_Source\PSoC4/CapSense_CSHL.c **** *  This API updates the thresholds in the Smartsense Mode.
 547:.\Generated_Source\PSoC4/CapSense_CSHL.c **** *
 548:.\Generated_Source\PSoC4/CapSense_CSHL.c **** * Parameters:
 549:.\Generated_Source\PSoC4/CapSense_CSHL.c **** *  sensor:  Sensor number.
 550:.\Generated_Source\PSoC4/CapSense_CSHL.c **** *
 551:.\Generated_Source\PSoC4/CapSense_CSHL.c **** * Return:
 552:.\Generated_Source\PSoC4/CapSense_CSHL.c **** *  None
 553:.\Generated_Source\PSoC4/CapSense_CSHL.c **** *
 554:.\Generated_Source\PSoC4/CapSense_CSHL.c **** * Global Variables:
 555:.\Generated_Source\PSoC4/CapSense_CSHL.c **** *  CapSense_widgetNumber[]  - stores widget numbers.
 556:.\Generated_Source\PSoC4/CapSense_CSHL.c **** *
 557:.\Generated_Source\PSoC4/CapSense_CSHL.c **** * Side Effects:
 558:.\Generated_Source\PSoC4/CapSense_CSHL.c **** *  None
 559:.\Generated_Source\PSoC4/CapSense_CSHL.c **** *
 560:.\Generated_Source\PSoC4/CapSense_CSHL.c **** *******************************************************************************/
 561:.\Generated_Source\PSoC4/CapSense_CSHL.c ****  void CapSense_UpdateSensorBaseline(uint32 sensor)
 562:.\Generated_Source\PSoC4/CapSense_CSHL.c **** {
 563:.\Generated_Source\PSoC4/CapSense_CSHL.c ****     #if (CapSense_TOTAL_GENERICS_COUNT)
 564:.\Generated_Source\PSoC4/CapSense_CSHL.c ****         uint32 widget;
 565:.\Generated_Source\PSoC4/CapSense_CSHL.c **** 
 566:.\Generated_Source\PSoC4/CapSense_CSHL.c ****         widget = CapSense_widgetNumber[sensor];
 567:.\Generated_Source\PSoC4/CapSense_CSHL.c **** 
 568:.\Generated_Source\PSoC4/CapSense_CSHL.c ****         /* Exclude generic widget */
 569:.\Generated_Source\PSoC4/CapSense_CSHL.c ****         if(widget < CapSense_END_OF_WIDGETS_INDEX)
 570:.\Generated_Source\PSoC4/CapSense_CSHL.c ****         {
 571:.\Generated_Source\PSoC4/CapSense_CSHL.c ****     #endif  /* CapSense_TOTAL_GENERICS_COUNT */
 572:.\Generated_Source\PSoC4/CapSense_CSHL.c **** 
 573:.\Generated_Source\PSoC4/CapSense_CSHL.c ****     #if (CapSense_TUNING_METHOD == CapSense__TUNING_AUTO)
 574:.\Generated_Source\PSoC4/CapSense_CSHL.c ****         CapSense_UpdateThresholds(sensor);
 575:.\Generated_Source\PSoC4/CapSense_CSHL.c ****     #endif /* (CapSense_TUNING_METHOD == CapSense__TUNING_AUTO) */
 576:.\Generated_Source\PSoC4/CapSense_CSHL.c **** 
 577:.\Generated_Source\PSoC4/CapSense_CSHL.c ****     CapSense_UpdateBaselineNoThreshold(sensor);
 578:.\Generated_Source\PSoC4/CapSense_CSHL.c **** 
 579:.\Generated_Source\PSoC4/CapSense_CSHL.c ****     #if (CapSense_TOTAL_GENERICS_COUNT)
ARM GAS  C:\Users\ALEXAN~1\AppData\Local\Temp\ccCdetCh.s 			page 15


 580:.\Generated_Source\PSoC4/CapSense_CSHL.c ****         /* Exclude generic widget */
 581:.\Generated_Source\PSoC4/CapSense_CSHL.c ****         }
 582:.\Generated_Source\PSoC4/CapSense_CSHL.c ****     #endif  /* CapSense_TOTAL_GENERICS_COUNT */
 583:.\Generated_Source\PSoC4/CapSense_CSHL.c **** }
 584:.\Generated_Source\PSoC4/CapSense_CSHL.c **** 
 585:.\Generated_Source\PSoC4/CapSense_CSHL.c **** 
 586:.\Generated_Source\PSoC4/CapSense_CSHL.c **** /*******************************************************************************
 587:.\Generated_Source\PSoC4/CapSense_CSHL.c **** * Function Name: CapSense_UpdateEnabledBaselines
 588:.\Generated_Source\PSoC4/CapSense_CSHL.c **** ********************************************************************************
 589:.\Generated_Source\PSoC4/CapSense_CSHL.c **** *
 590:.\Generated_Source\PSoC4/CapSense_CSHL.c **** * Summary:
 591:.\Generated_Source\PSoC4/CapSense_CSHL.c **** *  Checks CapSense_sensorEnableMask[] array and calls the
 592:.\Generated_Source\PSoC4/CapSense_CSHL.c **** *  CapSense_UpdateSensorBaseline function to update the baselines
 593:.\Generated_Source\PSoC4/CapSense_CSHL.c **** *  for the enabled sensors.
 594:.\Generated_Source\PSoC4/CapSense_CSHL.c **** *
 595:.\Generated_Source\PSoC4/CapSense_CSHL.c **** * Parameters:
 596:.\Generated_Source\PSoC4/CapSense_CSHL.c **** *  None
 597:.\Generated_Source\PSoC4/CapSense_CSHL.c **** *
 598:.\Generated_Source\PSoC4/CapSense_CSHL.c **** * Return:
 599:.\Generated_Source\PSoC4/CapSense_CSHL.c **** *  None
 600:.\Generated_Source\PSoC4/CapSense_CSHL.c **** *
 601:.\Generated_Source\PSoC4/CapSense_CSHL.c **** * Global Variables:
 602:.\Generated_Source\PSoC4/CapSense_CSHL.c **** *  CapSense_sensorEnableMask[] - used to store the sensor scanning
 603:.\Generated_Source\PSoC4/CapSense_CSHL.c **** *  state.
 604:.\Generated_Source\PSoC4/CapSense_CSHL.c **** *  CapSense_sensorEnableMask[0] contains the masked bits for sensors
 605:.\Generated_Source\PSoC4/CapSense_CSHL.c **** *   0 through 7 (sensor 0 is bit 0, sensor 1 is bit 1).
 606:.\Generated_Source\PSoC4/CapSense_CSHL.c **** *  CapSense_sensorEnableMask[1] contains the masked bits for
 607:.\Generated_Source\PSoC4/CapSense_CSHL.c **** *  sensors 8 through 15 (if needed), and so on.
 608:.\Generated_Source\PSoC4/CapSense_CSHL.c **** *  0 - sensor doesn't scan by CapSense_ScanEnabledWidgets().
 609:.\Generated_Source\PSoC4/CapSense_CSHL.c **** *  1 - sensor scans by CapSense_ScanEnabledWidgets().
 610:.\Generated_Source\PSoC4/CapSense_CSHL.c **** *
 611:.\Generated_Source\PSoC4/CapSense_CSHL.c **** * Side Effects:
 612:.\Generated_Source\PSoC4/CapSense_CSHL.c **** *  None
 613:.\Generated_Source\PSoC4/CapSense_CSHL.c **** *
 614:.\Generated_Source\PSoC4/CapSense_CSHL.c **** *******************************************************************************/
 615:.\Generated_Source\PSoC4/CapSense_CSHL.c ****  void CapSense_UpdateEnabledBaselines(void)
 616:.\Generated_Source\PSoC4/CapSense_CSHL.c **** {
 617:.\Generated_Source\PSoC4/CapSense_CSHL.c ****     uint32 i;
 618:.\Generated_Source\PSoC4/CapSense_CSHL.c ****     uint32 isSensorEnabled;
 619:.\Generated_Source\PSoC4/CapSense_CSHL.c **** 
 620:.\Generated_Source\PSoC4/CapSense_CSHL.c ****     for(i = 0u; i < CapSense_TOTAL_SENSOR_COUNT; i++)
 621:.\Generated_Source\PSoC4/CapSense_CSHL.c ****     {
 622:.\Generated_Source\PSoC4/CapSense_CSHL.c ****         isSensorEnabled = CapSense_GetBitValue(CapSense_sensorEnableMask, i);
 623:.\Generated_Source\PSoC4/CapSense_CSHL.c **** 
 624:.\Generated_Source\PSoC4/CapSense_CSHL.c ****         if(0u != isSensorEnabled)
 625:.\Generated_Source\PSoC4/CapSense_CSHL.c ****         {
 626:.\Generated_Source\PSoC4/CapSense_CSHL.c ****             CapSense_UpdateSensorBaseline(i);
 627:.\Generated_Source\PSoC4/CapSense_CSHL.c ****         }
 628:.\Generated_Source\PSoC4/CapSense_CSHL.c ****     }
 629:.\Generated_Source\PSoC4/CapSense_CSHL.c **** }
 630:.\Generated_Source\PSoC4/CapSense_CSHL.c **** 
 631:.\Generated_Source\PSoC4/CapSense_CSHL.c **** /*******************************************************************************
 632:.\Generated_Source\PSoC4/CapSense_CSHL.c **** * Function Name: CapSense_UpdateWidgetBaseline
 633:.\Generated_Source\PSoC4/CapSense_CSHL.c **** ********************************************************************************
 634:.\Generated_Source\PSoC4/CapSense_CSHL.c **** *
 635:.\Generated_Source\PSoC4/CapSense_CSHL.c **** * Summary:
 636:.\Generated_Source\PSoC4/CapSense_CSHL.c **** *  Checks CapSense_sensorEnableMask[] array and calls the
ARM GAS  C:\Users\ALEXAN~1\AppData\Local\Temp\ccCdetCh.s 			page 16


 637:.\Generated_Source\PSoC4/CapSense_CSHL.c **** *  CapSense_UpdateSensorBaseline function to update the baselines
 638:.\Generated_Source\PSoC4/CapSense_CSHL.c **** *  for the enabled sensors that belong to widget.
 639:.\Generated_Source\PSoC4/CapSense_CSHL.c **** *
 640:.\Generated_Source\PSoC4/CapSense_CSHL.c **** * Parameters:
 641:.\Generated_Source\PSoC4/CapSense_CSHL.c **** *  widget:  Widget number.
 642:.\Generated_Source\PSoC4/CapSense_CSHL.c **** *
 643:.\Generated_Source\PSoC4/CapSense_CSHL.c **** * Return:
 644:.\Generated_Source\PSoC4/CapSense_CSHL.c **** *  None
 645:.\Generated_Source\PSoC4/CapSense_CSHL.c **** *
 646:.\Generated_Source\PSoC4/CapSense_CSHL.c **** * Global Variables:
 647:.\Generated_Source\PSoC4/CapSense_CSHL.c **** *  CapSense_sensorEnableMask[] - used to store the sensor scanning
 648:.\Generated_Source\PSoC4/CapSense_CSHL.c **** *  state.
 649:.\Generated_Source\PSoC4/CapSense_CSHL.c **** *  CapSense_sensorEnableMask[0] contains the masked bits for sensors
 650:.\Generated_Source\PSoC4/CapSense_CSHL.c **** *   0 through 7 (sensor 0 is bit 0, sensor 1 is bit 1).
 651:.\Generated_Source\PSoC4/CapSense_CSHL.c **** *  CapSense_sensorEnableMask[1] contains the masked bits for
 652:.\Generated_Source\PSoC4/CapSense_CSHL.c **** *  sensors 8 through 15 (if needed), and so on.
 653:.\Generated_Source\PSoC4/CapSense_CSHL.c **** *  0 - sensor doesn't scan by CapSense_ScanEnabledWidgets().
 654:.\Generated_Source\PSoC4/CapSense_CSHL.c **** *  1 - sensor scans by CapSense_ScanEnabledWidgets().
 655:.\Generated_Source\PSoC4/CapSense_CSHL.c **** *
 656:.\Generated_Source\PSoC4/CapSense_CSHL.c **** * Side Effects:
 657:.\Generated_Source\PSoC4/CapSense_CSHL.c **** *  None
 658:.\Generated_Source\PSoC4/CapSense_CSHL.c **** *
 659:.\Generated_Source\PSoC4/CapSense_CSHL.c **** *******************************************************************************/
 660:.\Generated_Source\PSoC4/CapSense_CSHL.c **** void CapSense_UpdateWidgetBaseline(uint32 widget)
 661:.\Generated_Source\PSoC4/CapSense_CSHL.c **** {
 662:.\Generated_Source\PSoC4/CapSense_CSHL.c ****     uint32 sensorsPerWidget;
 663:.\Generated_Source\PSoC4/CapSense_CSHL.c ****     uint32 firstSensor;
 664:.\Generated_Source\PSoC4/CapSense_CSHL.c ****     uint32 lastSensor;
 665:.\Generated_Source\PSoC4/CapSense_CSHL.c ****     uint32 i;
 666:.\Generated_Source\PSoC4/CapSense_CSHL.c ****     uint32 isSensorEnabled;
 667:.\Generated_Source\PSoC4/CapSense_CSHL.c **** 
 668:.\Generated_Source\PSoC4/CapSense_CSHL.c ****     /* Get number of sensors in widget */
 669:.\Generated_Source\PSoC4/CapSense_CSHL.c ****     sensorsPerWidget = CapSense_numberOfSensors[widget];
 670:.\Generated_Source\PSoC4/CapSense_CSHL.c **** 
 671:.\Generated_Source\PSoC4/CapSense_CSHL.c ****     /* Get first sensor in widget */
 672:.\Generated_Source\PSoC4/CapSense_CSHL.c ****     firstSensor = CapSense_rawDataIndex[widget];
 673:.\Generated_Source\PSoC4/CapSense_CSHL.c **** 
 674:.\Generated_Source\PSoC4/CapSense_CSHL.c ****     /* Get last sensor in widget */
 675:.\Generated_Source\PSoC4/CapSense_CSHL.c ****     lastSensor = (CapSense_rawDataIndex[widget] + sensorsPerWidget);
 676:.\Generated_Source\PSoC4/CapSense_CSHL.c **** 
 677:.\Generated_Source\PSoC4/CapSense_CSHL.c ****     for(i = firstSensor; i < lastSensor; i++)
 678:.\Generated_Source\PSoC4/CapSense_CSHL.c ****     {
 679:.\Generated_Source\PSoC4/CapSense_CSHL.c ****         isSensorEnabled = CapSense_GetBitValue(CapSense_sensorEnableMask, i);
 680:.\Generated_Source\PSoC4/CapSense_CSHL.c **** 
 681:.\Generated_Source\PSoC4/CapSense_CSHL.c ****         if(0u != isSensorEnabled)
 682:.\Generated_Source\PSoC4/CapSense_CSHL.c ****         {
 683:.\Generated_Source\PSoC4/CapSense_CSHL.c ****             CapSense_UpdateSensorBaseline(i);
 684:.\Generated_Source\PSoC4/CapSense_CSHL.c ****         }
 685:.\Generated_Source\PSoC4/CapSense_CSHL.c ****     }
 686:.\Generated_Source\PSoC4/CapSense_CSHL.c **** }
 687:.\Generated_Source\PSoC4/CapSense_CSHL.c **** 
 688:.\Generated_Source\PSoC4/CapSense_CSHL.c **** 
 689:.\Generated_Source\PSoC4/CapSense_CSHL.c **** /*******************************************************************************
 690:.\Generated_Source\PSoC4/CapSense_CSHL.c **** * Function Name: CapSense_GetBaselineData
 691:.\Generated_Source\PSoC4/CapSense_CSHL.c **** ********************************************************************************
 692:.\Generated_Source\PSoC4/CapSense_CSHL.c **** *
 693:.\Generated_Source\PSoC4/CapSense_CSHL.c **** * Summary:
ARM GAS  C:\Users\ALEXAN~1\AppData\Local\Temp\ccCdetCh.s 			page 17


 694:.\Generated_Source\PSoC4/CapSense_CSHL.c **** *  This function reads the sensor baseline from the component.
 695:.\Generated_Source\PSoC4/CapSense_CSHL.c **** *
 696:.\Generated_Source\PSoC4/CapSense_CSHL.c **** * Parameters:
 697:.\Generated_Source\PSoC4/CapSense_CSHL.c **** *  sensor:  Sensor number.
 698:.\Generated_Source\PSoC4/CapSense_CSHL.c **** *
 699:.\Generated_Source\PSoC4/CapSense_CSHL.c **** * Return:
 700:.\Generated_Source\PSoC4/CapSense_CSHL.c **** *  This API returns the baseline value of the sensor indicated by an argument.
 701:.\Generated_Source\PSoC4/CapSense_CSHL.c **** *
 702:.\Generated_Source\PSoC4/CapSense_CSHL.c **** * Global Variables:
 703:.\Generated_Source\PSoC4/CapSense_CSHL.c **** *  CapSense_sensorBaseline[] - the array with an initial values by scanning
 704:.\Generated_Source\PSoC4/CapSense_CSHL.c **** *
 705:.\Generated_Source\PSoC4/CapSense_CSHL.c **** * Side Effects:
 706:.\Generated_Source\PSoC4/CapSense_CSHL.c **** *  None
 707:.\Generated_Source\PSoC4/CapSense_CSHL.c **** *
 708:.\Generated_Source\PSoC4/CapSense_CSHL.c **** *******************************************************************************/
 709:.\Generated_Source\PSoC4/CapSense_CSHL.c **** uint16 CapSense_GetBaselineData(uint32 sensor)
 710:.\Generated_Source\PSoC4/CapSense_CSHL.c **** {
 216              		.loc 1 710 0
 217              		.cfi_startproc
 218              	.LVL22:
 711:.\Generated_Source\PSoC4/CapSense_CSHL.c ****     return (CapSense_sensorBaseline[sensor]);
 219              		.loc 1 711 0
 220 0000 4000     		lsl	r0, r0, #1
 221              	.LVL23:
 222 0002 014B     		ldr	r3, .L17
 223 0004 185A     		ldrh	r0, [r3, r0]
 712:.\Generated_Source\PSoC4/CapSense_CSHL.c **** }
 224              		.loc 1 712 0
 225              		@ sp needed
 226 0006 7047     		bx	lr
 227              	.L18:
 228              		.align	2
 229              	.L17:
 230 0008 00000000 		.word	.LANCHOR0
 231              		.cfi_endproc
 232              	.LFE43:
 233              		.size	CapSense_GetBaselineData, .-CapSense_GetBaselineData
 234              		.section	.text.CapSense_SetBaselineData,"ax",%progbits
 235              		.align	2
 236              		.global	CapSense_SetBaselineData
 237              		.code	16
 238              		.thumb_func
 239              		.type	CapSense_SetBaselineData, %function
 240              	CapSense_SetBaselineData:
 241              	.LFB44:
 713:.\Generated_Source\PSoC4/CapSense_CSHL.c **** 
 714:.\Generated_Source\PSoC4/CapSense_CSHL.c **** 
 715:.\Generated_Source\PSoC4/CapSense_CSHL.c **** /*******************************************************************************
 716:.\Generated_Source\PSoC4/CapSense_CSHL.c **** * Function Name: CapSense_SetBaselineData
 717:.\Generated_Source\PSoC4/CapSense_CSHL.c **** ********************************************************************************
 718:.\Generated_Source\PSoC4/CapSense_CSHL.c **** *
 719:.\Generated_Source\PSoC4/CapSense_CSHL.c **** * Summary:
 720:.\Generated_Source\PSoC4/CapSense_CSHL.c **** *  This API writes the data value passed as an argument to the sensor baseline array.
 721:.\Generated_Source\PSoC4/CapSense_CSHL.c **** *
 722:.\Generated_Source\PSoC4/CapSense_CSHL.c **** * Parameters:
 723:.\Generated_Source\PSoC4/CapSense_CSHL.c **** *  sensor:  Sensor number.
 724:.\Generated_Source\PSoC4/CapSense_CSHL.c **** *  data:    Sensor baseline.
ARM GAS  C:\Users\ALEXAN~1\AppData\Local\Temp\ccCdetCh.s 			page 18


 725:.\Generated_Source\PSoC4/CapSense_CSHL.c **** *
 726:.\Generated_Source\PSoC4/CapSense_CSHL.c **** * Return:
 727:.\Generated_Source\PSoC4/CapSense_CSHL.c **** *  None.
 728:.\Generated_Source\PSoC4/CapSense_CSHL.c **** *
 729:.\Generated_Source\PSoC4/CapSense_CSHL.c **** * Global Variables:
 730:.\Generated_Source\PSoC4/CapSense_CSHL.c **** *  CapSense_sensorBaseline[] - the array with initial values by scanning
 731:.\Generated_Source\PSoC4/CapSense_CSHL.c **** *
 732:.\Generated_Source\PSoC4/CapSense_CSHL.c **** * Side Effects:
 733:.\Generated_Source\PSoC4/CapSense_CSHL.c **** *  None
 734:.\Generated_Source\PSoC4/CapSense_CSHL.c **** *
 735:.\Generated_Source\PSoC4/CapSense_CSHL.c **** *******************************************************************************/
 736:.\Generated_Source\PSoC4/CapSense_CSHL.c **** void CapSense_SetBaselineData(uint32 sensor, uint16 data)
 737:.\Generated_Source\PSoC4/CapSense_CSHL.c **** {
 242              		.loc 1 737 0
 243              		.cfi_startproc
 244              	.LVL24:
 738:.\Generated_Source\PSoC4/CapSense_CSHL.c ****     CapSense_sensorBaseline[sensor] = data;
 245              		.loc 1 738 0
 246 0000 4000     		lsl	r0, r0, #1
 247              	.LVL25:
 248 0002 014B     		ldr	r3, .L20
 249 0004 C152     		strh	r1, [r0, r3]
 739:.\Generated_Source\PSoC4/CapSense_CSHL.c **** }
 250              		.loc 1 739 0
 251              		@ sp needed
 252 0006 7047     		bx	lr
 253              	.L21:
 254              		.align	2
 255              	.L20:
 256 0008 00000000 		.word	.LANCHOR0
 257              		.cfi_endproc
 258              	.LFE44:
 259              		.size	CapSense_SetBaselineData, .-CapSense_SetBaselineData
 260              		.section	.text.CapSense_GetDiffCountData,"ax",%progbits
 261              		.align	2
 262              		.global	CapSense_GetDiffCountData
 263              		.code	16
 264              		.thumb_func
 265              		.type	CapSense_GetDiffCountData, %function
 266              	CapSense_GetDiffCountData:
 267              	.LFB45:
 740:.\Generated_Source\PSoC4/CapSense_CSHL.c **** 
 741:.\Generated_Source\PSoC4/CapSense_CSHL.c **** 
 742:.\Generated_Source\PSoC4/CapSense_CSHL.c **** /*******************************************************************************
 743:.\Generated_Source\PSoC4/CapSense_CSHL.c **** * Function Name: CapSense_GetDiffCountData
 744:.\Generated_Source\PSoC4/CapSense_CSHL.c **** ********************************************************************************
 745:.\Generated_Source\PSoC4/CapSense_CSHL.c **** *
 746:.\Generated_Source\PSoC4/CapSense_CSHL.c **** * Summary:
 747:.\Generated_Source\PSoC4/CapSense_CSHL.c **** *  This function returns the Sensor Signal from the component.
 748:.\Generated_Source\PSoC4/CapSense_CSHL.c **** *
 749:.\Generated_Source\PSoC4/CapSense_CSHL.c **** * Parameters:
 750:.\Generated_Source\PSoC4/CapSense_CSHL.c **** *  sensor:  Sensor number.
 751:.\Generated_Source\PSoC4/CapSense_CSHL.c **** *
 752:.\Generated_Source\PSoC4/CapSense_CSHL.c **** * Return:
 753:.\Generated_Source\PSoC4/CapSense_CSHL.c **** *  This API returns the difference count value of the sensor indicated by the
 754:.\Generated_Source\PSoC4/CapSense_CSHL.c **** *  argument.
 755:.\Generated_Source\PSoC4/CapSense_CSHL.c **** *
ARM GAS  C:\Users\ALEXAN~1\AppData\Local\Temp\ccCdetCh.s 			page 19


 756:.\Generated_Source\PSoC4/CapSense_CSHL.c **** * Global Variables:
 757:.\Generated_Source\PSoC4/CapSense_CSHL.c **** *  CapSense_sensorSignal[] - the array with difference counts for sensors
 758:.\Generated_Source\PSoC4/CapSense_CSHL.c **** *
 759:.\Generated_Source\PSoC4/CapSense_CSHL.c **** * Side Effects:
 760:.\Generated_Source\PSoC4/CapSense_CSHL.c **** *  None
 761:.\Generated_Source\PSoC4/CapSense_CSHL.c **** *
 762:.\Generated_Source\PSoC4/CapSense_CSHL.c **** *******************************************************************************/
 763:.\Generated_Source\PSoC4/CapSense_CSHL.c **** uint16 CapSense_GetDiffCountData(uint32 sensor)
 764:.\Generated_Source\PSoC4/CapSense_CSHL.c **** {
 268              		.loc 1 764 0
 269              		.cfi_startproc
 270              	.LVL26:
 765:.\Generated_Source\PSoC4/CapSense_CSHL.c ****     return (CapSense_sensorSignal[sensor]);
 271              		.loc 1 765 0
 272 0000 4000     		lsl	r0, r0, #1
 273              	.LVL27:
 274 0002 024B     		ldr	r3, .L23
 275 0004 1818     		add	r0, r3, r0
 276 0006 008C     		ldrh	r0, [r0, #32]
 766:.\Generated_Source\PSoC4/CapSense_CSHL.c **** }
 277              		.loc 1 766 0
 278              		@ sp needed
 279 0008 7047     		bx	lr
 280              	.L24:
 281 000a C046     		.align	2
 282              	.L23:
 283 000c 00000000 		.word	.LANCHOR0
 284              		.cfi_endproc
 285              	.LFE45:
 286              		.size	CapSense_GetDiffCountData, .-CapSense_GetDiffCountData
 287              		.section	.text.CapSense_SetDiffCountData,"ax",%progbits
 288              		.align	2
 289              		.global	CapSense_SetDiffCountData
 290              		.code	16
 291              		.thumb_func
 292              		.type	CapSense_SetDiffCountData, %function
 293              	CapSense_SetDiffCountData:
 294              	.LFB46:
 767:.\Generated_Source\PSoC4/CapSense_CSHL.c **** 
 768:.\Generated_Source\PSoC4/CapSense_CSHL.c **** 
 769:.\Generated_Source\PSoC4/CapSense_CSHL.c **** /*******************************************************************************
 770:.\Generated_Source\PSoC4/CapSense_CSHL.c **** * Function Name: CapSense_SetDiffCountData
 771:.\Generated_Source\PSoC4/CapSense_CSHL.c **** ********************************************************************************
 772:.\Generated_Source\PSoC4/CapSense_CSHL.c **** *
 773:.\Generated_Source\PSoC4/CapSense_CSHL.c **** * Summary:
 774:.\Generated_Source\PSoC4/CapSense_CSHL.c **** *  This API writes the data value passed as an argument to the sensor signal array.
 775:.\Generated_Source\PSoC4/CapSense_CSHL.c **** *
 776:.\Generated_Source\PSoC4/CapSense_CSHL.c **** * Parameters:
 777:.\Generated_Source\PSoC4/CapSense_CSHL.c **** *  sensor:  Sensor number.
 778:.\Generated_Source\PSoC4/CapSense_CSHL.c **** *  value:   Sensor signal.
 779:.\Generated_Source\PSoC4/CapSense_CSHL.c **** *
 780:.\Generated_Source\PSoC4/CapSense_CSHL.c **** * Return:
 781:.\Generated_Source\PSoC4/CapSense_CSHL.c **** *  None.
 782:.\Generated_Source\PSoC4/CapSense_CSHL.c **** *
 783:.\Generated_Source\PSoC4/CapSense_CSHL.c **** * Global Variables:
 784:.\Generated_Source\PSoC4/CapSense_CSHL.c **** *  CapSense_sensorSignal[] - the array with difference counts for sensors
 785:.\Generated_Source\PSoC4/CapSense_CSHL.c **** *
ARM GAS  C:\Users\ALEXAN~1\AppData\Local\Temp\ccCdetCh.s 			page 20


 786:.\Generated_Source\PSoC4/CapSense_CSHL.c **** * Side Effects:
 787:.\Generated_Source\PSoC4/CapSense_CSHL.c **** *  None
 788:.\Generated_Source\PSoC4/CapSense_CSHL.c **** *
 789:.\Generated_Source\PSoC4/CapSense_CSHL.c **** *******************************************************************************/
 790:.\Generated_Source\PSoC4/CapSense_CSHL.c **** void CapSense_SetDiffCountData(uint32 sensor, uint16 value)
 791:.\Generated_Source\PSoC4/CapSense_CSHL.c **** {
 295              		.loc 1 791 0
 296              		.cfi_startproc
 297              	.LVL28:
 792:.\Generated_Source\PSoC4/CapSense_CSHL.c ****     CapSense_sensorSignal[sensor] = value;
 298              		.loc 1 792 0
 299 0000 4000     		lsl	r0, r0, #1
 300              	.LVL29:
 301 0002 024B     		ldr	r3, .L26
 302 0004 1818     		add	r0, r3, r0
 303 0006 0184     		strh	r1, [r0, #32]
 793:.\Generated_Source\PSoC4/CapSense_CSHL.c **** }
 304              		.loc 1 793 0
 305              		@ sp needed
 306 0008 7047     		bx	lr
 307              	.L27:
 308 000a C046     		.align	2
 309              	.L26:
 310 000c 00000000 		.word	.LANCHOR0
 311              		.cfi_endproc
 312              	.LFE46:
 313              		.size	CapSense_SetDiffCountData, .-CapSense_SetDiffCountData
 314              		.section	.text.CapSense_GetFingerThreshold,"ax",%progbits
 315              		.align	2
 316              		.global	CapSense_GetFingerThreshold
 317              		.code	16
 318              		.thumb_func
 319              		.type	CapSense_GetFingerThreshold, %function
 320              	CapSense_GetFingerThreshold:
 321              	.LFB47:
 794:.\Generated_Source\PSoC4/CapSense_CSHL.c **** 
 795:.\Generated_Source\PSoC4/CapSense_CSHL.c **** 
 796:.\Generated_Source\PSoC4/CapSense_CSHL.c **** /*******************************************************************************
 797:.\Generated_Source\PSoC4/CapSense_CSHL.c **** * Function Name: CapSense_GetFingerThreshold
 798:.\Generated_Source\PSoC4/CapSense_CSHL.c **** ********************************************************************************
 799:.\Generated_Source\PSoC4/CapSense_CSHL.c **** *
 800:.\Generated_Source\PSoC4/CapSense_CSHL.c **** * Summary:
 801:.\Generated_Source\PSoC4/CapSense_CSHL.c **** *  This function reads the finger threshold from the component.
 802:.\Generated_Source\PSoC4/CapSense_CSHL.c **** *
 803:.\Generated_Source\PSoC4/CapSense_CSHL.c **** * Parameters:
 804:.\Generated_Source\PSoC4/CapSense_CSHL.c **** *  widget:  widget number.
 805:.\Generated_Source\PSoC4/CapSense_CSHL.c **** *
 806:.\Generated_Source\PSoC4/CapSense_CSHL.c **** * Return:
 807:.\Generated_Source\PSoC4/CapSense_CSHL.c **** *  This API returns the finger threshold of the widget indicated by the argument.
 808:.\Generated_Source\PSoC4/CapSense_CSHL.c **** *
 809:.\Generated_Source\PSoC4/CapSense_CSHL.c **** * Global Variables:
 810:.\Generated_Source\PSoC4/CapSense_CSHL.c **** *  CapSense_fingerThreshold[] - This array contains the level of signal
 811:.\Generated_Source\PSoC4/CapSense_CSHL.c **** *  for each widget that is determined if a finger is present on the widget.
 812:.\Generated_Source\PSoC4/CapSense_CSHL.c **** *
 813:.\Generated_Source\PSoC4/CapSense_CSHL.c **** * Side Effects:
 814:.\Generated_Source\PSoC4/CapSense_CSHL.c **** *  None
 815:.\Generated_Source\PSoC4/CapSense_CSHL.c **** *
ARM GAS  C:\Users\ALEXAN~1\AppData\Local\Temp\ccCdetCh.s 			page 21


 816:.\Generated_Source\PSoC4/CapSense_CSHL.c **** *******************************************************************************/
 817:.\Generated_Source\PSoC4/CapSense_CSHL.c **** uint16 CapSense_GetFingerThreshold(uint32 widget)
 818:.\Generated_Source\PSoC4/CapSense_CSHL.c **** {
 322              		.loc 1 818 0
 323              		.cfi_startproc
 324              	.LVL30:
 819:.\Generated_Source\PSoC4/CapSense_CSHL.c ****     return(CapSense_fingerThreshold[widget]);
 325              		.loc 1 819 0
 326 0000 4000     		lsl	r0, r0, #1
 327              	.LVL31:
 328 0002 024B     		ldr	r3, .L29
 329 0004 1818     		add	r0, r3, r0
 330 0006 8089     		ldrh	r0, [r0, #12]
 820:.\Generated_Source\PSoC4/CapSense_CSHL.c **** }
 331              		.loc 1 820 0
 332              		@ sp needed
 333 0008 7047     		bx	lr
 334              	.L30:
 335 000a C046     		.align	2
 336              	.L29:
 337 000c 00000000 		.word	.LANCHOR1
 338              		.cfi_endproc
 339              	.LFE47:
 340              		.size	CapSense_GetFingerThreshold, .-CapSense_GetFingerThreshold
 341              		.section	.text.CapSense_GetNoiseThreshold,"ax",%progbits
 342              		.align	2
 343              		.global	CapSense_GetNoiseThreshold
 344              		.code	16
 345              		.thumb_func
 346              		.type	CapSense_GetNoiseThreshold, %function
 347              	CapSense_GetNoiseThreshold:
 348              	.LFB48:
 821:.\Generated_Source\PSoC4/CapSense_CSHL.c **** 
 822:.\Generated_Source\PSoC4/CapSense_CSHL.c **** 
 823:.\Generated_Source\PSoC4/CapSense_CSHL.c **** /*******************************************************************************
 824:.\Generated_Source\PSoC4/CapSense_CSHL.c **** * Function Name: CapSense_GetNoiseThreshold
 825:.\Generated_Source\PSoC4/CapSense_CSHL.c **** ********************************************************************************
 826:.\Generated_Source\PSoC4/CapSense_CSHL.c **** *
 827:.\Generated_Source\PSoC4/CapSense_CSHL.c **** * Summary:
 828:.\Generated_Source\PSoC4/CapSense_CSHL.c **** *  This function reads the noise threshold from the component.
 829:.\Generated_Source\PSoC4/CapSense_CSHL.c **** *
 830:.\Generated_Source\PSoC4/CapSense_CSHL.c **** * Parameters:
 831:.\Generated_Source\PSoC4/CapSense_CSHL.c **** *  widget:  widget number.
 832:.\Generated_Source\PSoC4/CapSense_CSHL.c **** *
 833:.\Generated_Source\PSoC4/CapSense_CSHL.c **** * Return:
 834:.\Generated_Source\PSoC4/CapSense_CSHL.c **** *  This API returns the noise threshold of the widget indicated by the argument.
 835:.\Generated_Source\PSoC4/CapSense_CSHL.c **** *
 836:.\Generated_Source\PSoC4/CapSense_CSHL.c **** * Global Variables:
 837:.\Generated_Source\PSoC4/CapSense_CSHL.c **** *  CapSense_noiseThreshold[] - This array contains the level of signal
 838:.\Generated_Source\PSoC4/CapSense_CSHL.c **** *  for each widget that determines the level of noise in the capacitive scan.
 839:.\Generated_Source\PSoC4/CapSense_CSHL.c **** *
 840:.\Generated_Source\PSoC4/CapSense_CSHL.c **** * Side Effects:
 841:.\Generated_Source\PSoC4/CapSense_CSHL.c **** *  None
 842:.\Generated_Source\PSoC4/CapSense_CSHL.c **** *
 843:.\Generated_Source\PSoC4/CapSense_CSHL.c **** *******************************************************************************/
 844:.\Generated_Source\PSoC4/CapSense_CSHL.c **** uint16 CapSense_GetNoiseThreshold(uint32 widget)
 845:.\Generated_Source\PSoC4/CapSense_CSHL.c **** {
ARM GAS  C:\Users\ALEXAN~1\AppData\Local\Temp\ccCdetCh.s 			page 22


 349              		.loc 1 845 0
 350              		.cfi_startproc
 351              	.LVL32:
 846:.\Generated_Source\PSoC4/CapSense_CSHL.c ****     return (CapSense_noiseThreshold[widget]);
 352              		.loc 1 846 0
 353 0000 4000     		lsl	r0, r0, #1
 354              	.LVL33:
 355 0002 024B     		ldr	r3, .L32
 356 0004 1818     		add	r0, r3, r0
 357 0006 008C     		ldrh	r0, [r0, #32]
 847:.\Generated_Source\PSoC4/CapSense_CSHL.c **** }
 358              		.loc 1 847 0
 359              		@ sp needed
 360 0008 7047     		bx	lr
 361              	.L33:
 362 000a C046     		.align	2
 363              	.L32:
 364 000c 00000000 		.word	.LANCHOR1
 365              		.cfi_endproc
 366              	.LFE48:
 367              		.size	CapSense_GetNoiseThreshold, .-CapSense_GetNoiseThreshold
 368              		.section	.text.CapSense_GetFingerHysteresis,"ax",%progbits
 369              		.align	2
 370              		.global	CapSense_GetFingerHysteresis
 371              		.code	16
 372              		.thumb_func
 373              		.type	CapSense_GetFingerHysteresis, %function
 374              	CapSense_GetFingerHysteresis:
 375              	.LFB49:
 848:.\Generated_Source\PSoC4/CapSense_CSHL.c **** 
 849:.\Generated_Source\PSoC4/CapSense_CSHL.c **** 
 850:.\Generated_Source\PSoC4/CapSense_CSHL.c **** /*******************************************************************************
 851:.\Generated_Source\PSoC4/CapSense_CSHL.c **** * Function Name: CapSense_GetFingerHysteresis
 852:.\Generated_Source\PSoC4/CapSense_CSHL.c **** ********************************************************************************
 853:.\Generated_Source\PSoC4/CapSense_CSHL.c **** *
 854:.\Generated_Source\PSoC4/CapSense_CSHL.c **** * Summary:
 855:.\Generated_Source\PSoC4/CapSense_CSHL.c **** *  This function reads the Hysteresis value from the component.
 856:.\Generated_Source\PSoC4/CapSense_CSHL.c **** *
 857:.\Generated_Source\PSoC4/CapSense_CSHL.c **** * Parameters:
 858:.\Generated_Source\PSoC4/CapSense_CSHL.c **** *  widget:  widget number.
 859:.\Generated_Source\PSoC4/CapSense_CSHL.c **** *
 860:.\Generated_Source\PSoC4/CapSense_CSHL.c **** * Return:
 861:.\Generated_Source\PSoC4/CapSense_CSHL.c **** *  This API returns the Hysteresis of the widget indicated by the argument.
 862:.\Generated_Source\PSoC4/CapSense_CSHL.c **** *
 863:.\Generated_Source\PSoC4/CapSense_CSHL.c **** * Global Variables:
 864:.\Generated_Source\PSoC4/CapSense_CSHL.c **** *  CapSense_hysteresis[] - This array contains the hysteresis value
 865:.\Generated_Source\PSoC4/CapSense_CSHL.c **** *   for each widget.
 866:.\Generated_Source\PSoC4/CapSense_CSHL.c **** *  CapSense_widgetNumberSld - structure with dynamic sliders' parameters.
 867:.\Generated_Source\PSoC4/CapSense_CSHL.c **** *
 868:.\Generated_Source\PSoC4/CapSense_CSHL.c **** * Side Effects:
 869:.\Generated_Source\PSoC4/CapSense_CSHL.c **** *  None
 870:.\Generated_Source\PSoC4/CapSense_CSHL.c **** *
 871:.\Generated_Source\PSoC4/CapSense_CSHL.c **** *******************************************************************************/
 872:.\Generated_Source\PSoC4/CapSense_CSHL.c **** uint16 CapSense_GetFingerHysteresis(uint32 widget)
 873:.\Generated_Source\PSoC4/CapSense_CSHL.c **** {
 376              		.loc 1 873 0
 377              		.cfi_startproc
ARM GAS  C:\Users\ALEXAN~1\AppData\Local\Temp\ccCdetCh.s 			page 23


 378              	.LVL34:
 874:.\Generated_Source\PSoC4/CapSense_CSHL.c ****     return(CapSense_hysteresis[widget]);
 379              		.loc 1 874 0
 380 0000 4000     		lsl	r0, r0, #1
 381              	.LVL35:
 382 0002 024B     		ldr	r3, .L35
 383 0004 1818     		add	r0, r3, r0
 384 0006 808E     		ldrh	r0, [r0, #52]
 875:.\Generated_Source\PSoC4/CapSense_CSHL.c **** }
 385              		.loc 1 875 0
 386              		@ sp needed
 387 0008 7047     		bx	lr
 388              	.L36:
 389 000a C046     		.align	2
 390              	.L35:
 391 000c 00000000 		.word	.LANCHOR1
 392              		.cfi_endproc
 393              	.LFE49:
 394              		.size	CapSense_GetFingerHysteresis, .-CapSense_GetFingerHysteresis
 395              		.section	.text.CapSense_GetNegativeNoiseThreshold,"ax",%progbits
 396              		.align	2
 397              		.global	CapSense_GetNegativeNoiseThreshold
 398              		.code	16
 399              		.thumb_func
 400              		.type	CapSense_GetNegativeNoiseThreshold, %function
 401              	CapSense_GetNegativeNoiseThreshold:
 402              	.LFB50:
 876:.\Generated_Source\PSoC4/CapSense_CSHL.c **** 
 877:.\Generated_Source\PSoC4/CapSense_CSHL.c **** 
 878:.\Generated_Source\PSoC4/CapSense_CSHL.c **** /*******************************************************************************
 879:.\Generated_Source\PSoC4/CapSense_CSHL.c **** * Function Name: CapSense_GetNegativeNoiseThreshold
 880:.\Generated_Source\PSoC4/CapSense_CSHL.c **** ********************************************************************************
 881:.\Generated_Source\PSoC4/CapSense_CSHL.c **** *
 882:.\Generated_Source\PSoC4/CapSense_CSHL.c **** * Summary:
 883:.\Generated_Source\PSoC4/CapSense_CSHL.c **** *  This function reads the negative noise threshold from the component.
 884:.\Generated_Source\PSoC4/CapSense_CSHL.c **** *
 885:.\Generated_Source\PSoC4/CapSense_CSHL.c **** * Parameters:
 886:.\Generated_Source\PSoC4/CapSense_CSHL.c **** *  None.
 887:.\Generated_Source\PSoC4/CapSense_CSHL.c **** *
 888:.\Generated_Source\PSoC4/CapSense_CSHL.c **** * Return Value:
 889:.\Generated_Source\PSoC4/CapSense_CSHL.c **** *  This API returns the negative noise threshold
 890:.\Generated_Source\PSoC4/CapSense_CSHL.c **** *
 891:.\Generated_Source\PSoC4/CapSense_CSHL.c **** * Global Variables:
 892:.\Generated_Source\PSoC4/CapSense_CSHL.c **** *  CapSense_negativeNoiseThreshold - This variable specifies the negative
 893:.\Generated_Source\PSoC4/CapSense_CSHL.c **** *   difference between the raw count and baseline levels for Baseline resetting
 894:.\Generated_Source\PSoC4/CapSense_CSHL.c **** *   to the raw count level.
 895:.\Generated_Source\PSoC4/CapSense_CSHL.c **** *
 896:.\Generated_Source\PSoC4/CapSense_CSHL.c **** * Side Effects:
 897:.\Generated_Source\PSoC4/CapSense_CSHL.c **** *  None
 898:.\Generated_Source\PSoC4/CapSense_CSHL.c **** *
 899:.\Generated_Source\PSoC4/CapSense_CSHL.c **** *******************************************************************************/
 900:.\Generated_Source\PSoC4/CapSense_CSHL.c **** uint16 CapSense_GetNegativeNoiseThreshold(uint32 widget)
 901:.\Generated_Source\PSoC4/CapSense_CSHL.c **** {
 403              		.loc 1 901 0
 404              		.cfi_startproc
 405              	.LVL36:
 902:.\Generated_Source\PSoC4/CapSense_CSHL.c **** #if (CapSense_TUNING_METHOD != CapSense__TUNING_NONE)
ARM GAS  C:\Users\ALEXAN~1\AppData\Local\Temp\ccCdetCh.s 			page 24


 903:.\Generated_Source\PSoC4/CapSense_CSHL.c ****     return(CapSense_negativeNoiseThreshold[widget]);
 904:.\Generated_Source\PSoC4/CapSense_CSHL.c **** #else
 905:.\Generated_Source\PSoC4/CapSense_CSHL.c ****     return(CapSense_NEGATIVE_NOISE_THRESHOLD);
 906:.\Generated_Source\PSoC4/CapSense_CSHL.c **** #endif /* (CapSense_TUNING_METHOD != CapSense__TUNING_NONE) */
 907:.\Generated_Source\PSoC4/CapSense_CSHL.c **** }
 406              		.loc 1 907 0
 407 0000 1420     		mov	r0, #20
 408              	.LVL37:
 409              		@ sp needed
 410 0002 7047     		bx	lr
 411              		.cfi_endproc
 412              	.LFE50:
 413              		.size	CapSense_GetNegativeNoiseThreshold, .-CapSense_GetNegativeNoiseThreshold
 414              		.section	.text.CapSense_CheckIsSensorActive,"ax",%progbits
 415              		.align	2
 416              		.global	CapSense_CheckIsSensorActive
 417              		.code	16
 418              		.thumb_func
 419              		.type	CapSense_CheckIsSensorActive, %function
 420              	CapSense_CheckIsSensorActive:
 421              	.LFB51:
 908:.\Generated_Source\PSoC4/CapSense_CSHL.c **** 
 909:.\Generated_Source\PSoC4/CapSense_CSHL.c **** 
 910:.\Generated_Source\PSoC4/CapSense_CSHL.c **** #if(CapSense_TUNING_METHOD != CapSense__TUNING_NONE)
 911:.\Generated_Source\PSoC4/CapSense_CSHL.c ****     /*******************************************************************************
 912:.\Generated_Source\PSoC4/CapSense_CSHL.c ****     * Function Name: CapSense_SetFingerThreshold
 913:.\Generated_Source\PSoC4/CapSense_CSHL.c ****     ********************************************************************************
 914:.\Generated_Source\PSoC4/CapSense_CSHL.c ****     *
 915:.\Generated_Source\PSoC4/CapSense_CSHL.c ****     * Summary:
 916:.\Generated_Source\PSoC4/CapSense_CSHL.c ****     *  This API sets the finger threshold value for a widget.
 917:.\Generated_Source\PSoC4/CapSense_CSHL.c ****     *
 918:.\Generated_Source\PSoC4/CapSense_CSHL.c ****     * Parameters:
 919:.\Generated_Source\PSoC4/CapSense_CSHL.c ****     *  sensorNumber:  widget index.
 920:.\Generated_Source\PSoC4/CapSense_CSHL.c ****     *  value:  Finger threshold value for the widget.
 921:.\Generated_Source\PSoC4/CapSense_CSHL.c ****     *
 922:.\Generated_Source\PSoC4/CapSense_CSHL.c ****     * Return Value:
 923:.\Generated_Source\PSoC4/CapSense_CSHL.c ****     *  None
 924:.\Generated_Source\PSoC4/CapSense_CSHL.c ****     *
 925:.\Generated_Source\PSoC4/CapSense_CSHL.c ****     * Global Variables:
 926:.\Generated_Source\PSoC4/CapSense_CSHL.c ****     *  CapSense_fingerThreshold[] - This array contains the level of signal
 927:.\Generated_Source\PSoC4/CapSense_CSHL.c ****     *   for each widget that determines if a finger is present on the widget.
 928:.\Generated_Source\PSoC4/CapSense_CSHL.c ****     *
 929:.\Generated_Source\PSoC4/CapSense_CSHL.c ****     * Side Effects:
 930:.\Generated_Source\PSoC4/CapSense_CSHL.c ****     *  None
 931:.\Generated_Source\PSoC4/CapSense_CSHL.c ****     *
 932:.\Generated_Source\PSoC4/CapSense_CSHL.c ****     *******************************************************************************/
 933:.\Generated_Source\PSoC4/CapSense_CSHL.c ****     void CapSense_SetFingerThreshold(uint32 widget, uint16 value)
 934:.\Generated_Source\PSoC4/CapSense_CSHL.c ****     {
 935:.\Generated_Source\PSoC4/CapSense_CSHL.c ****         CapSense_fingerThreshold[widget] = value;
 936:.\Generated_Source\PSoC4/CapSense_CSHL.c ****     }
 937:.\Generated_Source\PSoC4/CapSense_CSHL.c **** 
 938:.\Generated_Source\PSoC4/CapSense_CSHL.c **** 
 939:.\Generated_Source\PSoC4/CapSense_CSHL.c ****     /*******************************************************************************
 940:.\Generated_Source\PSoC4/CapSense_CSHL.c ****     * Function Name: CapSense_SetNoiseThreshold
 941:.\Generated_Source\PSoC4/CapSense_CSHL.c ****     ********************************************************************************
 942:.\Generated_Source\PSoC4/CapSense_CSHL.c ****     *
 943:.\Generated_Source\PSoC4/CapSense_CSHL.c ****     * Summary:
ARM GAS  C:\Users\ALEXAN~1\AppData\Local\Temp\ccCdetCh.s 			page 25


 944:.\Generated_Source\PSoC4/CapSense_CSHL.c ****     *  This API sets the Noise Threshold value for each widget.
 945:.\Generated_Source\PSoC4/CapSense_CSHL.c ****     *
 946:.\Generated_Source\PSoC4/CapSense_CSHL.c ****     * Parameters:
 947:.\Generated_Source\PSoC4/CapSense_CSHL.c ****     *  widget:  Sensor index number.
 948:.\Generated_Source\PSoC4/CapSense_CSHL.c ****     *  value:   Noise Threshold value for widget.
 949:.\Generated_Source\PSoC4/CapSense_CSHL.c ****     *
 950:.\Generated_Source\PSoC4/CapSense_CSHL.c ****     * Return Value:
 951:.\Generated_Source\PSoC4/CapSense_CSHL.c ****     *  None
 952:.\Generated_Source\PSoC4/CapSense_CSHL.c ****     *
 953:.\Generated_Source\PSoC4/CapSense_CSHL.c ****     * Global Variables:
 954:.\Generated_Source\PSoC4/CapSense_CSHL.c ****     *  CapSense_noiseThreshold[] - This array contains the level of signal
 955:.\Generated_Source\PSoC4/CapSense_CSHL.c ****     *   for each widget that determines the level of noise in the capacitive scan.
 956:.\Generated_Source\PSoC4/CapSense_CSHL.c ****     *
 957:.\Generated_Source\PSoC4/CapSense_CSHL.c ****     * Side Effects:
 958:.\Generated_Source\PSoC4/CapSense_CSHL.c ****     *  None
 959:.\Generated_Source\PSoC4/CapSense_CSHL.c ****     *
 960:.\Generated_Source\PSoC4/CapSense_CSHL.c ****     *******************************************************************************/
 961:.\Generated_Source\PSoC4/CapSense_CSHL.c ****     void CapSense_SetNoiseThreshold(uint32 widget, uint16 value)
 962:.\Generated_Source\PSoC4/CapSense_CSHL.c ****     {
 963:.\Generated_Source\PSoC4/CapSense_CSHL.c ****         CapSense_noiseThreshold[widget] = value;
 964:.\Generated_Source\PSoC4/CapSense_CSHL.c ****     }
 965:.\Generated_Source\PSoC4/CapSense_CSHL.c **** 
 966:.\Generated_Source\PSoC4/CapSense_CSHL.c **** 
 967:.\Generated_Source\PSoC4/CapSense_CSHL.c ****     /*******************************************************************************
 968:.\Generated_Source\PSoC4/CapSense_CSHL.c ****     * Function Name: CapSense_SetFingerHysteresis
 969:.\Generated_Source\PSoC4/CapSense_CSHL.c ****     ********************************************************************************
 970:.\Generated_Source\PSoC4/CapSense_CSHL.c ****     *
 971:.\Generated_Source\PSoC4/CapSense_CSHL.c ****     * Summary:
 972:.\Generated_Source\PSoC4/CapSense_CSHL.c ****     *  This API sets the Hysteresis value of a widget
 973:.\Generated_Source\PSoC4/CapSense_CSHL.c ****     *
 974:.\Generated_Source\PSoC4/CapSense_CSHL.c ****     * Parameters:
 975:.\Generated_Source\PSoC4/CapSense_CSHL.c ****     *  value:  Hysteresis value for widgets.
 976:.\Generated_Source\PSoC4/CapSense_CSHL.c ****     *  widget:  widget number
 977:.\Generated_Source\PSoC4/CapSense_CSHL.c ****     *
 978:.\Generated_Source\PSoC4/CapSense_CSHL.c ****     * Return Value:
 979:.\Generated_Source\PSoC4/CapSense_CSHL.c ****     *  None
 980:.\Generated_Source\PSoC4/CapSense_CSHL.c ****     *
 981:.\Generated_Source\PSoC4/CapSense_CSHL.c ****     * Global Variables:
 982:.\Generated_Source\PSoC4/CapSense_CSHL.c ****     *  CapSense_hysteresis[] - This array contains the hysteresis value for each widget.
 983:.\Generated_Source\PSoC4/CapSense_CSHL.c ****     *  CapSense_widgetNumberSld - structure with dynamic sliders' parameters.
 984:.\Generated_Source\PSoC4/CapSense_CSHL.c ****     *
 985:.\Generated_Source\PSoC4/CapSense_CSHL.c ****     * Side Effects:
 986:.\Generated_Source\PSoC4/CapSense_CSHL.c ****     *  None
 987:.\Generated_Source\PSoC4/CapSense_CSHL.c ****     *
 988:.\Generated_Source\PSoC4/CapSense_CSHL.c ****     *******************************************************************************/
 989:.\Generated_Source\PSoC4/CapSense_CSHL.c ****     void CapSense_SetFingerHysteresis(uint32 widget, uint16 value)
 990:.\Generated_Source\PSoC4/CapSense_CSHL.c ****     {
 991:.\Generated_Source\PSoC4/CapSense_CSHL.c ****         CapSense_hysteresis[widget] = value;
 992:.\Generated_Source\PSoC4/CapSense_CSHL.c ****     }
 993:.\Generated_Source\PSoC4/CapSense_CSHL.c **** 
 994:.\Generated_Source\PSoC4/CapSense_CSHL.c **** 
 995:.\Generated_Source\PSoC4/CapSense_CSHL.c ****     /*******************************************************************************
 996:.\Generated_Source\PSoC4/CapSense_CSHL.c ****     * Function Name: CapSense_SetNegativeNoiseThreshold
 997:.\Generated_Source\PSoC4/CapSense_CSHL.c ****     ********************************************************************************
 998:.\Generated_Source\PSoC4/CapSense_CSHL.c ****     *
 999:.\Generated_Source\PSoC4/CapSense_CSHL.c ****     * Summary:
1000:.\Generated_Source\PSoC4/CapSense_CSHL.c ****     *  This API sets the Negative Noise Threshold value of a widget
ARM GAS  C:\Users\ALEXAN~1\AppData\Local\Temp\ccCdetCh.s 			page 26


1001:.\Generated_Source\PSoC4/CapSense_CSHL.c ****     *
1002:.\Generated_Source\PSoC4/CapSense_CSHL.c ****     * Parameters:
1003:.\Generated_Source\PSoC4/CapSense_CSHL.c ****     *  value:  Negative Noise Threshold value for widgets.
1004:.\Generated_Source\PSoC4/CapSense_CSHL.c ****     *  widget: widget number
1005:.\Generated_Source\PSoC4/CapSense_CSHL.c ****     *
1006:.\Generated_Source\PSoC4/CapSense_CSHL.c ****     * Return Value:
1007:.\Generated_Source\PSoC4/CapSense_CSHL.c ****     *  None
1008:.\Generated_Source\PSoC4/CapSense_CSHL.c ****     *
1009:.\Generated_Source\PSoC4/CapSense_CSHL.c ****     * Global Variables:
1010:.\Generated_Source\PSoC4/CapSense_CSHL.c ****     *  CapSense_negativeNoiseThreshold  - This parameter specifies the negative
1011:.\Generated_Source\PSoC4/CapSense_CSHL.c ****     *   difference between the raw count and baseline levels for Baseline resetting to
1012:.\Generated_Source\PSoC4/CapSense_CSHL.c ****     *   the raw count level.
1013:.\Generated_Source\PSoC4/CapSense_CSHL.c ****     *
1014:.\Generated_Source\PSoC4/CapSense_CSHL.c ****     * Side Effects:
1015:.\Generated_Source\PSoC4/CapSense_CSHL.c ****     *  None
1016:.\Generated_Source\PSoC4/CapSense_CSHL.c ****     *
1017:.\Generated_Source\PSoC4/CapSense_CSHL.c ****     *******************************************************************************/
1018:.\Generated_Source\PSoC4/CapSense_CSHL.c ****     void CapSense_SetNegativeNoiseThreshold(uint32 widget, uint16 value)
1019:.\Generated_Source\PSoC4/CapSense_CSHL.c ****     {
1020:.\Generated_Source\PSoC4/CapSense_CSHL.c ****         CapSense_negativeNoiseThreshold[widget] = value;
1021:.\Generated_Source\PSoC4/CapSense_CSHL.c ****     }
1022:.\Generated_Source\PSoC4/CapSense_CSHL.c **** 
1023:.\Generated_Source\PSoC4/CapSense_CSHL.c **** 
1024:.\Generated_Source\PSoC4/CapSense_CSHL.c ****     /*******************************************************************************
1025:.\Generated_Source\PSoC4/CapSense_CSHL.c ****     * Function Name: CapSense_SetDebounce
1026:.\Generated_Source\PSoC4/CapSense_CSHL.c ****     ********************************************************************************
1027:.\Generated_Source\PSoC4/CapSense_CSHL.c ****     *
1028:.\Generated_Source\PSoC4/CapSense_CSHL.c ****     * Summary:
1029:.\Generated_Source\PSoC4/CapSense_CSHL.c ****     *  This API sets the debounce value for a widget.
1030:.\Generated_Source\PSoC4/CapSense_CSHL.c ****     *
1031:.\Generated_Source\PSoC4/CapSense_CSHL.c ****     * Parameters:
1032:.\Generated_Source\PSoC4/CapSense_CSHL.c ****     *  value:  Debounce value for widget.
1033:.\Generated_Source\PSoC4/CapSense_CSHL.c ****     *  widget: widget index.
1034:.\Generated_Source\PSoC4/CapSense_CSHL.c ****     *
1035:.\Generated_Source\PSoC4/CapSense_CSHL.c ****     * Return Value:
1036:.\Generated_Source\PSoC4/CapSense_CSHL.c ****     *  None
1037:.\Generated_Source\PSoC4/CapSense_CSHL.c ****     *
1038:.\Generated_Source\PSoC4/CapSense_CSHL.c ****     * Global Variables:
1039:.\Generated_Source\PSoC4/CapSense_CSHL.c ****     *  CapSense_debounce[] - This array contains the debounce value for each widget.
1040:.\Generated_Source\PSoC4/CapSense_CSHL.c ****     *  CapSense_widgetNumberSld - structure with dynamic sliders' parameters.
1041:.\Generated_Source\PSoC4/CapSense_CSHL.c ****     *
1042:.\Generated_Source\PSoC4/CapSense_CSHL.c ****     * Side Effects:
1043:.\Generated_Source\PSoC4/CapSense_CSHL.c ****     *  None
1044:.\Generated_Source\PSoC4/CapSense_CSHL.c ****     *
1045:.\Generated_Source\PSoC4/CapSense_CSHL.c ****     *******************************************************************************/
1046:.\Generated_Source\PSoC4/CapSense_CSHL.c ****     void CapSense_SetDebounce(uint32 widget, uint8 value)
1047:.\Generated_Source\PSoC4/CapSense_CSHL.c ****     {
1048:.\Generated_Source\PSoC4/CapSense_CSHL.c ****         CapSense_debounce[widget] = value;
1049:.\Generated_Source\PSoC4/CapSense_CSHL.c ****     }
1050:.\Generated_Source\PSoC4/CapSense_CSHL.c **** 
1051:.\Generated_Source\PSoC4/CapSense_CSHL.c **** 
1052:.\Generated_Source\PSoC4/CapSense_CSHL.c ****     /*******************************************************************************
1053:.\Generated_Source\PSoC4/CapSense_CSHL.c ****     * Function Name: CapSense_SetLowBaselineReset
1054:.\Generated_Source\PSoC4/CapSense_CSHL.c ****     ********************************************************************************
1055:.\Generated_Source\PSoC4/CapSense_CSHL.c ****     *
1056:.\Generated_Source\PSoC4/CapSense_CSHL.c ****     * Summary:
1057:.\Generated_Source\PSoC4/CapSense_CSHL.c ****     *  This API sets the low baseline reset threshold value for the sensor.
ARM GAS  C:\Users\ALEXAN~1\AppData\Local\Temp\ccCdetCh.s 			page 27


1058:.\Generated_Source\PSoC4/CapSense_CSHL.c ****     *
1059:.\Generated_Source\PSoC4/CapSense_CSHL.c ****     * Parameters:
1060:.\Generated_Source\PSoC4/CapSense_CSHL.c ****     *  value: low baseline reset threshold value.
1061:.\Generated_Source\PSoC4/CapSense_CSHL.c ****     *  sensor: Sensor index.
1062:.\Generated_Source\PSoC4/CapSense_CSHL.c ****     *
1063:.\Generated_Source\PSoC4/CapSense_CSHL.c ****     * Return Value:
1064:.\Generated_Source\PSoC4/CapSense_CSHL.c ****     *  None
1065:.\Generated_Source\PSoC4/CapSense_CSHL.c ****     *
1066:.\Generated_Source\PSoC4/CapSense_CSHL.c ****     * Global Variables:
1067:.\Generated_Source\PSoC4/CapSense_CSHL.c ****     *  CapSense_lowBaselineReset[] - This array contains the Baseline update
1068:.\Generated_Source\PSoC4/CapSense_CSHL.c ****     *  threshold value for each sensor.
1069:.\Generated_Source\PSoC4/CapSense_CSHL.c ****     *
1070:.\Generated_Source\PSoC4/CapSense_CSHL.c ****     * Side Effects:
1071:.\Generated_Source\PSoC4/CapSense_CSHL.c ****     *  None
1072:.\Generated_Source\PSoC4/CapSense_CSHL.c ****     *
1073:.\Generated_Source\PSoC4/CapSense_CSHL.c ****     *******************************************************************************/
1074:.\Generated_Source\PSoC4/CapSense_CSHL.c ****     void CapSense_SetLowBaselineReset(uint32 sensor, uint8 value)
1075:.\Generated_Source\PSoC4/CapSense_CSHL.c ****     {
1076:.\Generated_Source\PSoC4/CapSense_CSHL.c ****         CapSense_lowBaselineReset[sensor] = value;
1077:.\Generated_Source\PSoC4/CapSense_CSHL.c ****     }
1078:.\Generated_Source\PSoC4/CapSense_CSHL.c **** #endif /* (CapSense_TUNING_METHOD != CapSense__TUNING_NONE) */
1079:.\Generated_Source\PSoC4/CapSense_CSHL.c **** 
1080:.\Generated_Source\PSoC4/CapSense_CSHL.c **** 
1081:.\Generated_Source\PSoC4/CapSense_CSHL.c **** /*******************************************************************************
1082:.\Generated_Source\PSoC4/CapSense_CSHL.c **** * Function Name: CapSense_CheckIsSensorActive
1083:.\Generated_Source\PSoC4/CapSense_CSHL.c **** ********************************************************************************
1084:.\Generated_Source\PSoC4/CapSense_CSHL.c **** *
1085:.\Generated_Source\PSoC4/CapSense_CSHL.c **** * Summary:
1086:.\Generated_Source\PSoC4/CapSense_CSHL.c **** *  Compares the CapSense_sensorSignal[sensor] array element to the finger
1087:.\Generated_Source\PSoC4/CapSense_CSHL.c **** *  threshold of the widget it belongs to. The hysteresis and debounce are taken into
1088:.\Generated_Source\PSoC4/CapSense_CSHL.c **** *  account. The hysteresis is added or subtracted from the finger threshold
1089:.\Generated_Source\PSoC4/CapSense_CSHL.c **** *  based on whether the sensor is currently active.
1090:.\Generated_Source\PSoC4/CapSense_CSHL.c **** *  If the sensor is active, the threshold is lowered by the hysteresis amount.
1091:.\Generated_Source\PSoC4/CapSense_CSHL.c **** *  If the sensor is inactive, the threshold is raised by the hysteresis amount.
1092:.\Generated_Source\PSoC4/CapSense_CSHL.c **** *  The debounce counter is added to the sensor active transition.
1093:.\Generated_Source\PSoC4/CapSense_CSHL.c **** *  This function updates the CapSense_sensorOnMask[] array element.
1094:.\Generated_Source\PSoC4/CapSense_CSHL.c **** *
1095:.\Generated_Source\PSoC4/CapSense_CSHL.c **** * Parameters:
1096:.\Generated_Source\PSoC4/CapSense_CSHL.c **** *  sensor:  Sensor number.
1097:.\Generated_Source\PSoC4/CapSense_CSHL.c **** *
1098:.\Generated_Source\PSoC4/CapSense_CSHL.c **** * Return:
1099:.\Generated_Source\PSoC4/CapSense_CSHL.c **** *  Returns sensor state 1 if active, 0 if not active.
1100:.\Generated_Source\PSoC4/CapSense_CSHL.c **** *
1101:.\Generated_Source\PSoC4/CapSense_CSHL.c **** * Global Variables:
1102:.\Generated_Source\PSoC4/CapSense_CSHL.c **** *  CapSense_sensorSignal[] - used to store the difference between
1103:.\Generated_Source\PSoC4/CapSense_CSHL.c **** *  the current value of raw data and a previous value of the baseline.
1104:.\Generated_Source\PSoC4/CapSense_CSHL.c **** *  CapSense_debounceCounter[]   - used to store the current debounce
1105:.\Generated_Source\PSoC4/CapSense_CSHL.c **** *  counter of the sensor. the widget which have this parameter are buttons, matrix
1106:.\Generated_Source\PSoC4/CapSense_CSHL.c **** *  buttons, proximity, and guard. All other widgets don't have the  debounce parameter
1107:.\Generated_Source\PSoC4/CapSense_CSHL.c **** *  and use the last element of this array with value 0 (it means no debounce).
1108:.\Generated_Source\PSoC4/CapSense_CSHL.c **** *  CapSense_sensorOnMask[] - used to store the sensors on/off state.
1109:.\Generated_Source\PSoC4/CapSense_CSHL.c **** *  CapSense_sensorOnMask[0] contains the masked bits for sensors
1110:.\Generated_Source\PSoC4/CapSense_CSHL.c **** *   0 through 7 (sensor 0 is bit 0, sensor 1 is bit 1).
1111:.\Generated_Source\PSoC4/CapSense_CSHL.c **** *  CapSense_sensorEnableMask[1] contains the masked bits for
1112:.\Generated_Source\PSoC4/CapSense_CSHL.c **** *  sensors 8 through 15 (if needed), and so on.
1113:.\Generated_Source\PSoC4/CapSense_CSHL.c **** *  0 - sensor is inactive.
1114:.\Generated_Source\PSoC4/CapSense_CSHL.c **** *  1 - sensor is active.
ARM GAS  C:\Users\ALEXAN~1\AppData\Local\Temp\ccCdetCh.s 			page 28


1115:.\Generated_Source\PSoC4/CapSense_CSHL.c **** *
1116:.\Generated_Source\PSoC4/CapSense_CSHL.c **** * Side Effects:
1117:.\Generated_Source\PSoC4/CapSense_CSHL.c **** *  None
1118:.\Generated_Source\PSoC4/CapSense_CSHL.c **** *
1119:.\Generated_Source\PSoC4/CapSense_CSHL.c **** *******************************************************************************/
1120:.\Generated_Source\PSoC4/CapSense_CSHL.c **** uint32 CapSense_CheckIsSensorActive(uint32 sensor)
1121:.\Generated_Source\PSoC4/CapSense_CSHL.c **** {
 422              		.loc 1 1121 0
 423              		.cfi_startproc
 424              	.LVL38:
 425 0000 F0B5     		push	{r4, r5, r6, r7, lr}
 426              		.cfi_def_cfa_offset 20
 427              		.cfi_offset 4, -20
 428              		.cfi_offset 5, -16
 429              		.cfi_offset 6, -12
 430              		.cfi_offset 7, -8
 431              		.cfi_offset 14, -4
 432 0002 4746     		mov	r7, r8
 433 0004 80B4     		push	{r7}
 434              		.cfi_def_cfa_offset 24
 435              		.cfi_offset 8, -24
 436 0006 041C     		mov	r4, r0
1122:.\Generated_Source\PSoC4/CapSense_CSHL.c ****     uint8 widget;
1123:.\Generated_Source\PSoC4/CapSense_CSHL.c ****     uint8 debounce;
1124:.\Generated_Source\PSoC4/CapSense_CSHL.c ****     uint8 debounceIndex;
1125:.\Generated_Source\PSoC4/CapSense_CSHL.c **** 
1126:.\Generated_Source\PSoC4/CapSense_CSHL.c ****     uint16 fingerThreshold;
1127:.\Generated_Source\PSoC4/CapSense_CSHL.c ****     uint16 hysteresis;
1128:.\Generated_Source\PSoC4/CapSense_CSHL.c ****     
1129:.\Generated_Source\PSoC4/CapSense_CSHL.c **** 
1130:.\Generated_Source\PSoC4/CapSense_CSHL.c ****     /* Prepare to find debounce counter index */
1131:.\Generated_Source\PSoC4/CapSense_CSHL.c ****     widget = CapSense_widgetNumber[sensor];
 437              		.loc 1 1131 0
 438 0008 224B     		ldr	r3, .L43
 439 000a 1E5C     		ldrb	r6, [r3, r0]
1132:.\Generated_Source\PSoC4/CapSense_CSHL.c **** 
1133:.\Generated_Source\PSoC4/CapSense_CSHL.c ****     fingerThreshold = CapSense_fingerThreshold[widget];
 440              		.loc 1 1133 0
 441 000c 224A     		ldr	r2, .L43+4
 442 000e 7300     		lsl	r3, r6, #1
 443 0010 D318     		add	r3, r2, r3
 444 0012 9F89     		ldrh	r7, [r3, #12]
 445              	.LVL39:
1134:.\Generated_Source\PSoC4/CapSense_CSHL.c ****     hysteresis = CapSense_hysteresis[widget];
 446              		.loc 1 1134 0
 447 0014 9D8E     		ldrh	r5, [r3, #52]
 448              	.LVL40:
1135:.\Generated_Source\PSoC4/CapSense_CSHL.c ****     debounce = CapSense_debounce[widget];
 449              		.loc 1 1135 0
 450 0016 935D     		ldrb	r3, [r2, r6]
 451 0018 9846     		mov	r8, r3
 452              	.LVL41:
1136:.\Generated_Source\PSoC4/CapSense_CSHL.c **** 
1137:.\Generated_Source\PSoC4/CapSense_CSHL.c ****         debounceIndex = widget;
1138:.\Generated_Source\PSoC4/CapSense_CSHL.c **** 
1139:.\Generated_Source\PSoC4/CapSense_CSHL.c **** 
1140:.\Generated_Source\PSoC4/CapSense_CSHL.c ****     /* Was on */
ARM GAS  C:\Users\ALEXAN~1\AppData\Local\Temp\ccCdetCh.s 			page 29


1141:.\Generated_Source\PSoC4/CapSense_CSHL.c ****     if (0u != CapSense_GetBitValue(CapSense_sensorOnMask, sensor))
 453              		.loc 1 1141 0
 454 001a 2048     		ldr	r0, .L43+8
 455              	.LVL42:
 456 001c 4030     		add	r0, r0, #64
 457 001e 211C     		mov	r1, r4
 458 0020 FFF7FEFF 		bl	CapSense_GetBitValue
 459              	.LVL43:
 460 0024 0028     		cmp	r0, #0
 461 0026 11D0     		beq	.L39
1142:.\Generated_Source\PSoC4/CapSense_CSHL.c ****     {
1143:.\Generated_Source\PSoC4/CapSense_CSHL.c ****         /* Hysteresis minus */
1144:.\Generated_Source\PSoC4/CapSense_CSHL.c ****         if (CapSense_sensorSignal[sensor] < (fingerThreshold - hysteresis))
 462              		.loc 1 1144 0
 463 0028 6300     		lsl	r3, r4, #1
 464 002a 1C4A     		ldr	r2, .L43+8
 465 002c D318     		add	r3, r2, r3
 466 002e 1B8C     		ldrh	r3, [r3, #32]
 467 0030 7D1B     		sub	r5, r7, r5
 468              	.LVL44:
 469 0032 AB42     		cmp	r3, r5
 470 0034 23DA     		bge	.L40
1145:.\Generated_Source\PSoC4/CapSense_CSHL.c ****         {
1146:.\Generated_Source\PSoC4/CapSense_CSHL.c ****             CapSense_SetBitValue(CapSense_sensorOnMask, sensor, 0u);
 471              		.loc 1 1146 0
 472 0036 151C     		mov	r5, r2
 473 0038 101C     		mov	r0, r2
 474 003a 4030     		add	r0, r0, #64
 475 003c 211C     		mov	r1, r4
 476 003e 0022     		mov	r2, #0
 477 0040 FFF7FEFF 		bl	CapSense_SetBitValue
 478              	.LVL45:
1147:.\Generated_Source\PSoC4/CapSense_CSHL.c ****             /* Sensor inactive - reset Debounce counter */
1148:.\Generated_Source\PSoC4/CapSense_CSHL.c ****             CapSense_debounceCounter[debounceIndex] = debounce;
 479              		.loc 1 1148 0
 480 0044 3435     		add	r5, r5, #52
 481 0046 4346     		mov	r3, r8
 482 0048 AB55     		strb	r3, [r5, r6]
 483 004a 18E0     		b	.L40
 484              	.LVL46:
 485              	.L39:
1149:.\Generated_Source\PSoC4/CapSense_CSHL.c ****         }
1150:.\Generated_Source\PSoC4/CapSense_CSHL.c ****     }
1151:.\Generated_Source\PSoC4/CapSense_CSHL.c ****     else    /* Was off */
1152:.\Generated_Source\PSoC4/CapSense_CSHL.c ****     {
1153:.\Generated_Source\PSoC4/CapSense_CSHL.c ****         /* Hysteresis plus */
1154:.\Generated_Source\PSoC4/CapSense_CSHL.c ****         if (CapSense_sensorSignal[sensor] >= (fingerThreshold + hysteresis))
 486              		.loc 1 1154 0
 487 004c 6300     		lsl	r3, r4, #1
 488 004e 134A     		ldr	r2, .L43+8
 489 0050 D318     		add	r3, r2, r3
 490 0052 1B8C     		ldrh	r3, [r3, #32]
 491 0054 7D19     		add	r5, r7, r5
 492              	.LVL47:
 493 0056 AB42     		cmp	r3, r5
 494 0058 0DDB     		blt	.L41
1155:.\Generated_Source\PSoC4/CapSense_CSHL.c ****         {
ARM GAS  C:\Users\ALEXAN~1\AppData\Local\Temp\ccCdetCh.s 			page 30


1156:.\Generated_Source\PSoC4/CapSense_CSHL.c ****             CapSense_debounceCounter[debounceIndex]--;
 495              		.loc 1 1156 0
 496 005a 3432     		add	r2, r2, #52
 497 005c 935D     		ldrb	r3, [r2, r6]
 498 005e 013B     		sub	r3, r3, #1
 499 0060 DBB2     		uxtb	r3, r3
 500 0062 9355     		strb	r3, [r2, r6]
1157:.\Generated_Source\PSoC4/CapSense_CSHL.c ****             /* Sensor active, decrement debounce counter */
1158:.\Generated_Source\PSoC4/CapSense_CSHL.c ****             if(CapSense_debounceCounter[debounceIndex] == 0u)
 501              		.loc 1 1158 0
 502 0064 002B     		cmp	r3, #0
 503 0066 0AD1     		bne	.L40
1159:.\Generated_Source\PSoC4/CapSense_CSHL.c ****             {
1160:.\Generated_Source\PSoC4/CapSense_CSHL.c ****                 CapSense_SetBitValue(CapSense_sensorOnMask, sensor, 1u);
 504              		.loc 1 1160 0
 505 0068 0C48     		ldr	r0, .L43+8
 506 006a 4030     		add	r0, r0, #64
 507 006c 211C     		mov	r1, r4
 508 006e 0122     		mov	r2, #1
 509 0070 FFF7FEFF 		bl	CapSense_SetBitValue
 510              	.LVL48:
 511 0074 03E0     		b	.L40
 512              	.L41:
1161:.\Generated_Source\PSoC4/CapSense_CSHL.c ****             }
1162:.\Generated_Source\PSoC4/CapSense_CSHL.c ****         }
1163:.\Generated_Source\PSoC4/CapSense_CSHL.c ****         else
1164:.\Generated_Source\PSoC4/CapSense_CSHL.c ****         {
1165:.\Generated_Source\PSoC4/CapSense_CSHL.c ****             /* Sensor inactive - reset Debounce counter */
1166:.\Generated_Source\PSoC4/CapSense_CSHL.c ****             CapSense_debounceCounter[debounceIndex] = debounce;
 513              		.loc 1 1166 0
 514 0076 094B     		ldr	r3, .L43+8
 515 0078 3433     		add	r3, r3, #52
 516 007a 4246     		mov	r2, r8
 517 007c 9A55     		strb	r2, [r3, r6]
 518              	.L40:
1167:.\Generated_Source\PSoC4/CapSense_CSHL.c ****         }
1168:.\Generated_Source\PSoC4/CapSense_CSHL.c ****     }
1169:.\Generated_Source\PSoC4/CapSense_CSHL.c **** 
1170:.\Generated_Source\PSoC4/CapSense_CSHL.c ****     return ((uint32)((0u != CapSense_GetBitValue(CapSense_sensorOnMask, sensor)) ? 1u : 0u));
 519              		.loc 1 1170 0
 520 007e 0748     		ldr	r0, .L43+8
 521 0080 4030     		add	r0, r0, #64
 522 0082 211C     		mov	r1, r4
 523 0084 FFF7FEFF 		bl	CapSense_GetBitValue
 524              	.LVL49:
 525 0088 0028     		cmp	r0, #0
 526 008a 00D0     		beq	.L42
 527 008c 0120     		mov	r0, #1
 528              	.L42:
1171:.\Generated_Source\PSoC4/CapSense_CSHL.c **** }
 529              		.loc 1 1171 0 discriminator 4
 530              		@ sp needed
 531              	.LVL50:
 532              	.LVL51:
 533              	.LVL52:
 534              	.LVL53:
 535 008e 04BC     		pop	{r2}
ARM GAS  C:\Users\ALEXAN~1\AppData\Local\Temp\ccCdetCh.s 			page 31


 536 0090 9046     		mov	r8, r2
 537 0092 F0BD     		pop	{r4, r5, r6, r7, pc}
 538              	.L44:
 539              		.align	2
 540              	.L43:
 541 0094 00000000 		.word	CapSense_widgetNumber
 542 0098 00000000 		.word	.LANCHOR1
 543 009c 00000000 		.word	.LANCHOR0
 544              		.cfi_endproc
 545              	.LFE51:
 546              		.size	CapSense_CheckIsSensorActive, .-CapSense_CheckIsSensorActive
 547              		.section	.text.CapSense_CheckIsWidgetActive,"ax",%progbits
 548              		.align	2
 549              		.global	CapSense_CheckIsWidgetActive
 550              		.code	16
 551              		.thumb_func
 552              		.type	CapSense_CheckIsWidgetActive, %function
 553              	CapSense_CheckIsWidgetActive:
 554              	.LFB52:
1172:.\Generated_Source\PSoC4/CapSense_CSHL.c **** 
1173:.\Generated_Source\PSoC4/CapSense_CSHL.c **** 
1174:.\Generated_Source\PSoC4/CapSense_CSHL.c **** /*******************************************************************************
1175:.\Generated_Source\PSoC4/CapSense_CSHL.c **** * Function Name: CapSense_CheckIsWidgetActive
1176:.\Generated_Source\PSoC4/CapSense_CSHL.c **** ********************************************************************************
1177:.\Generated_Source\PSoC4/CapSense_CSHL.c **** *
1178:.\Generated_Source\PSoC4/CapSense_CSHL.c **** * Summary:
1179:.\Generated_Source\PSoC4/CapSense_CSHL.c **** *  Compares the CapSense_sensorSignal[] array element to the finger threshold of
1180:.\Generated_Source\PSoC4/CapSense_CSHL.c **** * the widget it belongs to. The hysteresis and debounce are taken into account.
1181:.\Generated_Source\PSoC4/CapSense_CSHL.c **** * The hysteresis is added or subtracted from the finger threshold based on whether
1182:.\Generated_Source\PSoC4/CapSense_CSHL.c **** *  the sensor is currently active. If the sensor is active, the threshold is
1183:.\Generated_Source\PSoC4/CapSense_CSHL.c **** *  lowered by the hysteresis amount. If the sensor is inactive, the threshold
1184:.\Generated_Source\PSoC4/CapSense_CSHL.c **** *  is raised by the hysteresis amount.
1185:.\Generated_Source\PSoC4/CapSense_CSHL.c **** * The debounce counter added to the sensor active transition.
1186:.\Generated_Source\PSoC4/CapSense_CSHL.c **** * This function updates CapSense_sensorOnMask[] array element
1187:.\Generated_Source\PSoC4/CapSense_CSHL.c **** *
1188:.\Generated_Source\PSoC4/CapSense_CSHL.c **** * Parameters:
1189:.\Generated_Source\PSoC4/CapSense_CSHL.c **** *  widget:  widget number.
1190:.\Generated_Source\PSoC4/CapSense_CSHL.c **** *
1191:.\Generated_Source\PSoC4/CapSense_CSHL.c **** * Return:
1192:.\Generated_Source\PSoC4/CapSense_CSHL.c **** *  Returns widget sensor state 1 if one or more sensors within widget is/are
1193:.\Generated_Source\PSoC4/CapSense_CSHL.c **** *  active, 0 if all sensors within widget are inactive.
1194:.\Generated_Source\PSoC4/CapSense_CSHL.c **** *
1195:.\Generated_Source\PSoC4/CapSense_CSHL.c **** * Global Variables:
1196:.\Generated_Source\PSoC4/CapSense_CSHL.c **** *  rawDataIndex[]: Contains the  1st sensor position in the widget
1197:.\Generated_Source\PSoC4/CapSense_CSHL.c **** *
1198:.\Generated_Source\PSoC4/CapSense_CSHL.c **** * Side Effects:
1199:.\Generated_Source\PSoC4/CapSense_CSHL.c **** *  None
1200:.\Generated_Source\PSoC4/CapSense_CSHL.c **** *
1201:.\Generated_Source\PSoC4/CapSense_CSHL.c **** *******************************************************************************/
1202:.\Generated_Source\PSoC4/CapSense_CSHL.c **** uint32 CapSense_CheckIsWidgetActive(uint32 widget)
1203:.\Generated_Source\PSoC4/CapSense_CSHL.c **** {
 555              		.loc 1 1203 0
 556              		.cfi_startproc
 557              	.LVL54:
 558 0000 70B5     		push	{r4, r5, r6, lr}
 559              		.cfi_def_cfa_offset 16
 560              		.cfi_offset 4, -16
ARM GAS  C:\Users\ALEXAN~1\AppData\Local\Temp\ccCdetCh.s 			page 32


 561              		.cfi_offset 5, -12
 562              		.cfi_offset 6, -8
 563              		.cfi_offset 14, -4
1204:.\Generated_Source\PSoC4/CapSense_CSHL.c ****     uint32 rawIndex = (uint32)CapSense_rawDataIndex[widget];
 564              		.loc 1 1204 0
 565 0002 094B     		ldr	r3, .L49
 566 0004 1A1C     		mov	r2, r3
 567 0006 4832     		add	r2, r2, #72
 568 0008 145C     		ldrb	r4, [r2, r0]
 569              	.LVL55:
1205:.\Generated_Source\PSoC4/CapSense_CSHL.c ****     uint32 numOfSensors = (uint32)CapSense_numberOfSensors[widget] + rawIndex;
 570              		.loc 1 1205 0
 571 000a 5433     		add	r3, r3, #84
 572 000c 1D5C     		ldrb	r5, [r3, r0]
 573 000e 2D19     		add	r5, r5, r4
 574              	.LVL56:
1206:.\Generated_Source\PSoC4/CapSense_CSHL.c ****     uint32 state = 0u;
 575              		.loc 1 1206 0
 576 0010 0026     		mov	r6, #0
 577              	.LVL57:
 578              	.L47:
1207:.\Generated_Source\PSoC4/CapSense_CSHL.c **** 
1208:.\Generated_Source\PSoC4/CapSense_CSHL.c ****     /* Check all sensors of widget */
1209:.\Generated_Source\PSoC4/CapSense_CSHL.c ****     do
1210:.\Generated_Source\PSoC4/CapSense_CSHL.c ****     {
1211:.\Generated_Source\PSoC4/CapSense_CSHL.c ****         if(CapSense_CheckIsSensorActive((uint32)rawIndex) != 0u)
 579              		.loc 1 1211 0
 580 0012 201C     		mov	r0, r4
 581 0014 FFF7FEFF 		bl	CapSense_CheckIsSensorActive
 582              	.LVL58:
 583 0018 0028     		cmp	r0, #0
 584 001a 00D0     		beq	.L46
1212:.\Generated_Source\PSoC4/CapSense_CSHL.c ****         {
1213:.\Generated_Source\PSoC4/CapSense_CSHL.c ****             state = CapSense_SENSOR_IS_ACTIVE;
 585              		.loc 1 1213 0
 586 001c 0126     		mov	r6, #1
 587              	.LVL59:
 588              	.L46:
1214:.\Generated_Source\PSoC4/CapSense_CSHL.c ****         }
1215:.\Generated_Source\PSoC4/CapSense_CSHL.c ****         rawIndex++;
 589              		.loc 1 1215 0
 590 001e 0134     		add	r4, r4, #1
 591              	.LVL60:
1216:.\Generated_Source\PSoC4/CapSense_CSHL.c ****     }
1217:.\Generated_Source\PSoC4/CapSense_CSHL.c ****     while(rawIndex < numOfSensors);
 592              		.loc 1 1217 0
 593 0020 AC42     		cmp	r4, r5
 594 0022 F6D3     		bcc	.L47
1218:.\Generated_Source\PSoC4/CapSense_CSHL.c **** 
1219:.\Generated_Source\PSoC4/CapSense_CSHL.c **** 
1220:.\Generated_Source\PSoC4/CapSense_CSHL.c **** 
1221:.\Generated_Source\PSoC4/CapSense_CSHL.c ****     return state;
1222:.\Generated_Source\PSoC4/CapSense_CSHL.c **** }
 595              		.loc 1 1222 0
 596 0024 301C     		mov	r0, r6
 597              		@ sp needed
 598              	.LVL61:
ARM GAS  C:\Users\ALEXAN~1\AppData\Local\Temp\ccCdetCh.s 			page 33


 599              	.LVL62:
 600              	.LVL63:
 601 0026 70BD     		pop	{r4, r5, r6, pc}
 602              	.L50:
 603              		.align	2
 604              	.L49:
 605 0028 00000000 		.word	.LANCHOR1
 606              		.cfi_endproc
 607              	.LFE52:
 608              		.size	CapSense_CheckIsWidgetActive, .-CapSense_CheckIsWidgetActive
 609              		.section	.text.CapSense_CheckIsAnyWidgetActive,"ax",%progbits
 610              		.align	2
 611              		.global	CapSense_CheckIsAnyWidgetActive
 612              		.code	16
 613              		.thumb_func
 614              		.type	CapSense_CheckIsAnyWidgetActive, %function
 615              	CapSense_CheckIsAnyWidgetActive:
 616              	.LFB53:
1223:.\Generated_Source\PSoC4/CapSense_CSHL.c **** 
1224:.\Generated_Source\PSoC4/CapSense_CSHL.c **** 
1225:.\Generated_Source\PSoC4/CapSense_CSHL.c **** /*******************************************************************************
1226:.\Generated_Source\PSoC4/CapSense_CSHL.c **** * Function Name: CapSense_CheckIsAnyWidgetActive
1227:.\Generated_Source\PSoC4/CapSense_CSHL.c **** ********************************************************************************
1228:.\Generated_Source\PSoC4/CapSense_CSHL.c **** *
1229:.\Generated_Source\PSoC4/CapSense_CSHL.c **** * Summary:
1230:.\Generated_Source\PSoC4/CapSense_CSHL.c **** *  Compares all the sensors of the CapSense_Signal[] array to their finger
1231:.\Generated_Source\PSoC4/CapSense_CSHL.c **** *  threshold. Calls CapSense_CheckIsWidgetActive() for each widget so
1232:.\Generated_Source\PSoC4/CapSense_CSHL.c **** *  the CapSense_sensorOnMask[] array is up to date after calling this
1233:.\Generated_Source\PSoC4/CapSense_CSHL.c **** *  function.
1234:.\Generated_Source\PSoC4/CapSense_CSHL.c **** *
1235:.\Generated_Source\PSoC4/CapSense_CSHL.c **** * Parameters:
1236:.\Generated_Source\PSoC4/CapSense_CSHL.c **** *  widget:  widget number.
1237:.\Generated_Source\PSoC4/CapSense_CSHL.c **** *
1238:.\Generated_Source\PSoC4/CapSense_CSHL.c **** * Return:
1239:.\Generated_Source\PSoC4/CapSense_CSHL.c **** *  Returns 1 if any widget is active, 0 none of widgets are active.
1240:.\Generated_Source\PSoC4/CapSense_CSHL.c **** *
1241:.\Generated_Source\PSoC4/CapSense_CSHL.c **** * Global Variables:
1242:.\Generated_Source\PSoC4/CapSense_CSHL.c **** *  None
1243:.\Generated_Source\PSoC4/CapSense_CSHL.c **** *
1244:.\Generated_Source\PSoC4/CapSense_CSHL.c **** * Side Effects:
1245:.\Generated_Source\PSoC4/CapSense_CSHL.c **** *  None
1246:.\Generated_Source\PSoC4/CapSense_CSHL.c **** *
1247:.\Generated_Source\PSoC4/CapSense_CSHL.c **** *******************************************************************************/
1248:.\Generated_Source\PSoC4/CapSense_CSHL.c **** uint32 CapSense_CheckIsAnyWidgetActive(void)
1249:.\Generated_Source\PSoC4/CapSense_CSHL.c **** {
 617              		.loc 1 1249 0
 618              		.cfi_startproc
 619 0000 38B5     		push	{r3, r4, r5, lr}
 620              		.cfi_def_cfa_offset 16
 621              		.cfi_offset 3, -16
 622              		.cfi_offset 4, -12
 623              		.cfi_offset 5, -8
 624              		.cfi_offset 14, -4
 625              	.LVL64:
1250:.\Generated_Source\PSoC4/CapSense_CSHL.c **** 
1251:.\Generated_Source\PSoC4/CapSense_CSHL.c ****         uint32 i;
1252:.\Generated_Source\PSoC4/CapSense_CSHL.c ****     uint32 state = 0u;
ARM GAS  C:\Users\ALEXAN~1\AppData\Local\Temp\ccCdetCh.s 			page 34


 626              		.loc 1 1252 0
 627 0002 0025     		mov	r5, #0
1253:.\Generated_Source\PSoC4/CapSense_CSHL.c ****     
1254:.\Generated_Source\PSoC4/CapSense_CSHL.c ****     for(i = 0u; i < CapSense_TOTAL_WIDGET_COUNT; i++)
 628              		.loc 1 1254 0
 629 0004 0024     		mov	r4, #0
 630 0006 06E0     		b	.L52
 631              	.LVL65:
 632              	.L54:
1255:.\Generated_Source\PSoC4/CapSense_CSHL.c ****     {
1256:.\Generated_Source\PSoC4/CapSense_CSHL.c ****         if (CapSense_CheckIsWidgetActive(i) != 0u)
 633              		.loc 1 1256 0
 634 0008 201C     		mov	r0, r4
 635 000a FFF7FEFF 		bl	CapSense_CheckIsWidgetActive
 636              	.LVL66:
 637 000e 0028     		cmp	r0, #0
 638 0010 00D0     		beq	.L53
1257:.\Generated_Source\PSoC4/CapSense_CSHL.c ****         {
1258:.\Generated_Source\PSoC4/CapSense_CSHL.c ****             state = CapSense_WIDGET_IS_ACTIVE;
 639              		.loc 1 1258 0
 640 0012 0125     		mov	r5, #1
 641              	.LVL67:
 642              	.L53:
1254:.\Generated_Source\PSoC4/CapSense_CSHL.c ****     {
 643              		.loc 1 1254 0 discriminator 2
 644 0014 0134     		add	r4, r4, #1
 645              	.LVL68:
 646              	.L52:
1254:.\Generated_Source\PSoC4/CapSense_CSHL.c ****     {
 647              		.loc 1 1254 0 is_stmt 0 discriminator 1
 648 0016 092C     		cmp	r4, #9
 649 0018 F6D9     		bls	.L54
1259:.\Generated_Source\PSoC4/CapSense_CSHL.c ****         }
1260:.\Generated_Source\PSoC4/CapSense_CSHL.c ****     }
1261:.\Generated_Source\PSoC4/CapSense_CSHL.c ****     
1262:.\Generated_Source\PSoC4/CapSense_CSHL.c **** 
1263:.\Generated_Source\PSoC4/CapSense_CSHL.c **** 
1264:.\Generated_Source\PSoC4/CapSense_CSHL.c ****     return state;
1265:.\Generated_Source\PSoC4/CapSense_CSHL.c **** }
 650              		.loc 1 1265 0 is_stmt 1
 651 001a 281C     		mov	r0, r5
 652              		@ sp needed
 653              	.LVL69:
 654              	.LVL70:
 655 001c 38BD     		pop	{r3, r4, r5, pc}
 656              		.cfi_endproc
 657              	.LFE53:
 658              		.size	CapSense_CheckIsAnyWidgetActive, .-CapSense_CheckIsAnyWidgetActive
 659 001e C046     		.section	.text.CapSense_EnableWidget,"ax",%progbits
 660              		.align	2
 661              		.global	CapSense_EnableWidget
 662              		.code	16
 663              		.thumb_func
 664              		.type	CapSense_EnableWidget, %function
 665              	CapSense_EnableWidget:
 666              	.LFB54:
1266:.\Generated_Source\PSoC4/CapSense_CSHL.c **** 
ARM GAS  C:\Users\ALEXAN~1\AppData\Local\Temp\ccCdetCh.s 			page 35


1267:.\Generated_Source\PSoC4/CapSense_CSHL.c **** 
1268:.\Generated_Source\PSoC4/CapSense_CSHL.c **** /*******************************************************************************
1269:.\Generated_Source\PSoC4/CapSense_CSHL.c **** * Function Name: CapSense_EnableWidget
1270:.\Generated_Source\PSoC4/CapSense_CSHL.c **** ********************************************************************************
1271:.\Generated_Source\PSoC4/CapSense_CSHL.c **** *
1272:.\Generated_Source\PSoC4/CapSense_CSHL.c **** * Summary:
1273:.\Generated_Source\PSoC4/CapSense_CSHL.c **** *  Enables all the widget elements (sensors) to the scanning process.
1274:.\Generated_Source\PSoC4/CapSense_CSHL.c **** *
1275:.\Generated_Source\PSoC4/CapSense_CSHL.c **** * Parameters:
1276:.\Generated_Source\PSoC4/CapSense_CSHL.c **** *  widget:  widget number.
1277:.\Generated_Source\PSoC4/CapSense_CSHL.c **** *
1278:.\Generated_Source\PSoC4/CapSense_CSHL.c **** * Return:
1279:.\Generated_Source\PSoC4/CapSense_CSHL.c **** *  None
1280:.\Generated_Source\PSoC4/CapSense_CSHL.c **** *
1281:.\Generated_Source\PSoC4/CapSense_CSHL.c **** * Global Variables:
1282:.\Generated_Source\PSoC4/CapSense_CSHL.c **** *  CapSense_sensorEnableMask[] - used to store the sensor scanning
1283:.\Generated_Source\PSoC4/CapSense_CSHL.c **** *  state.
1284:.\Generated_Source\PSoC4/CapSense_CSHL.c **** *  CapSense_sensorEnableMask[0] contains the masked bits for sensors
1285:.\Generated_Source\PSoC4/CapSense_CSHL.c **** *  0 through 7 (sensor 0 is bit 0, sensor 1 is bit 1).
1286:.\Generated_Source\PSoC4/CapSense_CSHL.c **** *  CapSense_sensorEnableMask[1] contains the masked bits for
1287:.\Generated_Source\PSoC4/CapSense_CSHL.c **** *  sensors 8 through 15 (if needed), and so on.
1288:.\Generated_Source\PSoC4/CapSense_CSHL.c **** *  0 - sensor doesn't scan by CapSense_ScanEnabledWidgets().
1289:.\Generated_Source\PSoC4/CapSense_CSHL.c **** *  1 - sensor scans by CapSense_ScanEnabledWidgets().
1290:.\Generated_Source\PSoC4/CapSense_CSHL.c **** *
1291:.\Generated_Source\PSoC4/CapSense_CSHL.c **** * Side Effects:
1292:.\Generated_Source\PSoC4/CapSense_CSHL.c **** *  None
1293:.\Generated_Source\PSoC4/CapSense_CSHL.c **** *
1294:.\Generated_Source\PSoC4/CapSense_CSHL.c **** *******************************************************************************/
1295:.\Generated_Source\PSoC4/CapSense_CSHL.c **** void CapSense_EnableWidget(uint32 widget)
1296:.\Generated_Source\PSoC4/CapSense_CSHL.c **** {
 667              		.loc 1 1296 0
 668              		.cfi_startproc
 669              	.LVL71:
 670 0000 38B5     		push	{r3, r4, r5, lr}
 671              		.cfi_def_cfa_offset 16
 672              		.cfi_offset 3, -16
 673              		.cfi_offset 4, -12
 674              		.cfi_offset 5, -8
 675              		.cfi_offset 14, -4
1297:.\Generated_Source\PSoC4/CapSense_CSHL.c **** 
1298:.\Generated_Source\PSoC4/CapSense_CSHL.c ****     uint8 rawIndex = CapSense_rawDataIndex[widget];
 676              		.loc 1 1298 0
 677 0002 094B     		ldr	r3, .L58
 678 0004 1A1C     		mov	r2, r3
 679 0006 4832     		add	r2, r2, #72
 680 0008 145C     		ldrb	r4, [r2, r0]
 681              	.LVL72:
1299:.\Generated_Source\PSoC4/CapSense_CSHL.c ****     uint8 numOfSensors = CapSense_numberOfSensors[widget] + rawIndex;
 682              		.loc 1 1299 0
 683 000a 5433     		add	r3, r3, #84
 684 000c 1D5C     		ldrb	r5, [r3, r0]
 685 000e 2D19     		add	r5, r5, r4
 686 0010 EDB2     		uxtb	r5, r5
 687              	.LVL73:
 688              	.L57:
1300:.\Generated_Source\PSoC4/CapSense_CSHL.c **** 
1301:.\Generated_Source\PSoC4/CapSense_CSHL.c ****     /* Enable all sensors of widget */
ARM GAS  C:\Users\ALEXAN~1\AppData\Local\Temp\ccCdetCh.s 			page 36


1302:.\Generated_Source\PSoC4/CapSense_CSHL.c ****     do
1303:.\Generated_Source\PSoC4/CapSense_CSHL.c ****     {
1304:.\Generated_Source\PSoC4/CapSense_CSHL.c ****         CapSense_SetBitValue(CapSense_sensorEnableMask, (uint32)rawIndex, 1u);
 689              		.loc 1 1304 0 discriminator 1
 690 0012 0648     		ldr	r0, .L58+4
 691 0014 211C     		mov	r1, r4
 692 0016 0122     		mov	r2, #1
 693 0018 FFF7FEFF 		bl	CapSense_SetBitValue
 694              	.LVL74:
1305:.\Generated_Source\PSoC4/CapSense_CSHL.c ****         rawIndex++;
 695              		.loc 1 1305 0 discriminator 1
 696 001c 0134     		add	r4, r4, #1
 697              	.LVL75:
 698 001e E4B2     		uxtb	r4, r4
 699              	.LVL76:
1306:.\Generated_Source\PSoC4/CapSense_CSHL.c ****     }
1307:.\Generated_Source\PSoC4/CapSense_CSHL.c ****     while(rawIndex < numOfSensors);
 700              		.loc 1 1307 0 discriminator 1
 701 0020 AC42     		cmp	r4, r5
 702 0022 F6D3     		bcc	.L57
1308:.\Generated_Source\PSoC4/CapSense_CSHL.c **** }
 703              		.loc 1 1308 0
 704              		@ sp needed
 705              	.LVL77:
 706              	.LVL78:
 707 0024 38BD     		pop	{r3, r4, r5, pc}
 708              	.L59:
 709 0026 C046     		.align	2
 710              	.L58:
 711 0028 00000000 		.word	.LANCHOR1
 712 002c 00000000 		.word	CapSense_sensorEnableMask
 713              		.cfi_endproc
 714              	.LFE54:
 715              		.size	CapSense_EnableWidget, .-CapSense_EnableWidget
 716              		.section	.text.CapSense_DisableWidget,"ax",%progbits
 717              		.align	2
 718              		.global	CapSense_DisableWidget
 719              		.code	16
 720              		.thumb_func
 721              		.type	CapSense_DisableWidget, %function
 722              	CapSense_DisableWidget:
 723              	.LFB55:
1309:.\Generated_Source\PSoC4/CapSense_CSHL.c **** 
1310:.\Generated_Source\PSoC4/CapSense_CSHL.c **** 
1311:.\Generated_Source\PSoC4/CapSense_CSHL.c **** /*******************************************************************************
1312:.\Generated_Source\PSoC4/CapSense_CSHL.c **** * Function Name: CapSense_DisableWidget
1313:.\Generated_Source\PSoC4/CapSense_CSHL.c **** ********************************************************************************
1314:.\Generated_Source\PSoC4/CapSense_CSHL.c **** *
1315:.\Generated_Source\PSoC4/CapSense_CSHL.c **** * Summary:
1316:.\Generated_Source\PSoC4/CapSense_CSHL.c **** *  Disables all the widget elements (sensors) from the scanning process.
1317:.\Generated_Source\PSoC4/CapSense_CSHL.c **** *
1318:.\Generated_Source\PSoC4/CapSense_CSHL.c **** * Parameters:
1319:.\Generated_Source\PSoC4/CapSense_CSHL.c **** *  widget:  widget number.
1320:.\Generated_Source\PSoC4/CapSense_CSHL.c **** *
1321:.\Generated_Source\PSoC4/CapSense_CSHL.c **** * Return:
1322:.\Generated_Source\PSoC4/CapSense_CSHL.c **** *  None
1323:.\Generated_Source\PSoC4/CapSense_CSHL.c **** *
ARM GAS  C:\Users\ALEXAN~1\AppData\Local\Temp\ccCdetCh.s 			page 37


1324:.\Generated_Source\PSoC4/CapSense_CSHL.c **** * Global Variables:
1325:.\Generated_Source\PSoC4/CapSense_CSHL.c **** *  CapSense_sensorEnableMask[] - used to store the sensor scanning
1326:.\Generated_Source\PSoC4/CapSense_CSHL.c **** *  state.
1327:.\Generated_Source\PSoC4/CapSense_CSHL.c **** *  CapSense_sensorEnableMask[0] contains the masked bits for sensors
1328:.\Generated_Source\PSoC4/CapSense_CSHL.c **** *  0 through 7 (sensor 0 is bit 0, sensor 1 is bit 1).
1329:.\Generated_Source\PSoC4/CapSense_CSHL.c **** *  CapSense_sensorEnableMask[1] contains the masked bits for
1330:.\Generated_Source\PSoC4/CapSense_CSHL.c **** *  sensors 8 through 15 (if needed), and so on.
1331:.\Generated_Source\PSoC4/CapSense_CSHL.c **** *  0 - sensor isn't scanned by CapSense_ScanEnabledWidgets().
1332:.\Generated_Source\PSoC4/CapSense_CSHL.c **** *  1 - sensor is scanned by CapSense_ScanEnabledWidgets().
1333:.\Generated_Source\PSoC4/CapSense_CSHL.c **** *
1334:.\Generated_Source\PSoC4/CapSense_CSHL.c **** * Side Effects:
1335:.\Generated_Source\PSoC4/CapSense_CSHL.c **** *  None
1336:.\Generated_Source\PSoC4/CapSense_CSHL.c **** *
1337:.\Generated_Source\PSoC4/CapSense_CSHL.c **** *******************************************************************************/
1338:.\Generated_Source\PSoC4/CapSense_CSHL.c **** void CapSense_DisableWidget(uint32 widget)
1339:.\Generated_Source\PSoC4/CapSense_CSHL.c **** {
 724              		.loc 1 1339 0
 725              		.cfi_startproc
 726              	.LVL79:
 727 0000 38B5     		push	{r3, r4, r5, lr}
 728              		.cfi_def_cfa_offset 16
 729              		.cfi_offset 3, -16
 730              		.cfi_offset 4, -12
 731              		.cfi_offset 5, -8
 732              		.cfi_offset 14, -4
1340:.\Generated_Source\PSoC4/CapSense_CSHL.c ****     uint8 rawIndex = CapSense_rawDataIndex[widget];
 733              		.loc 1 1340 0
 734 0002 094B     		ldr	r3, .L62
 735 0004 1A1C     		mov	r2, r3
 736 0006 4832     		add	r2, r2, #72
 737 0008 145C     		ldrb	r4, [r2, r0]
 738              	.LVL80:
1341:.\Generated_Source\PSoC4/CapSense_CSHL.c ****     uint8 numOfSensors = CapSense_numberOfSensors[widget] + rawIndex;
 739              		.loc 1 1341 0
 740 000a 5433     		add	r3, r3, #84
 741 000c 1D5C     		ldrb	r5, [r3, r0]
 742 000e 2D19     		add	r5, r5, r4
 743 0010 EDB2     		uxtb	r5, r5
 744              	.LVL81:
 745              	.L61:
1342:.\Generated_Source\PSoC4/CapSense_CSHL.c **** 
1343:.\Generated_Source\PSoC4/CapSense_CSHL.c ****     /* Disable all sensors of widget */
1344:.\Generated_Source\PSoC4/CapSense_CSHL.c ****     do
1345:.\Generated_Source\PSoC4/CapSense_CSHL.c ****     {
1346:.\Generated_Source\PSoC4/CapSense_CSHL.c **** 
1347:.\Generated_Source\PSoC4/CapSense_CSHL.c ****         CapSense_SetBitValue(CapSense_sensorEnableMask, (uint32)rawIndex, 0u);
 746              		.loc 1 1347 0 discriminator 1
 747 0012 0648     		ldr	r0, .L62+4
 748 0014 211C     		mov	r1, r4
 749 0016 0022     		mov	r2, #0
 750 0018 FFF7FEFF 		bl	CapSense_SetBitValue
 751              	.LVL82:
1348:.\Generated_Source\PSoC4/CapSense_CSHL.c ****         rawIndex++;
 752              		.loc 1 1348 0 discriminator 1
 753 001c 0134     		add	r4, r4, #1
 754              	.LVL83:
 755 001e E4B2     		uxtb	r4, r4
ARM GAS  C:\Users\ALEXAN~1\AppData\Local\Temp\ccCdetCh.s 			page 38


 756              	.LVL84:
1349:.\Generated_Source\PSoC4/CapSense_CSHL.c ****     }
1350:.\Generated_Source\PSoC4/CapSense_CSHL.c ****     while(rawIndex < numOfSensors);
 757              		.loc 1 1350 0 discriminator 1
 758 0020 AC42     		cmp	r4, r5
 759 0022 F6D3     		bcc	.L61
1351:.\Generated_Source\PSoC4/CapSense_CSHL.c **** }
 760              		.loc 1 1351 0
 761              		@ sp needed
 762              	.LVL85:
 763              	.LVL86:
 764 0024 38BD     		pop	{r3, r4, r5, pc}
 765              	.L63:
 766 0026 C046     		.align	2
 767              	.L62:
 768 0028 00000000 		.word	.LANCHOR1
 769 002c 00000000 		.word	CapSense_sensorEnableMask
 770              		.cfi_endproc
 771              	.LFE55:
 772              		.size	CapSense_DisableWidget, .-CapSense_DisableWidget
 773              		.section	.text.CapSense_IIR4Filter,"ax",%progbits
 774              		.align	2
 775              		.global	CapSense_IIR4Filter
 776              		.code	16
 777              		.thumb_func
 778              		.type	CapSense_IIR4Filter, %function
 779              	CapSense_IIR4Filter:
 780              	.LFB56:
1352:.\Generated_Source\PSoC4/CapSense_CSHL.c **** 
1353:.\Generated_Source\PSoC4/CapSense_CSHL.c **** 
1354:.\Generated_Source\PSoC4/CapSense_CSHL.c **** #if(CapSense_TOTAL_CENTROIDS_BASIC_COUNT)
1355:.\Generated_Source\PSoC4/CapSense_CSHL.c ****     /*******************************************************************************
1356:.\Generated_Source\PSoC4/CapSense_CSHL.c ****     * Function Name: CapSense_FindMaximum
1357:.\Generated_Source\PSoC4/CapSense_CSHL.c ****     ********************************************************************************
1358:.\Generated_Source\PSoC4/CapSense_CSHL.c ****     *
1359:.\Generated_Source\PSoC4/CapSense_CSHL.c ****     * Summary:
1360:.\Generated_Source\PSoC4/CapSense_CSHL.c ****     *  Finds the index of the maximum element within a defined centroid. Checks
1361:.\Generated_Source\PSoC4/CapSense_CSHL.c ****     *  CapSense_sensorSignal[] within a defined centroid and
1362:.\Generated_Source\PSoC4/CapSense_CSHL.c ****     *  returns the index of the maximum element. The values below the finger threshold are
1363:.\Generated_Source\PSoC4/CapSense_CSHL.c ****     *  ignored.
1364:.\Generated_Source\PSoC4/CapSense_CSHL.c ****     *  The centroid is defined by offset of the first element and a number of elements - count.
1365:.\Generated_Source\PSoC4/CapSense_CSHL.c ****     *  The diplexed centroid requires at least two consecutive elements above
1366:.\Generated_Source\PSoC4/CapSense_CSHL.c ****     *  FingerThreshold to find the index of the maximum element.
1367:.\Generated_Source\PSoC4/CapSense_CSHL.c ****     *
1368:.\Generated_Source\PSoC4/CapSense_CSHL.c ****     * Parameters:
1369:.\Generated_Source\PSoC4/CapSense_CSHL.c ****     *  offset:  Start index of centroid in CapSense_sensorSignal[] array.
1370:.\Generated_Source\PSoC4/CapSense_CSHL.c ****     *  count:   number of elements within centroid.
1371:.\Generated_Source\PSoC4/CapSense_CSHL.c ****     *  fingerThreshold:  Finger threshold.
1372:.\Generated_Source\PSoC4/CapSense_CSHL.c ****     *  diplex:   pointer to diplex table.
1373:.\Generated_Source\PSoC4/CapSense_CSHL.c ****     *
1374:.\Generated_Source\PSoC4/CapSense_CSHL.c ****     * Return:
1375:.\Generated_Source\PSoC4/CapSense_CSHL.c ****     *  Returns the index of the maximum element within a defined centroid.
1376:.\Generated_Source\PSoC4/CapSense_CSHL.c ****     *  If the index of the maximum element isn't found it returns 0xFF.
1377:.\Generated_Source\PSoC4/CapSense_CSHL.c ****     *
1378:.\Generated_Source\PSoC4/CapSense_CSHL.c ****     * Global Variables:
1379:.\Generated_Source\PSoC4/CapSense_CSHL.c ****     *  CapSense_startOfSlider[] - contains the index of the first slider element
1380:.\Generated_Source\PSoC4/CapSense_CSHL.c ****     *
ARM GAS  C:\Users\ALEXAN~1\AppData\Local\Temp\ccCdetCh.s 			page 39


1381:.\Generated_Source\PSoC4/CapSense_CSHL.c ****     * Side Effects:
1382:.\Generated_Source\PSoC4/CapSense_CSHL.c ****     *  None
1383:.\Generated_Source\PSoC4/CapSense_CSHL.c ****     *
1384:.\Generated_Source\PSoC4/CapSense_CSHL.c ****     *******************************************************************************/
1385:.\Generated_Source\PSoC4/CapSense_CSHL.c ****     #if (CapSense_IS_DIPLEX_SLIDER)
1386:.\Generated_Source\PSoC4/CapSense_CSHL.c ****         uint8 CapSense_FindMaximum(uint8 offset, uint8 count, uint16 fingerThreshold, const uint8 *
1387:.\Generated_Source\PSoC4/CapSense_CSHL.c ****     #else
1388:.\Generated_Source\PSoC4/CapSense_CSHL.c ****         uint8 CapSense_FindMaximum(uint8 offset, uint8 count, uint16 fingerThreshold)
1389:.\Generated_Source\PSoC4/CapSense_CSHL.c ****     #endif /* (CapSense_IS_DIPLEX_SLIDER) */
1390:.\Generated_Source\PSoC4/CapSense_CSHL.c ****     {
1391:.\Generated_Source\PSoC4/CapSense_CSHL.c ****         uint8 i;
1392:.\Generated_Source\PSoC4/CapSense_CSHL.c ****         #if (CapSense_IS_DIPLEX_SLIDER)
1393:.\Generated_Source\PSoC4/CapSense_CSHL.c ****             uint8 curPos = 0u;
1394:.\Generated_Source\PSoC4/CapSense_CSHL.c ****             /* No centroid at Start */
1395:.\Generated_Source\PSoC4/CapSense_CSHL.c ****             uint8 curCntrdSize = 0u;
1396:.\Generated_Source\PSoC4/CapSense_CSHL.c ****             uint8 curCtrdStartPos = CapSense_MAXIMUM_CENTROID;
1397:.\Generated_Source\PSoC4/CapSense_CSHL.c ****             /* Biggest centroid is zero */
1398:.\Generated_Source\PSoC4/CapSense_CSHL.c ****             uint8 biggestCtrdSize = 0u;
1399:.\Generated_Source\PSoC4/CapSense_CSHL.c ****             uint8 biggestCtrdStartPos = 0u;
1400:.\Generated_Source\PSoC4/CapSense_CSHL.c ****         #endif /* (CapSense_IS_DIPLEX_SLIDER) */
1401:.\Generated_Source\PSoC4/CapSense_CSHL.c ****         uint8 maximum = CapSense_MAXIMUM_CENTROID;
1402:.\Generated_Source\PSoC4/CapSense_CSHL.c **** 
1403:.\Generated_Source\PSoC4/CapSense_CSHL.c ****         uint16 temp = 0u;
1404:.\Generated_Source\PSoC4/CapSense_CSHL.c ****         uint16 *startOfSlider = &CapSense_sensorSignal[offset];
1405:.\Generated_Source\PSoC4/CapSense_CSHL.c **** 
1406:.\Generated_Source\PSoC4/CapSense_CSHL.c ****         #if (CapSense_IS_DIPLEX_SLIDER)
1407:.\Generated_Source\PSoC4/CapSense_CSHL.c ****             if(diplex != 0u)
1408:.\Generated_Source\PSoC4/CapSense_CSHL.c ****             {
1409:.\Generated_Source\PSoC4/CapSense_CSHL.c ****                 /* Initialize */
1410:.\Generated_Source\PSoC4/CapSense_CSHL.c ****                 i = 0u;
1411:.\Generated_Source\PSoC4/CapSense_CSHL.c **** 
1412:.\Generated_Source\PSoC4/CapSense_CSHL.c ****                 /* Make slider x2 as Diplexed */
1413:.\Generated_Source\PSoC4/CapSense_CSHL.c ****                 count <<= 1u;
1414:.\Generated_Source\PSoC4/CapSense_CSHL.c ****                 while(1u)
1415:.\Generated_Source\PSoC4/CapSense_CSHL.c ****                 {
1416:.\Generated_Source\PSoC4/CapSense_CSHL.c ****                     if (startOfSlider[curPos] > 0u)    /* Looking for centroids */
1417:.\Generated_Source\PSoC4/CapSense_CSHL.c ****                     {
1418:.\Generated_Source\PSoC4/CapSense_CSHL.c ****                         if (curCtrdStartPos == CapSense_MAXIMUM_CENTROID)
1419:.\Generated_Source\PSoC4/CapSense_CSHL.c ****                         {
1420:.\Generated_Source\PSoC4/CapSense_CSHL.c ****                             /* Start of centroid */
1421:.\Generated_Source\PSoC4/CapSense_CSHL.c ****                             curCtrdStartPos = i;
1422:.\Generated_Source\PSoC4/CapSense_CSHL.c ****                             curCntrdSize++;
1423:.\Generated_Source\PSoC4/CapSense_CSHL.c ****                         }
1424:.\Generated_Source\PSoC4/CapSense_CSHL.c ****                         else
1425:.\Generated_Source\PSoC4/CapSense_CSHL.c ****                         {
1426:.\Generated_Source\PSoC4/CapSense_CSHL.c ****                             curCntrdSize++;
1427:.\Generated_Source\PSoC4/CapSense_CSHL.c ****                         }
1428:.\Generated_Source\PSoC4/CapSense_CSHL.c ****                     }
1429:.\Generated_Source\PSoC4/CapSense_CSHL.c ****                     else   /* Select biggest and indicate zero start */
1430:.\Generated_Source\PSoC4/CapSense_CSHL.c ****                     {
1431:.\Generated_Source\PSoC4/CapSense_CSHL.c ****                         if(curCntrdSize > 0u)
1432:.\Generated_Source\PSoC4/CapSense_CSHL.c ****                         {
1433:.\Generated_Source\PSoC4/CapSense_CSHL.c ****                             /* We are at the end of current */
1434:.\Generated_Source\PSoC4/CapSense_CSHL.c ****                             if(curCntrdSize > biggestCtrdSize)
1435:.\Generated_Source\PSoC4/CapSense_CSHL.c ****                             {
1436:.\Generated_Source\PSoC4/CapSense_CSHL.c ****                                 biggestCtrdSize = curCntrdSize;
1437:.\Generated_Source\PSoC4/CapSense_CSHL.c ****                                 biggestCtrdStartPos = curCtrdStartPos;
ARM GAS  C:\Users\ALEXAN~1\AppData\Local\Temp\ccCdetCh.s 			page 40


1438:.\Generated_Source\PSoC4/CapSense_CSHL.c ****                             }
1439:.\Generated_Source\PSoC4/CapSense_CSHL.c **** 
1440:.\Generated_Source\PSoC4/CapSense_CSHL.c ****                             curCntrdSize = 0u;
1441:.\Generated_Source\PSoC4/CapSense_CSHL.c ****                             curCtrdStartPos = CapSense_MAXIMUM_CENTROID;
1442:.\Generated_Source\PSoC4/CapSense_CSHL.c ****                         }
1443:.\Generated_Source\PSoC4/CapSense_CSHL.c ****                     }
1444:.\Generated_Source\PSoC4/CapSense_CSHL.c **** 
1445:.\Generated_Source\PSoC4/CapSense_CSHL.c ****                     i++;
1446:.\Generated_Source\PSoC4/CapSense_CSHL.c ****                     curPos = diplex[i];
1447:.\Generated_Source\PSoC4/CapSense_CSHL.c ****                     if(i == count)
1448:.\Generated_Source\PSoC4/CapSense_CSHL.c ****                     {
1449:.\Generated_Source\PSoC4/CapSense_CSHL.c ****                         break;
1450:.\Generated_Source\PSoC4/CapSense_CSHL.c ****                     }
1451:.\Generated_Source\PSoC4/CapSense_CSHL.c ****                 }
1452:.\Generated_Source\PSoC4/CapSense_CSHL.c **** 
1453:.\Generated_Source\PSoC4/CapSense_CSHL.c ****                     /* Find biggest centroid if two are same size, last one wins
1454:.\Generated_Source\PSoC4/CapSense_CSHL.c ****                        We are at the end of current */
1455:.\Generated_Source\PSoC4/CapSense_CSHL.c ****                 if (curCntrdSize >= biggestCtrdSize)
1456:.\Generated_Source\PSoC4/CapSense_CSHL.c ****                 {
1457:.\Generated_Source\PSoC4/CapSense_CSHL.c ****                     biggestCtrdSize = curCntrdSize;
1458:.\Generated_Source\PSoC4/CapSense_CSHL.c ****                     biggestCtrdStartPos = curCtrdStartPos;
1459:.\Generated_Source\PSoC4/CapSense_CSHL.c ****                 }
1460:.\Generated_Source\PSoC4/CapSense_CSHL.c ****             }
1461:.\Generated_Source\PSoC4/CapSense_CSHL.c ****             else
1462:.\Generated_Source\PSoC4/CapSense_CSHL.c ****             {
1463:.\Generated_Source\PSoC4/CapSense_CSHL.c ****                 /* Without diplexing */
1464:.\Generated_Source\PSoC4/CapSense_CSHL.c ****                 biggestCtrdSize = count;
1465:.\Generated_Source\PSoC4/CapSense_CSHL.c ****             }
1466:.\Generated_Source\PSoC4/CapSense_CSHL.c **** 
1467:.\Generated_Source\PSoC4/CapSense_CSHL.c **** 
1468:.\Generated_Source\PSoC4/CapSense_CSHL.c ****             /* Check centroid size */
1469:.\Generated_Source\PSoC4/CapSense_CSHL.c ****             #if (CapSense_IS_NON_DIPLEX_SLIDER)
1470:.\Generated_Source\PSoC4/CapSense_CSHL.c ****                 if((biggestCtrdSize >= 2u) || ((biggestCtrdSize == 1u) && (diplex == 0u)))
1471:.\Generated_Source\PSoC4/CapSense_CSHL.c ****             #else
1472:.\Generated_Source\PSoC4/CapSense_CSHL.c ****                 if(biggestCtrdSize >= 2u)
1473:.\Generated_Source\PSoC4/CapSense_CSHL.c ****             #endif /* (CapSense_IS_NON_DIPLEX_SLIDER) */
1474:.\Generated_Source\PSoC4/CapSense_CSHL.c ****                 {
1475:.\Generated_Source\PSoC4/CapSense_CSHL.c ****                     for (i = biggestCtrdStartPos; i < (biggestCtrdStartPos + biggestCtrdSize); i++)
1476:.\Generated_Source\PSoC4/CapSense_CSHL.c ****                     {
1477:.\Generated_Source\PSoC4/CapSense_CSHL.c ****                         #if (CapSense_IS_DIPLEX_SLIDER && CapSense_IS_NON_DIPLEX_SLIDER)
1478:.\Generated_Source\PSoC4/CapSense_CSHL.c ****                             if (diplex == 0u)
1479:.\Generated_Source\PSoC4/CapSense_CSHL.c ****                             {
1480:.\Generated_Source\PSoC4/CapSense_CSHL.c ****                                 curPos = i;
1481:.\Generated_Source\PSoC4/CapSense_CSHL.c ****                             }
1482:.\Generated_Source\PSoC4/CapSense_CSHL.c ****                             else
1483:.\Generated_Source\PSoC4/CapSense_CSHL.c ****                             {
1484:.\Generated_Source\PSoC4/CapSense_CSHL.c ****                                 curPos = diplex[i];
1485:.\Generated_Source\PSoC4/CapSense_CSHL.c ****                             }
1486:.\Generated_Source\PSoC4/CapSense_CSHL.c ****                         #elif (CapSense_IS_DIPLEX_SLIDER)
1487:.\Generated_Source\PSoC4/CapSense_CSHL.c ****                             curPos = diplex[i];
1488:.\Generated_Source\PSoC4/CapSense_CSHL.c ****                         #endif /* (CapSense_IS_DIPLEX_SLIDER && CapSense_IS_NON_DIPLEX_SLIDER) */
1489:.\Generated_Source\PSoC4/CapSense_CSHL.c ****                         /* Looking for greater element within centroid */
1490:.\Generated_Source\PSoC4/CapSense_CSHL.c ****                         if(startOfSlider[curPos] > fingerThreshold)
1491:.\Generated_Source\PSoC4/CapSense_CSHL.c ****                         {
1492:.\Generated_Source\PSoC4/CapSense_CSHL.c ****                             if(startOfSlider[curPos] > temp)
1493:.\Generated_Source\PSoC4/CapSense_CSHL.c ****                             {
1494:.\Generated_Source\PSoC4/CapSense_CSHL.c ****                                 maximum = i;
ARM GAS  C:\Users\ALEXAN~1\AppData\Local\Temp\ccCdetCh.s 			page 41


1495:.\Generated_Source\PSoC4/CapSense_CSHL.c ****                                 temp = startOfSlider[curPos];
1496:.\Generated_Source\PSoC4/CapSense_CSHL.c ****                             }
1497:.\Generated_Source\PSoC4/CapSense_CSHL.c ****                         }
1498:.\Generated_Source\PSoC4/CapSense_CSHL.c ****                     }
1499:.\Generated_Source\PSoC4/CapSense_CSHL.c ****                 }
1500:.\Generated_Source\PSoC4/CapSense_CSHL.c ****         #else
1501:.\Generated_Source\PSoC4/CapSense_CSHL.c ****             for (i = 0u; i < count; i++)
1502:.\Generated_Source\PSoC4/CapSense_CSHL.c ****             {
1503:.\Generated_Source\PSoC4/CapSense_CSHL.c ****                 /* Looking for greater element within centroid */
1504:.\Generated_Source\PSoC4/CapSense_CSHL.c ****                 if(startOfSlider[i] > fingerThreshold)
1505:.\Generated_Source\PSoC4/CapSense_CSHL.c ****                 {
1506:.\Generated_Source\PSoC4/CapSense_CSHL.c ****                     if(startOfSlider[i] > temp)
1507:.\Generated_Source\PSoC4/CapSense_CSHL.c ****                     {
1508:.\Generated_Source\PSoC4/CapSense_CSHL.c ****                         maximum = i;
1509:.\Generated_Source\PSoC4/CapSense_CSHL.c ****                         temp = startOfSlider[i];
1510:.\Generated_Source\PSoC4/CapSense_CSHL.c ****                     }
1511:.\Generated_Source\PSoC4/CapSense_CSHL.c ****                 }
1512:.\Generated_Source\PSoC4/CapSense_CSHL.c ****             }
1513:.\Generated_Source\PSoC4/CapSense_CSHL.c ****         #endif /* (CapSense_IS_DIPLEX_SLIDER) */
1514:.\Generated_Source\PSoC4/CapSense_CSHL.c ****         return (maximum);
1515:.\Generated_Source\PSoC4/CapSense_CSHL.c ****     }
1516:.\Generated_Source\PSoC4/CapSense_CSHL.c **** 
1517:.\Generated_Source\PSoC4/CapSense_CSHL.c **** 
1518:.\Generated_Source\PSoC4/CapSense_CSHL.c ****     /*******************************************************************************
1519:.\Generated_Source\PSoC4/CapSense_CSHL.c ****     * Function Name: CapSense_CalcCentroid
1520:.\Generated_Source\PSoC4/CapSense_CSHL.c ****     ********************************************************************************
1521:.\Generated_Source\PSoC4/CapSense_CSHL.c ****     *
1522:.\Generated_Source\PSoC4/CapSense_CSHL.c ****     * Summary:
1523:.\Generated_Source\PSoC4/CapSense_CSHL.c ****     *  Returns a position value calculated according to the index of the maximum element and API
1524:.\Generated_Source\PSoC4/CapSense_CSHL.c ****     *  resolution.
1525:.\Generated_Source\PSoC4/CapSense_CSHL.c ****     *
1526:.\Generated_Source\PSoC4/CapSense_CSHL.c ****     * Parameters:
1527:.\Generated_Source\PSoC4/CapSense_CSHL.c ****     *  type:  widget type.
1528:.\Generated_Source\PSoC4/CapSense_CSHL.c ****     *  diplex:  pointer to diplex table.
1529:.\Generated_Source\PSoC4/CapSense_CSHL.c ****     *  maximum:  Index of maximum element within centroid.
1530:.\Generated_Source\PSoC4/CapSense_CSHL.c ****     *  offset:   Start index of centroid in CapSense_sensorSignal[] array.
1531:.\Generated_Source\PSoC4/CapSense_CSHL.c ****     *  count:    Number of elements within centroid.
1532:.\Generated_Source\PSoC4/CapSense_CSHL.c ****     *  resolution:  multiplicator calculated according to centroid type and
1533:.\Generated_Source\PSoC4/CapSense_CSHL.c ****     *  API resolution.
1534:.\Generated_Source\PSoC4/CapSense_CSHL.c ****     *  noiseThreshold:  Noise threshold.
1535:.\Generated_Source\PSoC4/CapSense_CSHL.c ****     *
1536:.\Generated_Source\PSoC4/CapSense_CSHL.c ****     * Return:
1537:.\Generated_Source\PSoC4/CapSense_CSHL.c ****     *  Returns a position value of the slider.
1538:.\Generated_Source\PSoC4/CapSense_CSHL.c ****     *
1539:.\Generated_Source\PSoC4/CapSense_CSHL.c ****     * Side Effects:
1540:.\Generated_Source\PSoC4/CapSense_CSHL.c ****     *  None
1541:.\Generated_Source\PSoC4/CapSense_CSHL.c ****     *
1542:.\Generated_Source\PSoC4/CapSense_CSHL.c ****     *******************************************************************************/
1543:.\Generated_Source\PSoC4/CapSense_CSHL.c **** #if (CapSense_TOTAL_TRACKPAD_GESTURES_COUNT > 0u)
1544:.\Generated_Source\PSoC4/CapSense_CSHL.c ****     uint8 CapSense_CalcCentroid(uint8 maximum, uint8 offset,
1545:.\Generated_Source\PSoC4/CapSense_CSHL.c ****                                         uint8 count, uint32 resolution, uint16 noiseThreshold)
1546:.\Generated_Source\PSoC4/CapSense_CSHL.c **** #else
1547:.\Generated_Source\PSoC4/CapSense_CSHL.c ****     uint8 CapSense_CalcCentroid(uint8 maximum, uint8 offset,
1548:.\Generated_Source\PSoC4/CapSense_CSHL.c ****                                         uint8 count, uint16 resolution, uint16 noiseThreshold)
1549:.\Generated_Source\PSoC4/CapSense_CSHL.c **** #endif /* (CapSense_TOTAL_TRACKPAD_GESTURES_COUNT > 0u) */
1550:.\Generated_Source\PSoC4/CapSense_CSHL.c ****     {
1551:.\Generated_Source\PSoC4/CapSense_CSHL.c ****         #if ((CapSense_TOTAL_LINEAR_SLIDERS_COUNT > 0u) || (CapSense_TOTAL_TOUCH_PADS_BASIC_COUNT >
ARM GAS  C:\Users\ALEXAN~1\AppData\Local\Temp\ccCdetCh.s 			page 42


1552:.\Generated_Source\PSoC4/CapSense_CSHL.c ****             uint8 posPrev;
1553:.\Generated_Source\PSoC4/CapSense_CSHL.c ****             uint8 posNext;
1554:.\Generated_Source\PSoC4/CapSense_CSHL.c ****         #endif /* ((CapSense_TOTAL_LINEAR_SLIDERS_COUNT>0u) || (CapSense_TOTAL_TOUCH_PADS_BASIC_COU
1555:.\Generated_Source\PSoC4/CapSense_CSHL.c **** 
1556:.\Generated_Source\PSoC4/CapSense_CSHL.c ****         /* Helps during centroid calculation */
1557:.\Generated_Source\PSoC4/CapSense_CSHL.c ****         #if (CapSense_TOTAL_CENTROIDS_BASIC_COUNT)
1558:.\Generated_Source\PSoC4/CapSense_CSHL.c ****             static uint16 CapSense_centroid[3u];
1559:.\Generated_Source\PSoC4/CapSense_CSHL.c ****         #endif  /* (CapSense_TOTAL_CENTROIDS_BASIC_COUNT) */
1560:.\Generated_Source\PSoC4/CapSense_CSHL.c **** 
1561:.\Generated_Source\PSoC4/CapSense_CSHL.c ****         #if (CapSense_IS_DIPLEX_SLIDER)
1562:.\Generated_Source\PSoC4/CapSense_CSHL.c ****             uint8 pos;
1563:.\Generated_Source\PSoC4/CapSense_CSHL.c ****         #endif /* (CapSense_IS_DIPLEX_SLIDER) */
1564:.\Generated_Source\PSoC4/CapSense_CSHL.c **** 
1565:.\Generated_Source\PSoC4/CapSense_CSHL.c ****         uint8 position;
1566:.\Generated_Source\PSoC4/CapSense_CSHL.c ****         uint32 numerator;
1567:.\Generated_Source\PSoC4/CapSense_CSHL.c ****         int32 denominator;
1568:.\Generated_Source\PSoC4/CapSense_CSHL.c **** 
1569:.\Generated_Source\PSoC4/CapSense_CSHL.c ****         uint16  *startOfSlider = &CapSense_sensorSignal[offset];
1570:.\Generated_Source\PSoC4/CapSense_CSHL.c **** 
1571:.\Generated_Source\PSoC4/CapSense_CSHL.c ****         #if ((CapSense_TOTAL_LINEAR_SLIDERS_COUNT > 0u) || (CapSense_TOTAL_TOUCH_PADS_BASIC_COUNT >
1572:.\Generated_Source\PSoC4/CapSense_CSHL.c ****             posPrev = 0u;
1573:.\Generated_Source\PSoC4/CapSense_CSHL.c ****         #endif /* ((CapSense_TOTAL_LINEAR_SLIDERS_COUNT>0u) || (CapSense_TOTAL_TOUCH_PADS_BASIC_COU
1574:.\Generated_Source\PSoC4/CapSense_CSHL.c **** 
1575:.\Generated_Source\PSoC4/CapSense_CSHL.c ****         #if (CapSense_ADD_SLIDER_TYPE)
1576:.\Generated_Source\PSoC4/CapSense_CSHL.c ****             if(type == CapSense_TYPE_RADIAL_SLIDER)
1577:.\Generated_Source\PSoC4/CapSense_CSHL.c ****             {
1578:.\Generated_Source\PSoC4/CapSense_CSHL.c ****         #endif /* (CapSense_ADD_SLIDER_TYPE) */
1579:.\Generated_Source\PSoC4/CapSense_CSHL.c **** 
1580:.\Generated_Source\PSoC4/CapSense_CSHL.c ****             #if (CapSense_TOTAL_RADIAL_SLIDERS_COUNT > 0u)
1581:.\Generated_Source\PSoC4/CapSense_CSHL.c ****                 /* Copy Signal to the centroid array */
1582:.\Generated_Source\PSoC4/CapSense_CSHL.c ****                 CapSense_centroid[CapSense_POS] = startOfSlider[maximum];
1583:.\Generated_Source\PSoC4/CapSense_CSHL.c **** 
1584:.\Generated_Source\PSoC4/CapSense_CSHL.c ****                 /* Check borders for ROTARY Slider */
1585:.\Generated_Source\PSoC4/CapSense_CSHL.c ****                 if (maximum == 0u)                   /* Start of centroid */
1586:.\Generated_Source\PSoC4/CapSense_CSHL.c ****                 {
1587:.\Generated_Source\PSoC4/CapSense_CSHL.c ****                     CapSense_centroid[CapSense_POS_PREV] = startOfSlider[count - 1u];
1588:.\Generated_Source\PSoC4/CapSense_CSHL.c ****                     CapSense_centroid[CapSense_POS_NEXT] = startOfSlider[1u];
1589:.\Generated_Source\PSoC4/CapSense_CSHL.c ****                 }
1590:.\Generated_Source\PSoC4/CapSense_CSHL.c ****                 else if (maximum == (count - 1u))    /* End of centroid */
1591:.\Generated_Source\PSoC4/CapSense_CSHL.c ****                 {
1592:.\Generated_Source\PSoC4/CapSense_CSHL.c ****                     CapSense_centroid[CapSense_POS_PREV] = startOfSlider[maximum - 1u];
1593:.\Generated_Source\PSoC4/CapSense_CSHL.c ****                     CapSense_centroid[CapSense_POS_NEXT] = startOfSlider[0u];
1594:.\Generated_Source\PSoC4/CapSense_CSHL.c ****                 }
1595:.\Generated_Source\PSoC4/CapSense_CSHL.c ****                 else                                /* Not first Not last */
1596:.\Generated_Source\PSoC4/CapSense_CSHL.c ****                 {
1597:.\Generated_Source\PSoC4/CapSense_CSHL.c ****                     CapSense_centroid[CapSense_POS_PREV] = startOfSlider[maximum - 1u];
1598:.\Generated_Source\PSoC4/CapSense_CSHL.c ****                     CapSense_centroid[CapSense_POS_NEXT] = startOfSlider[maximum + 1u];
1599:.\Generated_Source\PSoC4/CapSense_CSHL.c ****                 }
1600:.\Generated_Source\PSoC4/CapSense_CSHL.c ****             #endif /* (CapSense_TOTAL_RADIAL_SLIDERS_COUNT > 0u) */
1601:.\Generated_Source\PSoC4/CapSense_CSHL.c **** 
1602:.\Generated_Source\PSoC4/CapSense_CSHL.c ****         #if (CapSense_ADD_SLIDER_TYPE)
1603:.\Generated_Source\PSoC4/CapSense_CSHL.c ****             }
1604:.\Generated_Source\PSoC4/CapSense_CSHL.c ****             else
1605:.\Generated_Source\PSoC4/CapSense_CSHL.c ****             {
1606:.\Generated_Source\PSoC4/CapSense_CSHL.c ****         #endif /* (CapSense_ADD_SLIDER_TYPE) */
1607:.\Generated_Source\PSoC4/CapSense_CSHL.c **** 
1608:.\Generated_Source\PSoC4/CapSense_CSHL.c ****             #if ((CapSense_TOTAL_LINEAR_SLIDERS_COUNT > 0u) || (CapSense_TOTAL_TOUCH_PADS_BASIC_COU
ARM GAS  C:\Users\ALEXAN~1\AppData\Local\Temp\ccCdetCh.s 			page 43


1609:.\Generated_Source\PSoC4/CapSense_CSHL.c ****                 #if (CapSense_IS_DIPLEX_SLIDER && CapSense_IS_NON_DIPLEX_SLIDER)
1610:.\Generated_Source\PSoC4/CapSense_CSHL.c ****                     /* Calculate next and previous near to maximum */
1611:.\Generated_Source\PSoC4/CapSense_CSHL.c ****                     if(diplex == 0u)
1612:.\Generated_Source\PSoC4/CapSense_CSHL.c ****                     {
1613:.\Generated_Source\PSoC4/CapSense_CSHL.c ****                         pos     = maximum;
1614:.\Generated_Source\PSoC4/CapSense_CSHL.c ****                         posPrev = maximum - 1u;
1615:.\Generated_Source\PSoC4/CapSense_CSHL.c ****                         posNext = maximum + 1u;
1616:.\Generated_Source\PSoC4/CapSense_CSHL.c ****                     }
1617:.\Generated_Source\PSoC4/CapSense_CSHL.c ****                     else
1618:.\Generated_Source\PSoC4/CapSense_CSHL.c ****                     {
1619:.\Generated_Source\PSoC4/CapSense_CSHL.c ****                         pos     = diplex[maximum];
1620:.\Generated_Source\PSoC4/CapSense_CSHL.c ****                         posPrev = diplex[maximum - 1u];
1621:.\Generated_Source\PSoC4/CapSense_CSHL.c ****                         posNext = diplex[maximum + 1u];
1622:.\Generated_Source\PSoC4/CapSense_CSHL.c ****                         count <<= 1u;
1623:.\Generated_Source\PSoC4/CapSense_CSHL.c ****                     }
1624:.\Generated_Source\PSoC4/CapSense_CSHL.c ****                 #elif (CapSense_IS_DIPLEX_SLIDER)
1625:.\Generated_Source\PSoC4/CapSense_CSHL.c ****                     /* Calculate next and previous near to maximum */
1626:.\Generated_Source\PSoC4/CapSense_CSHL.c ****                     pos     = diplex[maximum];
1627:.\Generated_Source\PSoC4/CapSense_CSHL.c ****                     posPrev = diplex[maximum - 1u];
1628:.\Generated_Source\PSoC4/CapSense_CSHL.c ****                     posNext = diplex[maximum + 1u];
1629:.\Generated_Source\PSoC4/CapSense_CSHL.c ****                     count <<= 1u;
1630:.\Generated_Source\PSoC4/CapSense_CSHL.c ****                 #else
1631:.\Generated_Source\PSoC4/CapSense_CSHL.c ****                     /* Calculate next and previous near to maximum */
1632:.\Generated_Source\PSoC4/CapSense_CSHL.c ****                     if (maximum >= 1u)
1633:.\Generated_Source\PSoC4/CapSense_CSHL.c ****                     {
1634:.\Generated_Source\PSoC4/CapSense_CSHL.c ****                         posPrev = maximum - 1u;
1635:.\Generated_Source\PSoC4/CapSense_CSHL.c ****                     }
1636:.\Generated_Source\PSoC4/CapSense_CSHL.c ****                     posNext = maximum + 1u;
1637:.\Generated_Source\PSoC4/CapSense_CSHL.c ****                 #endif /* (CapSense_IS_DIPLEX_SLIDER && CapSense_IS_NON_DIPLEX_SLIDER) */
1638:.\Generated_Source\PSoC4/CapSense_CSHL.c **** 
1639:.\Generated_Source\PSoC4/CapSense_CSHL.c ****                 /* Copy Signal to the centroid array */
1640:.\Generated_Source\PSoC4/CapSense_CSHL.c ****                 #if (CapSense_IS_DIPLEX_SLIDER)
1641:.\Generated_Source\PSoC4/CapSense_CSHL.c ****                     CapSense_centroid[CapSense_POS] = startOfSlider[pos];
1642:.\Generated_Source\PSoC4/CapSense_CSHL.c ****                 #else
1643:.\Generated_Source\PSoC4/CapSense_CSHL.c ****                     CapSense_centroid[CapSense_POS] = startOfSlider[maximum];
1644:.\Generated_Source\PSoC4/CapSense_CSHL.c ****                 #endif /* (CapSense_IS_DIPLEX_SLIDER) */
1645:.\Generated_Source\PSoC4/CapSense_CSHL.c **** 
1646:.\Generated_Source\PSoC4/CapSense_CSHL.c ****                 /* Check borders for LINEAR Slider */
1647:.\Generated_Source\PSoC4/CapSense_CSHL.c ****                 if (maximum == 0u)                   /* Start of centroid */
1648:.\Generated_Source\PSoC4/CapSense_CSHL.c ****                 {
1649:.\Generated_Source\PSoC4/CapSense_CSHL.c ****                     CapSense_centroid[CapSense_POS_PREV] = 0u;
1650:.\Generated_Source\PSoC4/CapSense_CSHL.c ****                     CapSense_centroid[CapSense_POS_NEXT] = startOfSlider[posNext];
1651:.\Generated_Source\PSoC4/CapSense_CSHL.c ****                 }
1652:.\Generated_Source\PSoC4/CapSense_CSHL.c ****                 else if (maximum == ((count) - 1u)) /* End of centroid */
1653:.\Generated_Source\PSoC4/CapSense_CSHL.c ****                 {
1654:.\Generated_Source\PSoC4/CapSense_CSHL.c ****                     CapSense_centroid[CapSense_POS_PREV] = startOfSlider[posPrev];
1655:.\Generated_Source\PSoC4/CapSense_CSHL.c ****                     CapSense_centroid[CapSense_POS_NEXT] = 0u;
1656:.\Generated_Source\PSoC4/CapSense_CSHL.c ****                 }
1657:.\Generated_Source\PSoC4/CapSense_CSHL.c ****                 else                                /* Not first Not last */
1658:.\Generated_Source\PSoC4/CapSense_CSHL.c ****                 {
1659:.\Generated_Source\PSoC4/CapSense_CSHL.c ****                     CapSense_centroid[CapSense_POS_PREV] = startOfSlider[posPrev];
1660:.\Generated_Source\PSoC4/CapSense_CSHL.c ****                     CapSense_centroid[CapSense_POS_NEXT] = startOfSlider[posNext];
1661:.\Generated_Source\PSoC4/CapSense_CSHL.c ****                 }
1662:.\Generated_Source\PSoC4/CapSense_CSHL.c ****             #endif /* ((CapSense_TOTAL_LINEAR_SLIDERS_COUNT>0u)||(CapSense_TOTAL_TOUCH_PADS_BASIC_C
1663:.\Generated_Source\PSoC4/CapSense_CSHL.c **** 
1664:.\Generated_Source\PSoC4/CapSense_CSHL.c ****         #if (CapSense_ADD_SLIDER_TYPE)
1665:.\Generated_Source\PSoC4/CapSense_CSHL.c ****             }
ARM GAS  C:\Users\ALEXAN~1\AppData\Local\Temp\ccCdetCh.s 			page 44


1666:.\Generated_Source\PSoC4/CapSense_CSHL.c ****         #endif /* (CapSense_ADD_SLIDER_TYPE) */
1667:.\Generated_Source\PSoC4/CapSense_CSHL.c **** 
1668:.\Generated_Source\PSoC4/CapSense_CSHL.c ****         /* Subtract noiseThreshold */
1669:.\Generated_Source\PSoC4/CapSense_CSHL.c ****         if(CapSense_centroid[CapSense_POS_PREV] > noiseThreshold)
1670:.\Generated_Source\PSoC4/CapSense_CSHL.c ****         {
1671:.\Generated_Source\PSoC4/CapSense_CSHL.c ****             CapSense_centroid[CapSense_POS_PREV] -= noiseThreshold;
1672:.\Generated_Source\PSoC4/CapSense_CSHL.c ****         }
1673:.\Generated_Source\PSoC4/CapSense_CSHL.c ****         else
1674:.\Generated_Source\PSoC4/CapSense_CSHL.c ****         {
1675:.\Generated_Source\PSoC4/CapSense_CSHL.c ****             CapSense_centroid[CapSense_POS_PREV] = 0u;
1676:.\Generated_Source\PSoC4/CapSense_CSHL.c ****         }
1677:.\Generated_Source\PSoC4/CapSense_CSHL.c **** 
1678:.\Generated_Source\PSoC4/CapSense_CSHL.c ****         /* Maximum always greater than fingerThreshold, so greater than noiseThreshold */
1679:.\Generated_Source\PSoC4/CapSense_CSHL.c ****         CapSense_centroid[CapSense_POS] -= noiseThreshold;
1680:.\Generated_Source\PSoC4/CapSense_CSHL.c **** 
1681:.\Generated_Source\PSoC4/CapSense_CSHL.c ****         /* Subtract noiseThreshold */
1682:.\Generated_Source\PSoC4/CapSense_CSHL.c ****         if(CapSense_centroid[CapSense_POS_NEXT] > noiseThreshold)
1683:.\Generated_Source\PSoC4/CapSense_CSHL.c ****         {
1684:.\Generated_Source\PSoC4/CapSense_CSHL.c ****             CapSense_centroid[CapSense_POS_NEXT] -= noiseThreshold;
1685:.\Generated_Source\PSoC4/CapSense_CSHL.c ****         }
1686:.\Generated_Source\PSoC4/CapSense_CSHL.c ****         else
1687:.\Generated_Source\PSoC4/CapSense_CSHL.c ****         {
1688:.\Generated_Source\PSoC4/CapSense_CSHL.c ****             CapSense_centroid[CapSense_POS_NEXT] = 0u;
1689:.\Generated_Source\PSoC4/CapSense_CSHL.c ****         }
1690:.\Generated_Source\PSoC4/CapSense_CSHL.c **** 
1691:.\Generated_Source\PSoC4/CapSense_CSHL.c **** 
1692:.\Generated_Source\PSoC4/CapSense_CSHL.c ****         /* Si+1 - Si-1 */
1693:.\Generated_Source\PSoC4/CapSense_CSHL.c ****         numerator = (uint32) CapSense_centroid[CapSense_POS_NEXT] -
1694:.\Generated_Source\PSoC4/CapSense_CSHL.c ****                     (uint32) CapSense_centroid[CapSense_POS_PREV];
1695:.\Generated_Source\PSoC4/CapSense_CSHL.c **** 
1696:.\Generated_Source\PSoC4/CapSense_CSHL.c ****         /* Si+1 + Si + Si-1 */
1697:.\Generated_Source\PSoC4/CapSense_CSHL.c ****         denominator = (int32) CapSense_centroid[CapSense_POS_PREV] +
1698:.\Generated_Source\PSoC4/CapSense_CSHL.c ****                       (int32) CapSense_centroid[CapSense_POS] +
1699:.\Generated_Source\PSoC4/CapSense_CSHL.c ****                       (int32) CapSense_centroid[CapSense_POS_NEXT];
1700:.\Generated_Source\PSoC4/CapSense_CSHL.c **** 
1701:.\Generated_Source\PSoC4/CapSense_CSHL.c ****         /* (numerator/denominator) + maximum */
1702:.\Generated_Source\PSoC4/CapSense_CSHL.c ****         denominator = (((int32)(uint32)((uint32)numerator << 8u)/denominator) + (int32)(uint32)((ui
1703:.\Generated_Source\PSoC4/CapSense_CSHL.c **** 
1704:.\Generated_Source\PSoC4/CapSense_CSHL.c ****         #if(CapSense_TOTAL_RADIAL_SLIDERS_COUNT > 0u)
1705:.\Generated_Source\PSoC4/CapSense_CSHL.c ****             /* Only required for RADIAL Slider */
1706:.\Generated_Source\PSoC4/CapSense_CSHL.c ****             if(denominator < 0)
1707:.\Generated_Source\PSoC4/CapSense_CSHL.c ****             {
1708:.\Generated_Source\PSoC4/CapSense_CSHL.c ****                 denominator += (int32)((uint16)((uint16) count << 8u));
1709:.\Generated_Source\PSoC4/CapSense_CSHL.c ****             }
1710:.\Generated_Source\PSoC4/CapSense_CSHL.c ****         #endif /* (CapSense_TOTAL_RADIAL_SLIDERS_COUNT > 0u) */
1711:.\Generated_Source\PSoC4/CapSense_CSHL.c **** 
1712:.\Generated_Source\PSoC4/CapSense_CSHL.c ****         denominator *= (int16)resolution;
1713:.\Generated_Source\PSoC4/CapSense_CSHL.c **** 
1714:.\Generated_Source\PSoC4/CapSense_CSHL.c ****         /* Round result and put it to uint8 */
1715:.\Generated_Source\PSoC4/CapSense_CSHL.c ****         position = ((uint8) HI16((uint32)denominator + CapSense_CENTROID_ROUND_VALUE));
1716:.\Generated_Source\PSoC4/CapSense_CSHL.c **** 
1717:.\Generated_Source\PSoC4/CapSense_CSHL.c ****         return (position);
1718:.\Generated_Source\PSoC4/CapSense_CSHL.c ****     }
1719:.\Generated_Source\PSoC4/CapSense_CSHL.c **** #endif /* (CapSense_TOTAL_CENTROIDS_BASIC_COUNT) */
1720:.\Generated_Source\PSoC4/CapSense_CSHL.c **** 
1721:.\Generated_Source\PSoC4/CapSense_CSHL.c **** 
1722:.\Generated_Source\PSoC4/CapSense_CSHL.c **** #if((CapSense_TOTAL_RADIAL_SLIDERS_COUNT > 0u) || (CapSense_TOTAL_LINEAR_SLIDERS_COUNT > 0u))
ARM GAS  C:\Users\ALEXAN~1\AppData\Local\Temp\ccCdetCh.s 			page 45


1723:.\Generated_Source\PSoC4/CapSense_CSHL.c ****     /*******************************************************************************
1724:.\Generated_Source\PSoC4/CapSense_CSHL.c ****     * Function Name: CapSense_GetCentroidPos
1725:.\Generated_Source\PSoC4/CapSense_CSHL.c ****     ********************************************************************************
1726:.\Generated_Source\PSoC4/CapSense_CSHL.c ****     *
1727:.\Generated_Source\PSoC4/CapSense_CSHL.c ****     * Summary:
1728:.\Generated_Source\PSoC4/CapSense_CSHL.c ****     *  Checks the CapSense_Signal[ ] array for a centroid within
1729:.\Generated_Source\PSoC4/CapSense_CSHL.c ****     *  a slider specified range. The centroid position is calculated according to the resolution
1730:.\Generated_Source\PSoC4/CapSense_CSHL.c ****     *  specified in the CapSense customizer. The position filters are applied to the
1731:.\Generated_Source\PSoC4/CapSense_CSHL.c ****     *  result if enabled.
1732:.\Generated_Source\PSoC4/CapSense_CSHL.c ****     *
1733:.\Generated_Source\PSoC4/CapSense_CSHL.c ****     * Parameters:
1734:.\Generated_Source\PSoC4/CapSense_CSHL.c ****     *  widget:  Widget number.
1735:.\Generated_Source\PSoC4/CapSense_CSHL.c ****     *  For every linear slider widget there are defines in this format:
1736:.\Generated_Source\PSoC4/CapSense_CSHL.c ****     *  #define CapSense_"widget_name"__LS           5
1737:.\Generated_Source\PSoC4/CapSense_CSHL.c ****     *
1738:.\Generated_Source\PSoC4/CapSense_CSHL.c ****     * Return:
1739:.\Generated_Source\PSoC4/CapSense_CSHL.c ****     *  Returns a position value of the linear slider.
1740:.\Generated_Source\PSoC4/CapSense_CSHL.c ****     *
1741:.\Generated_Source\PSoC4/CapSense_CSHL.c ****     * Global Variables:
1742:.\Generated_Source\PSoC4/CapSense_CSHL.c ****     *  None
1743:.\Generated_Source\PSoC4/CapSense_CSHL.c ****     *
1744:.\Generated_Source\PSoC4/CapSense_CSHL.c ****     * Side Effects:
1745:.\Generated_Source\PSoC4/CapSense_CSHL.c ****     *  If any sensor within the slider widget is active, the function returns values
1746:.\Generated_Source\PSoC4/CapSense_CSHL.c ****     *  from zero to the API resolution value set in the CapSense customizer. If no
1747:.\Generated_Source\PSoC4/CapSense_CSHL.c ****     *  sensors are active, the function returns 0xFFFF. If an error occurs during
1748:.\Generated_Source\PSoC4/CapSense_CSHL.c ****     *  execution of the centroid/diplexing algorithm, the function returns 0xFFFF.
1749:.\Generated_Source\PSoC4/CapSense_CSHL.c ****     *  There are no checks of the widget type argument provided to this function.
1750:.\Generated_Source\PSoC4/CapSense_CSHL.c ****     *  The unproper widget type provided will cause unexpected position calculations.
1751:.\Generated_Source\PSoC4/CapSense_CSHL.c ****     *
1752:.\Generated_Source\PSoC4/CapSense_CSHL.c ****     * Note:
1753:.\Generated_Source\PSoC4/CapSense_CSHL.c ****     *  If noise counts on the slider segments are greater than the noise
1754:.\Generated_Source\PSoC4/CapSense_CSHL.c ****     *  threshold, this subroutine may generate a false centroid result. The noise
1755:.\Generated_Source\PSoC4/CapSense_CSHL.c ****     *  threshold should be set carefully (high enough above the noise level) so
1756:.\Generated_Source\PSoC4/CapSense_CSHL.c ****     *  that noise will not generate a false centroid.
1757:.\Generated_Source\PSoC4/CapSense_CSHL.c ****     *******************************************************************************/
1758:.\Generated_Source\PSoC4/CapSense_CSHL.c ****     uint16 CapSense_GetCentroidPos(uint32 widget)
1759:.\Generated_Source\PSoC4/CapSense_CSHL.c ****     {
1760:.\Generated_Source\PSoC4/CapSense_CSHL.c ****         #if (CapSense_IS_DIPLEX_SLIDER)
1761:.\Generated_Source\PSoC4/CapSense_CSHL.c ****             const uint8 *diplex;
1762:.\Generated_Source\PSoC4/CapSense_CSHL.c ****         #endif /* (CapSense_IS_DIPLEX_SLIDER) */
1763:.\Generated_Source\PSoC4/CapSense_CSHL.c **** 
1764:.\Generated_Source\PSoC4/CapSense_CSHL.c ****         #if (0u != CapSense_LINEAR_SLIDERS_POS_FILTERS_MASK)
1765:.\Generated_Source\PSoC4/CapSense_CSHL.c ****             uint8 posIndex;
1766:.\Generated_Source\PSoC4/CapSense_CSHL.c ****             uint8 firstTimeIndex = CapSense_posFiltersData[widget];
1767:.\Generated_Source\PSoC4/CapSense_CSHL.c ****             uint8 posFiltersMask = CapSense_posFiltersMask[widget];
1768:.\Generated_Source\PSoC4/CapSense_CSHL.c ****         #endif /* (0u != CapSense_LINEAR_SLIDERS_POS_FILTERS_MASK) */
1769:.\Generated_Source\PSoC4/CapSense_CSHL.c **** 
1770:.\Generated_Source\PSoC4/CapSense_CSHL.c ****         #if ((0u != (CapSense_MEDIAN_FILTER & CapSense_LINEAR_SLIDERS_POS_FILTERS_MASK)) || \
1771:.\Generated_Source\PSoC4/CapSense_CSHL.c ****              (0u != (CapSense_AVERAGING_FILTER & CapSense_LINEAR_SLIDERS_POS_FILTERS_MASK)))
1772:.\Generated_Source\PSoC4/CapSense_CSHL.c ****             uint8 tempPos;
1773:.\Generated_Source\PSoC4/CapSense_CSHL.c ****         #endif /* ((0u != (CapSense_MEDIAN_FILTER & CapSense_LINEAR_SLIDERS_POS_FILTERS_MASK)) || \
1774:.\Generated_Source\PSoC4/CapSense_CSHL.c ****                *   (0u != (CapSense_AVERAGING_FILTER & CapSense_LINEAR_SLIDERS_POS_FILTERS_MASK)))
1775:.\Generated_Source\PSoC4/CapSense_CSHL.c ****                */
1776:.\Generated_Source\PSoC4/CapSense_CSHL.c **** 
1777:.\Generated_Source\PSoC4/CapSense_CSHL.c ****         uint8 maximum;
1778:.\Generated_Source\PSoC4/CapSense_CSHL.c ****         uint16 position;
1779:.\Generated_Source\PSoC4/CapSense_CSHL.c ****         uint8 offset = CapSense_rawDataIndex[widget];
ARM GAS  C:\Users\ALEXAN~1\AppData\Local\Temp\ccCdetCh.s 			page 46


1780:.\Generated_Source\PSoC4/CapSense_CSHL.c ****         uint8 count = CapSense_numberOfSensors[widget];
1781:.\Generated_Source\PSoC4/CapSense_CSHL.c **** 
1782:.\Generated_Source\PSoC4/CapSense_CSHL.c ****         #if (CapSense_IS_DIPLEX_SLIDER)
1783:.\Generated_Source\PSoC4/CapSense_CSHL.c ****             if(widget < CapSense_TOTAL_DIPLEXED_SLIDERS_COUNT)
1784:.\Generated_Source\PSoC4/CapSense_CSHL.c ****             {
1785:.\Generated_Source\PSoC4/CapSense_CSHL.c ****                 maximum = CapSense_diplexTable[widget];
1786:.\Generated_Source\PSoC4/CapSense_CSHL.c ****                 diplex = &CapSense_diplexTable[maximum];
1787:.\Generated_Source\PSoC4/CapSense_CSHL.c ****             }
1788:.\Generated_Source\PSoC4/CapSense_CSHL.c ****             else
1789:.\Generated_Source\PSoC4/CapSense_CSHL.c ****             {
1790:.\Generated_Source\PSoC4/CapSense_CSHL.c ****                 diplex = 0u;
1791:.\Generated_Source\PSoC4/CapSense_CSHL.c ****             }
1792:.\Generated_Source\PSoC4/CapSense_CSHL.c ****         #endif /* (CapSense_IS_DIPLEX_SLIDER) */
1793:.\Generated_Source\PSoC4/CapSense_CSHL.c **** 
1794:.\Generated_Source\PSoC4/CapSense_CSHL.c ****         /* Find Maximum within centroid */
1795:.\Generated_Source\PSoC4/CapSense_CSHL.c ****         #if (CapSense_IS_DIPLEX_SLIDER)
1796:.\Generated_Source\PSoC4/CapSense_CSHL.c ****             maximum = CapSense_FindMaximum(offset, count, (uint16)CapSense_fingerThreshold[widget],
1797:.\Generated_Source\PSoC4/CapSense_CSHL.c ****         #else
1798:.\Generated_Source\PSoC4/CapSense_CSHL.c ****             maximum = CapSense_FindMaximum(offset, count, (uint16)CapSense_fingerThreshold[widget])
1799:.\Generated_Source\PSoC4/CapSense_CSHL.c ****         #endif /* (CapSense_IS_DIPLEX_SLIDER) */
1800:.\Generated_Source\PSoC4/CapSense_CSHL.c **** 
1801:.\Generated_Source\PSoC4/CapSense_CSHL.c ****         if (maximum != 0xFFu)
1802:.\Generated_Source\PSoC4/CapSense_CSHL.c ****         {
1803:.\Generated_Source\PSoC4/CapSense_CSHL.c ****             /* Calculate centroid */
1804:.\Generated_Source\PSoC4/CapSense_CSHL.c ****             position = (uint16) CapSense_CalcCentroid(maximum,
1805:.\Generated_Source\PSoC4/CapSense_CSHL.c ****                          offset, count, CapSense_centroidMult[widget], CapSense_noiseThreshold[widg
1806:.\Generated_Source\PSoC4/CapSense_CSHL.c **** 
1807:.\Generated_Source\PSoC4/CapSense_CSHL.c ****             #if (0u != CapSense_LINEAR_SLIDERS_POS_FILTERS_MASK)
1808:.\Generated_Source\PSoC4/CapSense_CSHL.c ****                 /* Check if this linear slider has enabled filters */
1809:.\Generated_Source\PSoC4/CapSense_CSHL.c ****                 if (0u != (posFiltersMask & CapSense_ANY_POS_FILTER))
1810:.\Generated_Source\PSoC4/CapSense_CSHL.c ****                 {
1811:.\Generated_Source\PSoC4/CapSense_CSHL.c ****                     /* Calculate position to store filters data */
1812:.\Generated_Source\PSoC4/CapSense_CSHL.c ****                     posIndex  = firstTimeIndex + 1u;
1813:.\Generated_Source\PSoC4/CapSense_CSHL.c **** 
1814:.\Generated_Source\PSoC4/CapSense_CSHL.c ****                     if (0u == CapSense_posFiltersData[firstTimeIndex])
1815:.\Generated_Source\PSoC4/CapSense_CSHL.c ****                     {
1816:.\Generated_Source\PSoC4/CapSense_CSHL.c ****                         /* Init filters */
1817:.\Generated_Source\PSoC4/CapSense_CSHL.c ****                         CapSense_posFiltersData[posIndex] = (uint8) position;
1818:.\Generated_Source\PSoC4/CapSense_CSHL.c ****                         #if ((0u != (CapSense_MEDIAN_FILTER & \
1819:.\Generated_Source\PSoC4/CapSense_CSHL.c ****                                      CapSense_LINEAR_SLIDERS_POS_FILTERS_MASK)) || \
1820:.\Generated_Source\PSoC4/CapSense_CSHL.c ****                              (0u != (CapSense_AVERAGING_FILTER & \
1821:.\Generated_Source\PSoC4/CapSense_CSHL.c ****                                      CapSense_LINEAR_SLIDERS_POS_FILTERS_MASK)))
1822:.\Generated_Source\PSoC4/CapSense_CSHL.c **** 
1823:.\Generated_Source\PSoC4/CapSense_CSHL.c ****                             if ( (0u != (posFiltersMask & CapSense_MEDIAN_FILTER)) ||
1824:.\Generated_Source\PSoC4/CapSense_CSHL.c ****                                  (0u != (posFiltersMask & CapSense_AVERAGING_FILTER)) )
1825:.\Generated_Source\PSoC4/CapSense_CSHL.c ****                             {
1826:.\Generated_Source\PSoC4/CapSense_CSHL.c ****                                 CapSense_posFiltersData[posIndex + 1u] = (uint8) position;
1827:.\Generated_Source\PSoC4/CapSense_CSHL.c ****                             }
1828:.\Generated_Source\PSoC4/CapSense_CSHL.c ****                         #endif /* ((0u != (CapSense_MEDIAN_FILTER & \
1829:.\Generated_Source\PSoC4/CapSense_CSHL.c ****                                *           CapSense_LINEAR_SLIDERS_POS_FILTERS_MASK)) || \
1830:.\Generated_Source\PSoC4/CapSense_CSHL.c ****                                *   (0u != (CapSense_AVERAGING_FILTER & \
1831:.\Generated_Source\PSoC4/CapSense_CSHL.c ****                                *           CapSense_LINEAR_SLIDERS_POS_FILTERS_MASK)))
1832:.\Generated_Source\PSoC4/CapSense_CSHL.c ****                                */
1833:.\Generated_Source\PSoC4/CapSense_CSHL.c **** 
1834:.\Generated_Source\PSoC4/CapSense_CSHL.c ****                         CapSense_posFiltersData[firstTimeIndex] = 1u;
1835:.\Generated_Source\PSoC4/CapSense_CSHL.c ****                     }
1836:.\Generated_Source\PSoC4/CapSense_CSHL.c ****                     else
ARM GAS  C:\Users\ALEXAN~1\AppData\Local\Temp\ccCdetCh.s 			page 47


1837:.\Generated_Source\PSoC4/CapSense_CSHL.c ****                     {
1838:.\Generated_Source\PSoC4/CapSense_CSHL.c ****                         /* Do filtering */
1839:.\Generated_Source\PSoC4/CapSense_CSHL.c ****                         #if (0u != (CapSense_MEDIAN_FILTER & CapSense_LINEAR_SLIDERS_POS_FILTERS_MA
1840:.\Generated_Source\PSoC4/CapSense_CSHL.c ****                             if (0u != (posFiltersMask & CapSense_MEDIAN_FILTER))
1841:.\Generated_Source\PSoC4/CapSense_CSHL.c ****                             {
1842:.\Generated_Source\PSoC4/CapSense_CSHL.c ****                                 tempPos = (uint8) position;
1843:.\Generated_Source\PSoC4/CapSense_CSHL.c ****                                 position = CapSense_MedianFilter(position,
1844:.\Generated_Source\PSoC4/CapSense_CSHL.c ****                                                                 (uint16)CapSense_posFiltersData[pos
1845:.\Generated_Source\PSoC4/CapSense_CSHL.c ****                                                                 (uint16)CapSense_posFiltersData[pos
1846:.\Generated_Source\PSoC4/CapSense_CSHL.c ****                                 CapSense_posFiltersData[posIndex + 1u] =
1847:.\Generated_Source\PSoC4/CapSense_CSHL.c ****                                                                              CapSense_posFiltersDat
1848:.\Generated_Source\PSoC4/CapSense_CSHL.c ****                                 CapSense_posFiltersData[posIndex] = tempPos;
1849:.\Generated_Source\PSoC4/CapSense_CSHL.c ****                             }
1850:.\Generated_Source\PSoC4/CapSense_CSHL.c ****                         #endif /*(0u != (CapSense_MEDIAN_FILTER &
1851:.\Generated_Source\PSoC4/CapSense_CSHL.c ****                                *         CapSense_LINEAR_SLIDERS_POS_FILTERS_MASK))
1852:.\Generated_Source\PSoC4/CapSense_CSHL.c ****                                */
1853:.\Generated_Source\PSoC4/CapSense_CSHL.c **** 
1854:.\Generated_Source\PSoC4/CapSense_CSHL.c ****                         #if(0u!=(CapSense_AVERAGING_FILTER & CapSense_LINEAR_SLIDERS_POS_FILTERS_MA
1855:.\Generated_Source\PSoC4/CapSense_CSHL.c ****                             if (0u != (posFiltersMask & CapSense_AVERAGING_FILTER))
1856:.\Generated_Source\PSoC4/CapSense_CSHL.c ****                             {
1857:.\Generated_Source\PSoC4/CapSense_CSHL.c ****                                 tempPos = (uint8) position;
1858:.\Generated_Source\PSoC4/CapSense_CSHL.c ****                                 position = CapSense_AveragingFilter(position,
1859:.\Generated_Source\PSoC4/CapSense_CSHL.c ****                                                                 (uint16)CapSense_posFiltersData[pos
1860:.\Generated_Source\PSoC4/CapSense_CSHL.c ****                                                                 (uint16)CapSense_posFiltersData[pos
1861:.\Generated_Source\PSoC4/CapSense_CSHL.c ****                                 CapSense_posFiltersData[posIndex+1u]=CapSense_posFiltersData[posInd
1862:.\Generated_Source\PSoC4/CapSense_CSHL.c ****                                 CapSense_posFiltersData[posIndex] = tempPos;
1863:.\Generated_Source\PSoC4/CapSense_CSHL.c ****                             }
1864:.\Generated_Source\PSoC4/CapSense_CSHL.c ****                         #endif /* (0u != (CapSense_AVERAGING_FILTER & \
1865:.\Generated_Source\PSoC4/CapSense_CSHL.c ****                                *           CapSense_LINEAR_SLIDERS_POS_FILTERS_MASK))
1866:.\Generated_Source\PSoC4/CapSense_CSHL.c ****                                */
1867:.\Generated_Source\PSoC4/CapSense_CSHL.c **** 
1868:.\Generated_Source\PSoC4/CapSense_CSHL.c ****                         #if (0u != (CapSense_IIR2_FILTER & CapSense_LINEAR_SLIDERS_POS_FILTERS_MASK
1869:.\Generated_Source\PSoC4/CapSense_CSHL.c ****                             if (0u != (posFiltersMask & CapSense_IIR2_FILTER))
1870:.\Generated_Source\PSoC4/CapSense_CSHL.c ****                             {
1871:.\Generated_Source\PSoC4/CapSense_CSHL.c ****                                 position = CapSense_IIR2Filter(position,
1872:.\Generated_Source\PSoC4/CapSense_CSHL.c ****                                                                     (uint16)CapSense_posFiltersData
1873:.\Generated_Source\PSoC4/CapSense_CSHL.c ****                                 CapSense_posFiltersData[posIndex] = (uint8) position;
1874:.\Generated_Source\PSoC4/CapSense_CSHL.c ****                             }
1875:.\Generated_Source\PSoC4/CapSense_CSHL.c ****                         #endif /* (0u != (CapSense_IIR2_FILTER & \
1876:.\Generated_Source\PSoC4/CapSense_CSHL.c ****                                *          CapSense_LINEAR_SLIDERS_POS_FILTERS_MASK))
1877:.\Generated_Source\PSoC4/CapSense_CSHL.c ****                                */
1878:.\Generated_Source\PSoC4/CapSense_CSHL.c **** 
1879:.\Generated_Source\PSoC4/CapSense_CSHL.c ****                         #if (0u != (CapSense_IIR4_FILTER & CapSense_LINEAR_SLIDERS_POS_FILTERS_MASK
1880:.\Generated_Source\PSoC4/CapSense_CSHL.c ****                             if (0u != (posFiltersMask & CapSense_IIR4_FILTER))
1881:.\Generated_Source\PSoC4/CapSense_CSHL.c ****                             {
1882:.\Generated_Source\PSoC4/CapSense_CSHL.c ****                                 position = CapSense_IIR4Filter(position,
1883:.\Generated_Source\PSoC4/CapSense_CSHL.c ****                                                                     (uint16)CapSense_posFiltersData
1884:.\Generated_Source\PSoC4/CapSense_CSHL.c ****                                 CapSense_posFiltersData[posIndex] = (uint8) position;
1885:.\Generated_Source\PSoC4/CapSense_CSHL.c ****                             }
1886:.\Generated_Source\PSoC4/CapSense_CSHL.c ****                         #endif /* (0u != (CapSense_IIR4_FILTER & \
1887:.\Generated_Source\PSoC4/CapSense_CSHL.c ****                                *          CapSense_LINEAR_SLIDERS_POS_FILTERS_MASK))
1888:.\Generated_Source\PSoC4/CapSense_CSHL.c ****                                */
1889:.\Generated_Source\PSoC4/CapSense_CSHL.c **** 
1890:.\Generated_Source\PSoC4/CapSense_CSHL.c ****                         #if (0u != (CapSense_JITTER_FILTER & CapSense_LINEAR_SLIDERS_POS_FILTERS_MA
1891:.\Generated_Source\PSoC4/CapSense_CSHL.c ****                             if (0u != (posFiltersMask & CapSense_JITTER_FILTER))
1892:.\Generated_Source\PSoC4/CapSense_CSHL.c ****                             {
1893:.\Generated_Source\PSoC4/CapSense_CSHL.c ****                                 position = CapSense_JitterFilter(position,
ARM GAS  C:\Users\ALEXAN~1\AppData\Local\Temp\ccCdetCh.s 			page 48


1894:.\Generated_Source\PSoC4/CapSense_CSHL.c ****                                                                     (uint16)CapSense_posFiltersData
1895:.\Generated_Source\PSoC4/CapSense_CSHL.c ****                                 CapSense_posFiltersData[posIndex] = (uint8) position;
1896:.\Generated_Source\PSoC4/CapSense_CSHL.c ****                             }
1897:.\Generated_Source\PSoC4/CapSense_CSHL.c ****                         #endif /* (0u != (CapSense_JITTER_FILTER & \
1898:.\Generated_Source\PSoC4/CapSense_CSHL.c ****                                *           CapSense_LINEAR_SLIDERS_POS_FILTERS_MASK))
1899:.\Generated_Source\PSoC4/CapSense_CSHL.c ****                                */
1900:.\Generated_Source\PSoC4/CapSense_CSHL.c ****                     }
1901:.\Generated_Source\PSoC4/CapSense_CSHL.c ****                 }
1902:.\Generated_Source\PSoC4/CapSense_CSHL.c ****             #endif /* (0u != CapSense_LINEAR_SLIDERS_POS_FILTERS_MASK) */
1903:.\Generated_Source\PSoC4/CapSense_CSHL.c **** 
1904:.\Generated_Source\PSoC4/CapSense_CSHL.c ****         }
1905:.\Generated_Source\PSoC4/CapSense_CSHL.c ****         else
1906:.\Generated_Source\PSoC4/CapSense_CSHL.c ****         {
1907:.\Generated_Source\PSoC4/CapSense_CSHL.c ****             /* Maximum wasn't found */
1908:.\Generated_Source\PSoC4/CapSense_CSHL.c ****             position = 0xFFFFu;
1909:.\Generated_Source\PSoC4/CapSense_CSHL.c **** 
1910:.\Generated_Source\PSoC4/CapSense_CSHL.c ****             #if(0u != CapSense_LINEAR_SLIDERS_POS_FILTERS_MASK)
1911:.\Generated_Source\PSoC4/CapSense_CSHL.c ****                 /* Reset filters */
1912:.\Generated_Source\PSoC4/CapSense_CSHL.c ****                 if(0u != (posFiltersMask & CapSense_ANY_POS_FILTER))
1913:.\Generated_Source\PSoC4/CapSense_CSHL.c ****                 {
1914:.\Generated_Source\PSoC4/CapSense_CSHL.c ****                     CapSense_posFiltersData[firstTimeIndex] = 0u;
1915:.\Generated_Source\PSoC4/CapSense_CSHL.c ****                 }
1916:.\Generated_Source\PSoC4/CapSense_CSHL.c ****             #endif /* (0u != CapSense_LINEAR_SLIDERS_POS_FILTERS_MASK) */
1917:.\Generated_Source\PSoC4/CapSense_CSHL.c ****         }
1918:.\Generated_Source\PSoC4/CapSense_CSHL.c **** 
1919:.\Generated_Source\PSoC4/CapSense_CSHL.c **** 
1920:.\Generated_Source\PSoC4/CapSense_CSHL.c ****         return (position);
1921:.\Generated_Source\PSoC4/CapSense_CSHL.c ****     }
1922:.\Generated_Source\PSoC4/CapSense_CSHL.c **** #endif /* ((CapSense_TOTAL_RADIAL_SLIDERS_COUNT > 0u) || (CapSense_TOTAL_LINEAR_SLIDERS_COUNT > 0u)
1923:.\Generated_Source\PSoC4/CapSense_CSHL.c **** 
1924:.\Generated_Source\PSoC4/CapSense_CSHL.c **** 
1925:.\Generated_Source\PSoC4/CapSense_CSHL.c **** #if((CapSense_TOTAL_RADIAL_SLIDERS_COUNT > 0u) || (CapSense_TOTAL_LINEAR_SLIDERS_COUNT > 0u))
1926:.\Generated_Source\PSoC4/CapSense_CSHL.c ****     /*******************************************************************************
1927:.\Generated_Source\PSoC4/CapSense_CSHL.c ****     * Function Name: CapSense_GetRadialCentroidPos
1928:.\Generated_Source\PSoC4/CapSense_CSHL.c ****     ********************************************************************************
1929:.\Generated_Source\PSoC4/CapSense_CSHL.c ****     *
1930:.\Generated_Source\PSoC4/CapSense_CSHL.c ****     * Summary:
1931:.\Generated_Source\PSoC4/CapSense_CSHL.c ****     *  Checks the CapSense_Signal[ ] array for a centroid within
1932:.\Generated_Source\PSoC4/CapSense_CSHL.c ****     *  a slider specified range. The centroid position is calculated according to the resolution
1933:.\Generated_Source\PSoC4/CapSense_CSHL.c ****     *  specified in the CapSense customizer. The position filters are applied to the
1934:.\Generated_Source\PSoC4/CapSense_CSHL.c ****     *  result if enabled.
1935:.\Generated_Source\PSoC4/CapSense_CSHL.c ****     *
1936:.\Generated_Source\PSoC4/CapSense_CSHL.c ****     * Parameters:
1937:.\Generated_Source\PSoC4/CapSense_CSHL.c ****     *  widget:  Widget number.
1938:.\Generated_Source\PSoC4/CapSense_CSHL.c ****     *  For every radial slider widget there are defines in this format:
1939:.\Generated_Source\PSoC4/CapSense_CSHL.c ****     *  #define CapSense_"widget_name"__RS           5
1940:.\Generated_Source\PSoC4/CapSense_CSHL.c ****     *
1941:.\Generated_Source\PSoC4/CapSense_CSHL.c ****     * Return:
1942:.\Generated_Source\PSoC4/CapSense_CSHL.c ****     *  Returns a position value of the radial slider.
1943:.\Generated_Source\PSoC4/CapSense_CSHL.c ****     *
1944:.\Generated_Source\PSoC4/CapSense_CSHL.c ****     * Global Variables:
1945:.\Generated_Source\PSoC4/CapSense_CSHL.c ****     *  None.
1946:.\Generated_Source\PSoC4/CapSense_CSHL.c ****     *
1947:.\Generated_Source\PSoC4/CapSense_CSHL.c ****     * Side Effects:
1948:.\Generated_Source\PSoC4/CapSense_CSHL.c ****     *  If any sensor within the slider widget is active, the function returns values
1949:.\Generated_Source\PSoC4/CapSense_CSHL.c ****     *  from zero to the API resolution value set in the CapSense customizer. If no
1950:.\Generated_Source\PSoC4/CapSense_CSHL.c ****     *  sensors are active, the function returns 0xFFFF.
ARM GAS  C:\Users\ALEXAN~1\AppData\Local\Temp\ccCdetCh.s 			page 49


1951:.\Generated_Source\PSoC4/CapSense_CSHL.c ****     *  There are no checks of the widget type argument provided to this function.
1952:.\Generated_Source\PSoC4/CapSense_CSHL.c ****     *  The unproper widget type provided will cause unexpected position calculations.
1953:.\Generated_Source\PSoC4/CapSense_CSHL.c ****     *
1954:.\Generated_Source\PSoC4/CapSense_CSHL.c ****     * Note:
1955:.\Generated_Source\PSoC4/CapSense_CSHL.c ****     *  If noise counts on the slider segments are greater than the noise
1956:.\Generated_Source\PSoC4/CapSense_CSHL.c ****     *  threshold, this subroutine may generate a false centroid result. The noise
1957:.\Generated_Source\PSoC4/CapSense_CSHL.c ****     *  threshold should be set carefully (high enough above the noise level) so
1958:.\Generated_Source\PSoC4/CapSense_CSHL.c ****     *  that noise will not generate a false centroid.
1959:.\Generated_Source\PSoC4/CapSense_CSHL.c ****     *
1960:.\Generated_Source\PSoC4/CapSense_CSHL.c ****     *******************************************************************************/
1961:.\Generated_Source\PSoC4/CapSense_CSHL.c ****      uint16 CapSense_GetRadialCentroidPos(uint32 widget)
1962:.\Generated_Source\PSoC4/CapSense_CSHL.c ****     {
1963:.\Generated_Source\PSoC4/CapSense_CSHL.c ****         #if (0u != CapSense_RADIAL_SLIDERS_POS_FILTERS_MASK)
1964:.\Generated_Source\PSoC4/CapSense_CSHL.c ****             uint8 posIndex;
1965:.\Generated_Source\PSoC4/CapSense_CSHL.c ****             uint8 firstTimeIndex = CapSense_posFiltersData[widget];
1966:.\Generated_Source\PSoC4/CapSense_CSHL.c ****             uint8 posFiltersMask = CapSense_posFiltersMask[widget];
1967:.\Generated_Source\PSoC4/CapSense_CSHL.c ****         #endif /* (0u != CapSense_RADIAL_SLIDERS_POS_FILTERS_MASK) */
1968:.\Generated_Source\PSoC4/CapSense_CSHL.c **** 
1969:.\Generated_Source\PSoC4/CapSense_CSHL.c ****         #if ((0u != (CapSense_MEDIAN_FILTER & CapSense_RADIAL_SLIDERS_POS_FILTERS_MASK)) || \
1970:.\Generated_Source\PSoC4/CapSense_CSHL.c ****              (0u != (CapSense_AVERAGING_FILTER & CapSense_RADIAL_SLIDERS_POS_FILTERS_MASK)))
1971:.\Generated_Source\PSoC4/CapSense_CSHL.c ****             uint8 tempPos;
1972:.\Generated_Source\PSoC4/CapSense_CSHL.c ****         #endif /* ((0u != (CapSense_MEDIAN_FILTER & CapSense_RADIAL_SLIDERS_POS_FILTERS_MASK)) || \
1973:.\Generated_Source\PSoC4/CapSense_CSHL.c ****                *   (0u != (CapSense_AVERAGING_FILTER & CapSense_RADIAL_SLIDERS_POS_FILTERS_MASK)))
1974:.\Generated_Source\PSoC4/CapSense_CSHL.c ****                */
1975:.\Generated_Source\PSoC4/CapSense_CSHL.c **** 
1976:.\Generated_Source\PSoC4/CapSense_CSHL.c ****         uint8 maximum;
1977:.\Generated_Source\PSoC4/CapSense_CSHL.c ****         uint16 position;
1978:.\Generated_Source\PSoC4/CapSense_CSHL.c ****         uint8 offset = CapSense_rawDataIndex[widget];
1979:.\Generated_Source\PSoC4/CapSense_CSHL.c ****         uint8 count = CapSense_numberOfSensors[widget];
1980:.\Generated_Source\PSoC4/CapSense_CSHL.c **** 
1981:.\Generated_Source\PSoC4/CapSense_CSHL.c ****         /* Find Maximum within centroid */
1982:.\Generated_Source\PSoC4/CapSense_CSHL.c ****         #if (CapSense_IS_DIPLEX_SLIDER)
1983:.\Generated_Source\PSoC4/CapSense_CSHL.c ****             maximum = CapSense_FindMaximum(offset, count, (uint16)CapSense_fingerThreshold[widget],
1984:.\Generated_Source\PSoC4/CapSense_CSHL.c ****         #else
1985:.\Generated_Source\PSoC4/CapSense_CSHL.c ****             maximum = CapSense_FindMaximum(offset, count, (uint16)CapSense_fingerThreshold[widget])
1986:.\Generated_Source\PSoC4/CapSense_CSHL.c ****         #endif /* (CapSense_IS_DIPLEX_SLIDER) */
1987:.\Generated_Source\PSoC4/CapSense_CSHL.c **** 
1988:.\Generated_Source\PSoC4/CapSense_CSHL.c ****         if (maximum != CapSense_MAXIMUM_CENTROID)
1989:.\Generated_Source\PSoC4/CapSense_CSHL.c ****         {
1990:.\Generated_Source\PSoC4/CapSense_CSHL.c ****             /* Calculate centroid */
1991:.\Generated_Source\PSoC4/CapSense_CSHL.c ****             position = (uint16) CapSense_CalcCentroid(maximum,
1992:.\Generated_Source\PSoC4/CapSense_CSHL.c ****                          offset, count, CapSense_centroidMult[widget], CapSense_noiseThreshold[widg
1993:.\Generated_Source\PSoC4/CapSense_CSHL.c **** 
1994:.\Generated_Source\PSoC4/CapSense_CSHL.c ****             #if (0u != CapSense_RADIAL_SLIDERS_POS_FILTERS_MASK)
1995:.\Generated_Source\PSoC4/CapSense_CSHL.c ****                 /* Check if this Radial slider has enabled filters */
1996:.\Generated_Source\PSoC4/CapSense_CSHL.c ****                 if (0u != (posFiltersMask & CapSense_ANY_POS_FILTER))
1997:.\Generated_Source\PSoC4/CapSense_CSHL.c ****                 {
1998:.\Generated_Source\PSoC4/CapSense_CSHL.c ****                     /* Calculate position to store filters data */
1999:.\Generated_Source\PSoC4/CapSense_CSHL.c ****                     posIndex  = firstTimeIndex + 1u;
2000:.\Generated_Source\PSoC4/CapSense_CSHL.c **** 
2001:.\Generated_Source\PSoC4/CapSense_CSHL.c ****                     if (0u == CapSense_posFiltersData[firstTimeIndex])
2002:.\Generated_Source\PSoC4/CapSense_CSHL.c ****                     {
2003:.\Generated_Source\PSoC4/CapSense_CSHL.c ****                         /* Init filters */
2004:.\Generated_Source\PSoC4/CapSense_CSHL.c ****                         CapSense_posFiltersData[posIndex] = (uint8) position;
2005:.\Generated_Source\PSoC4/CapSense_CSHL.c ****                         #if ((0u != (CapSense_MEDIAN_FILTER & \
2006:.\Generated_Source\PSoC4/CapSense_CSHL.c ****                                      CapSense_RADIAL_SLIDERS_POS_FILTERS_MASK)) || \
2007:.\Generated_Source\PSoC4/CapSense_CSHL.c ****                              (0u != (CapSense_AVERAGING_FILTER & \
ARM GAS  C:\Users\ALEXAN~1\AppData\Local\Temp\ccCdetCh.s 			page 50


2008:.\Generated_Source\PSoC4/CapSense_CSHL.c ****                                      CapSense_RADIAL_SLIDERS_POS_FILTERS_MASK)))
2009:.\Generated_Source\PSoC4/CapSense_CSHL.c **** 
2010:.\Generated_Source\PSoC4/CapSense_CSHL.c ****                             if ( (0u != (posFiltersMask & CapSense_MEDIAN_FILTER))  ||
2011:.\Generated_Source\PSoC4/CapSense_CSHL.c ****                                  (0u != (posFiltersMask & CapSense_AVERAGING_FILTER)) )
2012:.\Generated_Source\PSoC4/CapSense_CSHL.c ****                             {
2013:.\Generated_Source\PSoC4/CapSense_CSHL.c ****                                 CapSense_posFiltersData[posIndex + 1u] = (uint8) position;
2014:.\Generated_Source\PSoC4/CapSense_CSHL.c ****                             }
2015:.\Generated_Source\PSoC4/CapSense_CSHL.c ****                         #endif /* ((0u != (CapSense_MEDIAN_FILTER & \
2016:.\Generated_Source\PSoC4/CapSense_CSHL.c ****                                *           CapSense_RADIAL_SLIDERS_POS_FILTERS_MASK)) || \
2017:.\Generated_Source\PSoC4/CapSense_CSHL.c ****                                *   (0u != (CapSense_AVERAGING_FILTER & \
2018:.\Generated_Source\PSoC4/CapSense_CSHL.c ****                                *           CapSense_RADIAL_SLIDERS_POS_FILTERS_MASK)))
2019:.\Generated_Source\PSoC4/CapSense_CSHL.c ****                                */
2020:.\Generated_Source\PSoC4/CapSense_CSHL.c **** 
2021:.\Generated_Source\PSoC4/CapSense_CSHL.c ****                         CapSense_posFiltersData[firstTimeIndex] = 1u;
2022:.\Generated_Source\PSoC4/CapSense_CSHL.c ****                     }
2023:.\Generated_Source\PSoC4/CapSense_CSHL.c ****                     else
2024:.\Generated_Source\PSoC4/CapSense_CSHL.c ****                     {
2025:.\Generated_Source\PSoC4/CapSense_CSHL.c ****                         /* Do filtering */
2026:.\Generated_Source\PSoC4/CapSense_CSHL.c ****                         #if (0u != (CapSense_MEDIAN_FILTER & CapSense_RADIAL_SLIDERS_POS_FILTERS_MA
2027:.\Generated_Source\PSoC4/CapSense_CSHL.c ****                             if (0u != (posFiltersMask & CapSense_MEDIAN_FILTER))
2028:.\Generated_Source\PSoC4/CapSense_CSHL.c ****                             {
2029:.\Generated_Source\PSoC4/CapSense_CSHL.c ****                                 tempPos = (uint8) position;
2030:.\Generated_Source\PSoC4/CapSense_CSHL.c ****                                 position = CapSense_MedianFilter(position,
2031:.\Generated_Source\PSoC4/CapSense_CSHL.c ****                                                                         CapSense_posFiltersData[pos
2032:.\Generated_Source\PSoC4/CapSense_CSHL.c ****                                                                         CapSense_posFiltersData[pos
2033:.\Generated_Source\PSoC4/CapSense_CSHL.c ****                                 CapSense_posFiltersData[posIndex + 1u] =
2034:.\Generated_Source\PSoC4/CapSense_CSHL.c ****                                                                               CapSense_posFiltersDa
2035:.\Generated_Source\PSoC4/CapSense_CSHL.c ****                                 CapSense_posFiltersData[posIndex] = tempPos;
2036:.\Generated_Source\PSoC4/CapSense_CSHL.c ****                             }
2037:.\Generated_Source\PSoC4/CapSense_CSHL.c ****                         #endif /* (0u != (CapSense_MEDIAN_FILTER &
2038:.\Generated_Source\PSoC4/CapSense_CSHL.c ****                                *          CapSense_RADIAL_SLIDERS_POS_FILTERS_MASK))
2039:.\Generated_Source\PSoC4/CapSense_CSHL.c ****                                */
2040:.\Generated_Source\PSoC4/CapSense_CSHL.c **** 
2041:.\Generated_Source\PSoC4/CapSense_CSHL.c ****                         #if (0u != (CapSense_AVERAGING_FILTER & \
2042:.\Generated_Source\PSoC4/CapSense_CSHL.c ****                                     CapSense_RADIAL_SLIDERS_POS_FILTERS_MASK))
2043:.\Generated_Source\PSoC4/CapSense_CSHL.c ****                             if (0u != (posFiltersMask & CapSense_AVERAGING_FILTER))
2044:.\Generated_Source\PSoC4/CapSense_CSHL.c ****                             {
2045:.\Generated_Source\PSoC4/CapSense_CSHL.c ****                                 tempPos = (uint8) position;
2046:.\Generated_Source\PSoC4/CapSense_CSHL.c ****                                 position = CapSense_AveragingFilter(position,
2047:.\Generated_Source\PSoC4/CapSense_CSHL.c ****                                                                        CapSense_posFiltersData[posI
2048:.\Generated_Source\PSoC4/CapSense_CSHL.c ****                                                                        CapSense_posFiltersData[posI
2049:.\Generated_Source\PSoC4/CapSense_CSHL.c ****                                 CapSense_posFiltersData[posIndex+1u]= CapSense_posFiltersData[posIn
2050:.\Generated_Source\PSoC4/CapSense_CSHL.c ****                                 CapSense_posFiltersData[posIndex] = tempPos;
2051:.\Generated_Source\PSoC4/CapSense_CSHL.c ****                             }
2052:.\Generated_Source\PSoC4/CapSense_CSHL.c ****                         #endif /* (0u != (CapSense_AVERAGING_FILTER & \
2053:.\Generated_Source\PSoC4/CapSense_CSHL.c ****                                *          CapSense_RADIAL_SLIDERS_POS_FILTERS_MASK))
2054:.\Generated_Source\PSoC4/CapSense_CSHL.c ****                                */
2055:.\Generated_Source\PSoC4/CapSense_CSHL.c **** 
2056:.\Generated_Source\PSoC4/CapSense_CSHL.c ****                         #if (0u != (CapSense_IIR2_FILTER & CapSense_RADIAL_SLIDERS_POS_FILTERS_MASK
2057:.\Generated_Source\PSoC4/CapSense_CSHL.c ****                             if (0u != (posFiltersMask & CapSense_IIR2_FILTER))
2058:.\Generated_Source\PSoC4/CapSense_CSHL.c ****                             {
2059:.\Generated_Source\PSoC4/CapSense_CSHL.c ****                                 position = CapSense_IIR2Filter(position,
2060:.\Generated_Source\PSoC4/CapSense_CSHL.c ****                                                                     (uint16)CapSense_posFiltersData
2061:.\Generated_Source\PSoC4/CapSense_CSHL.c ****                                 CapSense_posFiltersData[posIndex] = (uint8) position;
2062:.\Generated_Source\PSoC4/CapSense_CSHL.c ****                             }
2063:.\Generated_Source\PSoC4/CapSense_CSHL.c ****                         #endif /* (0u != (CapSense_IIR2_FILTER &
2064:.\Generated_Source\PSoC4/CapSense_CSHL.c ****                                *          CapSense_RADIAL_SLIDERS_POS_FILTERS_MASK))
ARM GAS  C:\Users\ALEXAN~1\AppData\Local\Temp\ccCdetCh.s 			page 51


2065:.\Generated_Source\PSoC4/CapSense_CSHL.c ****                                */
2066:.\Generated_Source\PSoC4/CapSense_CSHL.c **** 
2067:.\Generated_Source\PSoC4/CapSense_CSHL.c ****                         #if (0u != (CapSense_IIR4_FILTER & CapSense_RADIAL_SLIDERS_POS_FILTERS_MASK
2068:.\Generated_Source\PSoC4/CapSense_CSHL.c ****                             if (0u != (posFiltersMask & CapSense_IIR4_FILTER))
2069:.\Generated_Source\PSoC4/CapSense_CSHL.c ****                             {
2070:.\Generated_Source\PSoC4/CapSense_CSHL.c ****                                 position = CapSense_IIR4Filter(position,
2071:.\Generated_Source\PSoC4/CapSense_CSHL.c ****                                                                     (uint16)CapSense_posFiltersData
2072:.\Generated_Source\PSoC4/CapSense_CSHL.c ****                                 CapSense_posFiltersData[posIndex] = (uint8) position;
2073:.\Generated_Source\PSoC4/CapSense_CSHL.c ****                             }
2074:.\Generated_Source\PSoC4/CapSense_CSHL.c ****                         #endif /* (0u != (CapSense_IIR4_FILTER &
2075:.\Generated_Source\PSoC4/CapSense_CSHL.c ****                                *          CapSense_RADIAL_SLIDERS_POS_FILTERS_MASK))
2076:.\Generated_Source\PSoC4/CapSense_CSHL.c ****                                */
2077:.\Generated_Source\PSoC4/CapSense_CSHL.c **** 
2078:.\Generated_Source\PSoC4/CapSense_CSHL.c ****                         #if (0u != (CapSense_JITTER_FILTER & CapSense_RADIAL_SLIDERS_POS_FILTERS_MA
2079:.\Generated_Source\PSoC4/CapSense_CSHL.c ****                             if (0u != (posFiltersMask & CapSense_JITTER_FILTER))
2080:.\Generated_Source\PSoC4/CapSense_CSHL.c ****                             {
2081:.\Generated_Source\PSoC4/CapSense_CSHL.c ****                                 position = CapSense_JitterFilter(position,
2082:.\Generated_Source\PSoC4/CapSense_CSHL.c ****                                                                          CapSense_posFiltersData[po
2083:.\Generated_Source\PSoC4/CapSense_CSHL.c ****                                 CapSense_posFiltersData[posIndex] = (uint8) position;
2084:.\Generated_Source\PSoC4/CapSense_CSHL.c ****                             }
2085:.\Generated_Source\PSoC4/CapSense_CSHL.c ****                         #endif /* (0u != (CapSense_JITTER_FILTER &
2086:.\Generated_Source\PSoC4/CapSense_CSHL.c ****                                *           CapSense_RADIAL_SLIDERS_POS_FILTERS_MASK))
2087:.\Generated_Source\PSoC4/CapSense_CSHL.c ****                                */
2088:.\Generated_Source\PSoC4/CapSense_CSHL.c ****                     }
2089:.\Generated_Source\PSoC4/CapSense_CSHL.c ****                 }
2090:.\Generated_Source\PSoC4/CapSense_CSHL.c ****             #endif /* (0u != CapSense_RADIAL_SLIDERS_POS_FILTERS_MASK) */
2091:.\Generated_Source\PSoC4/CapSense_CSHL.c **** 
2092:.\Generated_Source\PSoC4/CapSense_CSHL.c ****         }
2093:.\Generated_Source\PSoC4/CapSense_CSHL.c ****         else
2094:.\Generated_Source\PSoC4/CapSense_CSHL.c ****         {
2095:.\Generated_Source\PSoC4/CapSense_CSHL.c ****             /* Maximum was not found */
2096:.\Generated_Source\PSoC4/CapSense_CSHL.c ****             position = 0xFFFFu;
2097:.\Generated_Source\PSoC4/CapSense_CSHL.c **** 
2098:.\Generated_Source\PSoC4/CapSense_CSHL.c ****             #if (0u != CapSense_RADIAL_SLIDERS_POS_FILTERS_MASK)
2099:.\Generated_Source\PSoC4/CapSense_CSHL.c ****                 /* Reset filters */
2100:.\Generated_Source\PSoC4/CapSense_CSHL.c ****                 if((posFiltersMask & CapSense_ANY_POS_FILTER) != 0u)
2101:.\Generated_Source\PSoC4/CapSense_CSHL.c ****                 {
2102:.\Generated_Source\PSoC4/CapSense_CSHL.c ****                     CapSense_posFiltersData[firstTimeIndex] = 0u;
2103:.\Generated_Source\PSoC4/CapSense_CSHL.c ****                 }
2104:.\Generated_Source\PSoC4/CapSense_CSHL.c ****             #endif /* (0u != CapSense_RADIAL_SLIDERS_POS_FILTERS_MASK) */
2105:.\Generated_Source\PSoC4/CapSense_CSHL.c ****         }
2106:.\Generated_Source\PSoC4/CapSense_CSHL.c **** 
2107:.\Generated_Source\PSoC4/CapSense_CSHL.c ****         return (position);
2108:.\Generated_Source\PSoC4/CapSense_CSHL.c ****     }
2109:.\Generated_Source\PSoC4/CapSense_CSHL.c **** #endif /* ((CapSense_TOTAL_RADIAL_SLIDERS_COUNT > 0u) || (CapSense_TOTAL_LINEAR_SLIDERS_COUNT > 0u)
2110:.\Generated_Source\PSoC4/CapSense_CSHL.c **** 
2111:.\Generated_Source\PSoC4/CapSense_CSHL.c **** 
2112:.\Generated_Source\PSoC4/CapSense_CSHL.c **** #if(CapSense_TOTAL_TOUCH_PADS_BASIC_COUNT > 0u)
2113:.\Generated_Source\PSoC4/CapSense_CSHL.c ****     /*******************************************************************************
2114:.\Generated_Source\PSoC4/CapSense_CSHL.c ****     * Function Name: CapSense_GetTouchCentroidPos
2115:.\Generated_Source\PSoC4/CapSense_CSHL.c ****     ********************************************************************************
2116:.\Generated_Source\PSoC4/CapSense_CSHL.c ****     *
2117:.\Generated_Source\PSoC4/CapSense_CSHL.c ****     * Summary:
2118:.\Generated_Source\PSoC4/CapSense_CSHL.c ****     *  If a finger is present on a touchpad, this function calculates the X and Y
2119:.\Generated_Source\PSoC4/CapSense_CSHL.c ****     *  position of the finger by calculating the centroids within touchpad specified
2120:.\Generated_Source\PSoC4/CapSense_CSHL.c ****     *  range. The X and Y positions are calculated according to the API resolutions set in the
2121:.\Generated_Source\PSoC4/CapSense_CSHL.c ****     *  CapSense customizer. Returns 1 if a finger is on the touchpad.
ARM GAS  C:\Users\ALEXAN~1\AppData\Local\Temp\ccCdetCh.s 			page 52


2122:.\Generated_Source\PSoC4/CapSense_CSHL.c ****     *  The position filter is applied to the result if enabled.
2123:.\Generated_Source\PSoC4/CapSense_CSHL.c ****     *  This function is available only if a touch pad is defined by the CapSense
2124:.\Generated_Source\PSoC4/CapSense_CSHL.c ****     *  customizer.
2125:.\Generated_Source\PSoC4/CapSense_CSHL.c ****     *
2126:.\Generated_Source\PSoC4/CapSense_CSHL.c ****     * Parameters:
2127:.\Generated_Source\PSoC4/CapSense_CSHL.c ****     *  widget:  Widget number.
2128:.\Generated_Source\PSoC4/CapSense_CSHL.c ****     *  For every touchpad widget there are defines in this format:
2129:.\Generated_Source\PSoC4/CapSense_CSHL.c ****     *  #define CapSense_"widget_name"__TP            5
2130:.\Generated_Source\PSoC4/CapSense_CSHL.c ****     *
2131:.\Generated_Source\PSoC4/CapSense_CSHL.c ****     *  pos:     Pointer to the array of two uint16 elements, where result
2132:.\Generated_Source\PSoC4/CapSense_CSHL.c ****     *  result of calculation of X and Y position are stored.
2133:.\Generated_Source\PSoC4/CapSense_CSHL.c ****     *  pos[0u]  - position of X
2134:.\Generated_Source\PSoC4/CapSense_CSHL.c ****     *  pos[1u]  - position of Y
2135:.\Generated_Source\PSoC4/CapSense_CSHL.c ****     *
2136:.\Generated_Source\PSoC4/CapSense_CSHL.c ****     * Return:
2137:.\Generated_Source\PSoC4/CapSense_CSHL.c ****     *  Returns a 1 if a finger is on the touch pad, 0 - if not.
2138:.\Generated_Source\PSoC4/CapSense_CSHL.c ****     *
2139:.\Generated_Source\PSoC4/CapSense_CSHL.c ****     * Global Variables:
2140:.\Generated_Source\PSoC4/CapSense_CSHL.c ****     *  None.
2141:.\Generated_Source\PSoC4/CapSense_CSHL.c ****     *
2142:.\Generated_Source\PSoC4/CapSense_CSHL.c ****     * Side Effects:
2143:.\Generated_Source\PSoC4/CapSense_CSHL.c ****     *   There are no checks of the widget type argument provided to this function.
2144:.\Generated_Source\PSoC4/CapSense_CSHL.c ****     *   The unproper widget type provided will cause unexpected position
2145:.\Generated_Source\PSoC4/CapSense_CSHL.c ****     *   calculations.
2146:.\Generated_Source\PSoC4/CapSense_CSHL.c ****     *
2147:.\Generated_Source\PSoC4/CapSense_CSHL.c ****     *******************************************************************************/
2148:.\Generated_Source\PSoC4/CapSense_CSHL.c ****     uint32 CapSense_GetTouchCentroidPos(uint32 widget, uint16* pos)
2149:.\Generated_Source\PSoC4/CapSense_CSHL.c ****     {
2150:.\Generated_Source\PSoC4/CapSense_CSHL.c ****         #if (0u != CapSense_TOUCH_PADS_POS_FILTERS_MASK)
2151:.\Generated_Source\PSoC4/CapSense_CSHL.c ****             uint8 posXIndex;
2152:.\Generated_Source\PSoC4/CapSense_CSHL.c ****             uint8 posYIndex;
2153:.\Generated_Source\PSoC4/CapSense_CSHL.c ****             uint8 firstTimeIndex = CapSense_posFiltersData[widget];
2154:.\Generated_Source\PSoC4/CapSense_CSHL.c ****             uint8 posFiltersMask = CapSense_posFiltersMask[widget];
2155:.\Generated_Source\PSoC4/CapSense_CSHL.c ****         #endif /* (0u != CapSense_TOUCH_PADS_POS_FILTERS_MASK) */
2156:.\Generated_Source\PSoC4/CapSense_CSHL.c **** 
2157:.\Generated_Source\PSoC4/CapSense_CSHL.c ****         #if ((0u != (CapSense_MEDIAN_FILTER & CapSense_TOUCH_PADS_POS_FILTERS_MASK)) || \
2158:.\Generated_Source\PSoC4/CapSense_CSHL.c ****              (0u != (CapSense_AVERAGING_FILTER & CapSense_TOUCH_PADS_POS_FILTERS_MASK)))
2159:.\Generated_Source\PSoC4/CapSense_CSHL.c ****             uint16 tempPos;
2160:.\Generated_Source\PSoC4/CapSense_CSHL.c ****         #endif /* ((0u != (CapSense_MEDIAN_FILTER & CapSense_TOUCH_PADS_POS_FILTERS_MASK)) || \
2161:.\Generated_Source\PSoC4/CapSense_CSHL.c ****                *   (0u != (CapSense_AVERAGING_FILTER & CapSense_TOUCH_PADS_POS_FILTERS_MASK)))
2162:.\Generated_Source\PSoC4/CapSense_CSHL.c ****                */
2163:.\Generated_Source\PSoC4/CapSense_CSHL.c **** 
2164:.\Generated_Source\PSoC4/CapSense_CSHL.c ****         uint8 MaxX;
2165:.\Generated_Source\PSoC4/CapSense_CSHL.c ****         uint8 MaxY;
2166:.\Generated_Source\PSoC4/CapSense_CSHL.c ****         uint8 posX;
2167:.\Generated_Source\PSoC4/CapSense_CSHL.c ****         uint8 posY;
2168:.\Generated_Source\PSoC4/CapSense_CSHL.c ****         uint32 touch = 0u;
2169:.\Generated_Source\PSoC4/CapSense_CSHL.c ****         uint8 offset = CapSense_rawDataIndex[widget];
2170:.\Generated_Source\PSoC4/CapSense_CSHL.c ****         uint8 count = CapSense_numberOfSensors[widget];
2171:.\Generated_Source\PSoC4/CapSense_CSHL.c **** 
2172:.\Generated_Source\PSoC4/CapSense_CSHL.c ****         /* Find Maximum within X centroid */
2173:.\Generated_Source\PSoC4/CapSense_CSHL.c ****         #if (CapSense_IS_DIPLEX_SLIDER)
2174:.\Generated_Source\PSoC4/CapSense_CSHL.c ****             MaxX = CapSense_FindMaximum(offset, count, CapSense_fingerThreshold[widget], 0u);
2175:.\Generated_Source\PSoC4/CapSense_CSHL.c ****         #else
2176:.\Generated_Source\PSoC4/CapSense_CSHL.c ****             MaxX = CapSense_FindMaximum(offset, count, CapSense_fingerThreshold[widget]);
2177:.\Generated_Source\PSoC4/CapSense_CSHL.c ****         #endif /* (CapSense_IS_DIPLEX_SLIDER) */
2178:.\Generated_Source\PSoC4/CapSense_CSHL.c **** 
ARM GAS  C:\Users\ALEXAN~1\AppData\Local\Temp\ccCdetCh.s 			page 53


2179:.\Generated_Source\PSoC4/CapSense_CSHL.c ****         if (MaxX != CapSense_MAXIMUM_CENTROID)
2180:.\Generated_Source\PSoC4/CapSense_CSHL.c ****         {
2181:.\Generated_Source\PSoC4/CapSense_CSHL.c ****             offset = CapSense_rawDataIndex[widget + 1u];
2182:.\Generated_Source\PSoC4/CapSense_CSHL.c ****             count = CapSense_numberOfSensors[widget + 1u];
2183:.\Generated_Source\PSoC4/CapSense_CSHL.c **** 
2184:.\Generated_Source\PSoC4/CapSense_CSHL.c ****             /* Find Maximum within Y centroid */
2185:.\Generated_Source\PSoC4/CapSense_CSHL.c ****             #if (CapSense_IS_DIPLEX_SLIDER)
2186:.\Generated_Source\PSoC4/CapSense_CSHL.c ****                 MaxY = CapSense_FindMaximum(offset, count, CapSense_fingerThreshold[widget + 1u], 0
2187:.\Generated_Source\PSoC4/CapSense_CSHL.c ****             #else
2188:.\Generated_Source\PSoC4/CapSense_CSHL.c ****                 MaxY = CapSense_FindMaximum(offset, count, CapSense_fingerThreshold[widget + 1u]);
2189:.\Generated_Source\PSoC4/CapSense_CSHL.c ****             #endif /* (CapSense_IS_DIPLEX_SLIDER) */
2190:.\Generated_Source\PSoC4/CapSense_CSHL.c **** 
2191:.\Generated_Source\PSoC4/CapSense_CSHL.c ****             if (MaxY != CapSense_MAXIMUM_CENTROID)
2192:.\Generated_Source\PSoC4/CapSense_CSHL.c ****             {
2193:.\Generated_Source\PSoC4/CapSense_CSHL.c ****                 /* X and Y maximums are found = true touch */
2194:.\Generated_Source\PSoC4/CapSense_CSHL.c ****                 touch = 1u;
2195:.\Generated_Source\PSoC4/CapSense_CSHL.c **** 
2196:.\Generated_Source\PSoC4/CapSense_CSHL.c ****                 /* Calculate Y centroid */
2197:.\Generated_Source\PSoC4/CapSense_CSHL.c ****                 posY = CapSense_CalcCentroid(MaxY, offset, count,
2198:.\Generated_Source\PSoC4/CapSense_CSHL.c ****                             CapSense_centroidMult[widget + 1u], CapSense_noiseThreshold[widget + 1u
2199:.\Generated_Source\PSoC4/CapSense_CSHL.c **** 
2200:.\Generated_Source\PSoC4/CapSense_CSHL.c ****                 /* Calculate X centroid */
2201:.\Generated_Source\PSoC4/CapSense_CSHL.c ****                 offset = CapSense_rawDataIndex[widget];
2202:.\Generated_Source\PSoC4/CapSense_CSHL.c ****                 count = CapSense_numberOfSensors[widget];
2203:.\Generated_Source\PSoC4/CapSense_CSHL.c **** 
2204:.\Generated_Source\PSoC4/CapSense_CSHL.c ****                 posX = CapSense_CalcCentroid(MaxX, offset, count,
2205:.\Generated_Source\PSoC4/CapSense_CSHL.c ****                             CapSense_centroidMult[widget],CapSense_noiseThreshold[widget]);
2206:.\Generated_Source\PSoC4/CapSense_CSHL.c **** 
2207:.\Generated_Source\PSoC4/CapSense_CSHL.c ****                 #if (0u != CapSense_TOUCH_PADS_POS_FILTERS_MASK)
2208:.\Generated_Source\PSoC4/CapSense_CSHL.c ****                     /* Check if this TP has enabled filters */
2209:.\Generated_Source\PSoC4/CapSense_CSHL.c ****                     if (0u != (posFiltersMask & CapSense_ANY_POS_FILTER))
2210:.\Generated_Source\PSoC4/CapSense_CSHL.c ****                     {
2211:.\Generated_Source\PSoC4/CapSense_CSHL.c ****                         /* Calculate position to store filters data */
2212:.\Generated_Source\PSoC4/CapSense_CSHL.c ****                         posXIndex  = firstTimeIndex + 1u;
2213:.\Generated_Source\PSoC4/CapSense_CSHL.c ****                         posYIndex  = CapSense_posFiltersData[widget + 1u];
2214:.\Generated_Source\PSoC4/CapSense_CSHL.c **** 
2215:.\Generated_Source\PSoC4/CapSense_CSHL.c ****                         if (0u == CapSense_posFiltersData[firstTimeIndex])
2216:.\Generated_Source\PSoC4/CapSense_CSHL.c ****                         {
2217:.\Generated_Source\PSoC4/CapSense_CSHL.c ****                             /* Init filters */
2218:.\Generated_Source\PSoC4/CapSense_CSHL.c ****                             CapSense_posFiltersData[posXIndex] = posX;
2219:.\Generated_Source\PSoC4/CapSense_CSHL.c ****                             CapSense_posFiltersData[posYIndex] = posY;
2220:.\Generated_Source\PSoC4/CapSense_CSHL.c **** 
2221:.\Generated_Source\PSoC4/CapSense_CSHL.c ****                             #if((0u != (CapSense_MEDIAN_FILTER & \
2222:.\Generated_Source\PSoC4/CapSense_CSHL.c ****                                         CapSense_TOUCH_PADS_POS_FILTERS_MASK))|| \
2223:.\Generated_Source\PSoC4/CapSense_CSHL.c ****                                 (0u != (CapSense_AVERAGING_FILTER & \
2224:.\Generated_Source\PSoC4/CapSense_CSHL.c ****                                         CapSense_TOUCH_PADS_POS_FILTERS_MASK)))
2225:.\Generated_Source\PSoC4/CapSense_CSHL.c **** 
2226:.\Generated_Source\PSoC4/CapSense_CSHL.c ****                                 if ( (0u != (posFiltersMask & CapSense_MEDIAN_FILTER)) ||
2227:.\Generated_Source\PSoC4/CapSense_CSHL.c ****                                      (0u != (posFiltersMask & CapSense_AVERAGING_FILTER)) )
2228:.\Generated_Source\PSoC4/CapSense_CSHL.c ****                                 {
2229:.\Generated_Source\PSoC4/CapSense_CSHL.c ****                                     CapSense_posFiltersData[posXIndex + 1u] = posX;
2230:.\Generated_Source\PSoC4/CapSense_CSHL.c ****                                     CapSense_posFiltersData[posYIndex + 1u] = posY;
2231:.\Generated_Source\PSoC4/CapSense_CSHL.c ****                                 }
2232:.\Generated_Source\PSoC4/CapSense_CSHL.c ****                             #endif /* ((0u != (CapSense_MEDIAN_FILTER & \
2233:.\Generated_Source\PSoC4/CapSense_CSHL.c ****                                    *           CapSense_TOUCH_PADS_POS_FILTERS_MASK)) || \
2234:.\Generated_Source\PSoC4/CapSense_CSHL.c ****                                    *    (0u != (CapSense_AVERAGING_FILTER & \
2235:.\Generated_Source\PSoC4/CapSense_CSHL.c ****                                    *            CapSense_TOUCH_PADS_POS_FILTERS_MASK)))
ARM GAS  C:\Users\ALEXAN~1\AppData\Local\Temp\ccCdetCh.s 			page 54


2236:.\Generated_Source\PSoC4/CapSense_CSHL.c ****                                    */
2237:.\Generated_Source\PSoC4/CapSense_CSHL.c **** 
2238:.\Generated_Source\PSoC4/CapSense_CSHL.c ****                             CapSense_posFiltersData[firstTimeIndex] = 1u;
2239:.\Generated_Source\PSoC4/CapSense_CSHL.c ****                         }
2240:.\Generated_Source\PSoC4/CapSense_CSHL.c ****                         else
2241:.\Generated_Source\PSoC4/CapSense_CSHL.c ****                         {
2242:.\Generated_Source\PSoC4/CapSense_CSHL.c ****                             /* Do filtering */
2243:.\Generated_Source\PSoC4/CapSense_CSHL.c ****                             #if (0u != (CapSense_MEDIAN_FILTER & CapSense_TOUCH_PADS_POS_FILTERS_MA
2244:.\Generated_Source\PSoC4/CapSense_CSHL.c ****                                 if (0u != (posFiltersMask & CapSense_MEDIAN_FILTER))
2245:.\Generated_Source\PSoC4/CapSense_CSHL.c ****                                 {
2246:.\Generated_Source\PSoC4/CapSense_CSHL.c ****                                     tempPos = posX;
2247:.\Generated_Source\PSoC4/CapSense_CSHL.c ****                                     posX = (uint8) CapSense_MedianFilter(posX,
2248:.\Generated_Source\PSoC4/CapSense_CSHL.c ****                                                                       CapSense_posFiltersData[posXI
2249:.\Generated_Source\PSoC4/CapSense_CSHL.c ****                                                                       CapSense_posFiltersData[posXI
2250:.\Generated_Source\PSoC4/CapSense_CSHL.c ****                                     CapSense_posFiltersData[posXIndex + 1u] =
2251:.\Generated_Source\PSoC4/CapSense_CSHL.c ****                                                                              CapSense_posFiltersDat
2252:.\Generated_Source\PSoC4/CapSense_CSHL.c ****                                     CapSense_posFiltersData[posXIndex] = tempPos;
2253:.\Generated_Source\PSoC4/CapSense_CSHL.c **** 
2254:.\Generated_Source\PSoC4/CapSense_CSHL.c ****                                     tempPos = posY;
2255:.\Generated_Source\PSoC4/CapSense_CSHL.c ****                                     posY = (uint8) CapSense_MedianFilter(posY,
2256:.\Generated_Source\PSoC4/CapSense_CSHL.c ****                                                                        CapSense_posFiltersData[posY
2257:.\Generated_Source\PSoC4/CapSense_CSHL.c ****                                                                        CapSense_posFiltersData[posY
2258:.\Generated_Source\PSoC4/CapSense_CSHL.c ****                                     CapSense_posFiltersData[posYIndex + 1u] =
2259:.\Generated_Source\PSoC4/CapSense_CSHL.c ****                                                                              CapSense_posFiltersDat
2260:.\Generated_Source\PSoC4/CapSense_CSHL.c ****                                     CapSense_posFiltersData[posYIndex] = tempPos;
2261:.\Generated_Source\PSoC4/CapSense_CSHL.c ****                                 }
2262:.\Generated_Source\PSoC4/CapSense_CSHL.c **** 
2263:.\Generated_Source\PSoC4/CapSense_CSHL.c ****                             #endif /* (0u != (CapSense_MEDIAN_FILTER & \
2264:.\Generated_Source\PSoC4/CapSense_CSHL.c ****                                    *          CapSense_TOUCH_PADS_POS_FILTERS_MASK))
2265:.\Generated_Source\PSoC4/CapSense_CSHL.c ****                                    */
2266:.\Generated_Source\PSoC4/CapSense_CSHL.c **** 
2267:.\Generated_Source\PSoC4/CapSense_CSHL.c ****                             #if(0u !=(CapSense_AVERAGING_FILTER & CapSense_TOUCH_PADS_POS_FILTERS_M
2268:.\Generated_Source\PSoC4/CapSense_CSHL.c ****                                 if (0u != (posFiltersMask & CapSense_AVERAGING_FILTER))
2269:.\Generated_Source\PSoC4/CapSense_CSHL.c ****                                 {
2270:.\Generated_Source\PSoC4/CapSense_CSHL.c ****                                     tempPos = posX;
2271:.\Generated_Source\PSoC4/CapSense_CSHL.c ****                                     posX = (uint8) CapSense_AveragingFilter(posX,
2272:.\Generated_Source\PSoC4/CapSense_CSHL.c ****                                                                        CapSense_posFiltersData[posX
2273:.\Generated_Source\PSoC4/CapSense_CSHL.c ****                                                                        CapSense_posFiltersData[posX
2274:.\Generated_Source\PSoC4/CapSense_CSHL.c ****                                     CapSense_posFiltersData[posXIndex + 1u] =
2275:.\Generated_Source\PSoC4/CapSense_CSHL.c ****                                                                              CapSense_posFiltersDat
2276:.\Generated_Source\PSoC4/CapSense_CSHL.c ****                                     CapSense_posFiltersData[posXIndex] = tempPos;
2277:.\Generated_Source\PSoC4/CapSense_CSHL.c **** 
2278:.\Generated_Source\PSoC4/CapSense_CSHL.c ****                                     tempPos = posY;
2279:.\Generated_Source\PSoC4/CapSense_CSHL.c ****                                     posY = (uint8) CapSense_AveragingFilter(posY,
2280:.\Generated_Source\PSoC4/CapSense_CSHL.c ****                                                                       CapSense_posFiltersData[posYI
2281:.\Generated_Source\PSoC4/CapSense_CSHL.c ****                                                                       CapSense_posFiltersData[posYI
2282:.\Generated_Source\PSoC4/CapSense_CSHL.c ****                                     CapSense_posFiltersData[posYIndex + 1u] =
2283:.\Generated_Source\PSoC4/CapSense_CSHL.c ****                                                                             CapSense_posFiltersData
2284:.\Generated_Source\PSoC4/CapSense_CSHL.c ****                                     CapSense_posFiltersData[posYIndex] = tempPos;
2285:.\Generated_Source\PSoC4/CapSense_CSHL.c ****                                 }
2286:.\Generated_Source\PSoC4/CapSense_CSHL.c **** 
2287:.\Generated_Source\PSoC4/CapSense_CSHL.c ****                             #endif /* (0u != (CapSense_AVERAGING_FILTER & \
2288:.\Generated_Source\PSoC4/CapSense_CSHL.c ****                                    *           CapSense_TOUCH_PADS_POS_FILTERS_MASK))
2289:.\Generated_Source\PSoC4/CapSense_CSHL.c ****                                    */
2290:.\Generated_Source\PSoC4/CapSense_CSHL.c **** 
2291:.\Generated_Source\PSoC4/CapSense_CSHL.c ****                             #if (0u != (CapSense_IIR2_FILTER & CapSense_TOUCH_PADS_POS_FILTERS_MASK
2292:.\Generated_Source\PSoC4/CapSense_CSHL.c ****                                 if (0u != (posFiltersMask & CapSense_IIR2_FILTER))
ARM GAS  C:\Users\ALEXAN~1\AppData\Local\Temp\ccCdetCh.s 			page 55


2293:.\Generated_Source\PSoC4/CapSense_CSHL.c ****                                 {
2294:.\Generated_Source\PSoC4/CapSense_CSHL.c ****                                     posX = (uint8) CapSense_IIR2Filter(posX,
2295:.\Generated_Source\PSoC4/CapSense_CSHL.c ****                                                                            CapSense_posFiltersData[
2296:.\Generated_Source\PSoC4/CapSense_CSHL.c ****                                     CapSense_posFiltersData[posXIndex] = posX;
2297:.\Generated_Source\PSoC4/CapSense_CSHL.c **** 
2298:.\Generated_Source\PSoC4/CapSense_CSHL.c ****                                     posY = (uint8) CapSense_IIR2Filter(posY,
2299:.\Generated_Source\PSoC4/CapSense_CSHL.c ****                                                                             CapSense_posFiltersData
2300:.\Generated_Source\PSoC4/CapSense_CSHL.c ****                                     CapSense_posFiltersData[posYIndex] = posY;
2301:.\Generated_Source\PSoC4/CapSense_CSHL.c ****                                 }
2302:.\Generated_Source\PSoC4/CapSense_CSHL.c **** 
2303:.\Generated_Source\PSoC4/CapSense_CSHL.c ****                             #endif /* (0u != (CapSense_IIR2_FILTER & \
2304:.\Generated_Source\PSoC4/CapSense_CSHL.c ****                                    *          CapSense_TOUCH_PADS_POS_FILTERS_MASK))
2305:.\Generated_Source\PSoC4/CapSense_CSHL.c ****                                    */
2306:.\Generated_Source\PSoC4/CapSense_CSHL.c **** 
2307:.\Generated_Source\PSoC4/CapSense_CSHL.c ****                             #if (0u != (CapSense_IIR4_FILTER & CapSense_TOUCH_PADS_POS_FILTERS_MASK
2308:.\Generated_Source\PSoC4/CapSense_CSHL.c ****                                 if (0u != (posFiltersMask & CapSense_IIR4_FILTER))
2309:.\Generated_Source\PSoC4/CapSense_CSHL.c ****                                 {
2310:.\Generated_Source\PSoC4/CapSense_CSHL.c ****                                     posX = (uint8) CapSense_IIR4Filter((uint16)posX,
2311:.\Generated_Source\PSoC4/CapSense_CSHL.c ****                                                                     (uint16)CapSense_posFiltersData
2312:.\Generated_Source\PSoC4/CapSense_CSHL.c ****                                     CapSense_posFiltersData[posXIndex] = posX;
2313:.\Generated_Source\PSoC4/CapSense_CSHL.c **** 
2314:.\Generated_Source\PSoC4/CapSense_CSHL.c ****                                     posY = (uint8) CapSense_IIR4Filter((uint16)posY,
2315:.\Generated_Source\PSoC4/CapSense_CSHL.c ****                                                                     (uint16)CapSense_posFiltersData
2316:.\Generated_Source\PSoC4/CapSense_CSHL.c ****                                     CapSense_posFiltersData[posYIndex] = posY;
2317:.\Generated_Source\PSoC4/CapSense_CSHL.c ****                                 }
2318:.\Generated_Source\PSoC4/CapSense_CSHL.c **** 
2319:.\Generated_Source\PSoC4/CapSense_CSHL.c ****                             #endif /* (0u != (CapSense_IIR4_FILTER & \
2320:.\Generated_Source\PSoC4/CapSense_CSHL.c ****                                    *           CapSense_TOUCH_PADS_POS_FILTERS_MASK))
2321:.\Generated_Source\PSoC4/CapSense_CSHL.c ****                                    */
2322:.\Generated_Source\PSoC4/CapSense_CSHL.c **** 
2323:.\Generated_Source\PSoC4/CapSense_CSHL.c ****                             #if (0u != (CapSense_JITTER_FILTER & CapSense_TOUCH_PADS_POS_FILTERS_MA
2324:.\Generated_Source\PSoC4/CapSense_CSHL.c ****                                 if (0u != (posFiltersMask & CapSense_JITTER_FILTER))
2325:.\Generated_Source\PSoC4/CapSense_CSHL.c ****                                     {
2326:.\Generated_Source\PSoC4/CapSense_CSHL.c ****                                         posX = (uint8) CapSense_JitterFilter(posX,
2327:.\Generated_Source\PSoC4/CapSense_CSHL.c ****                                                                             CapSense_posFiltersData
2328:.\Generated_Source\PSoC4/CapSense_CSHL.c ****                                         CapSense_posFiltersData[posXIndex] = posX;
2329:.\Generated_Source\PSoC4/CapSense_CSHL.c **** 
2330:.\Generated_Source\PSoC4/CapSense_CSHL.c ****                                         posY = (uint8) CapSense_JitterFilter(posY,
2331:.\Generated_Source\PSoC4/CapSense_CSHL.c ****                                                                             CapSense_posFiltersData
2332:.\Generated_Source\PSoC4/CapSense_CSHL.c ****                                         CapSense_posFiltersData[posYIndex] = posY;
2333:.\Generated_Source\PSoC4/CapSense_CSHL.c ****                                     }
2334:.\Generated_Source\PSoC4/CapSense_CSHL.c ****                             #endif /* (0u != (CapSense_JITTER_FILTER & \
2335:.\Generated_Source\PSoC4/CapSense_CSHL.c ****                                    *           CapSense_TOUCH_PADS_POS_FILTERS_MASK))
2336:.\Generated_Source\PSoC4/CapSense_CSHL.c ****                                    */
2337:.\Generated_Source\PSoC4/CapSense_CSHL.c ****                         }
2338:.\Generated_Source\PSoC4/CapSense_CSHL.c ****                     }
2339:.\Generated_Source\PSoC4/CapSense_CSHL.c ****                 #endif /* (0u != CapSense_TOUCH_PADS_POS_FILTERS_MASK) */
2340:.\Generated_Source\PSoC4/CapSense_CSHL.c **** 
2341:.\Generated_Source\PSoC4/CapSense_CSHL.c ****                 /* Save positions */
2342:.\Generated_Source\PSoC4/CapSense_CSHL.c ****                 pos[0u] = posX;
2343:.\Generated_Source\PSoC4/CapSense_CSHL.c ****                 pos[1u] = posY;
2344:.\Generated_Source\PSoC4/CapSense_CSHL.c ****             }
2345:.\Generated_Source\PSoC4/CapSense_CSHL.c ****         }
2346:.\Generated_Source\PSoC4/CapSense_CSHL.c **** 
2347:.\Generated_Source\PSoC4/CapSense_CSHL.c ****         #if (0u != CapSense_TOUCH_PADS_POS_FILTERS_MASK)
2348:.\Generated_Source\PSoC4/CapSense_CSHL.c ****             if(touch == 0u)
2349:.\Generated_Source\PSoC4/CapSense_CSHL.c ****             {
ARM GAS  C:\Users\ALEXAN~1\AppData\Local\Temp\ccCdetCh.s 			page 56


2350:.\Generated_Source\PSoC4/CapSense_CSHL.c ****                 /* Reset filters */
2351:.\Generated_Source\PSoC4/CapSense_CSHL.c ****                 if ((posFiltersMask & CapSense_ANY_POS_FILTER) != 0u)
2352:.\Generated_Source\PSoC4/CapSense_CSHL.c ****                 {
2353:.\Generated_Source\PSoC4/CapSense_CSHL.c ****                     CapSense_posFiltersData[firstTimeIndex] = 0u;
2354:.\Generated_Source\PSoC4/CapSense_CSHL.c ****                 }
2355:.\Generated_Source\PSoC4/CapSense_CSHL.c ****             }
2356:.\Generated_Source\PSoC4/CapSense_CSHL.c ****         #endif /* (0u != CapSense_TOUCH_PADS_POS_FILTERS_MASK) */
2357:.\Generated_Source\PSoC4/CapSense_CSHL.c **** 
2358:.\Generated_Source\PSoC4/CapSense_CSHL.c ****         return (touch);
2359:.\Generated_Source\PSoC4/CapSense_CSHL.c ****     }
2360:.\Generated_Source\PSoC4/CapSense_CSHL.c **** #endif /* (CapSense_TOTAL_TOUCH_PADS_BASIC_COUNT > 0u) */
2361:.\Generated_Source\PSoC4/CapSense_CSHL.c **** 
2362:.\Generated_Source\PSoC4/CapSense_CSHL.c **** 
2363:.\Generated_Source\PSoC4/CapSense_CSHL.c **** #if ( (0u != (CapSense_RAW_FILTER_MASK & CapSense_MEDIAN_FILTER)) || \
2364:.\Generated_Source\PSoC4/CapSense_CSHL.c ****       (0u != (CapSense_POS_FILTERS_MASK & CapSense_MEDIAN_FILTER)) || \
2365:.\Generated_Source\PSoC4/CapSense_CSHL.c ****       ((CapSense_TUNING_METHOD == CapSense__TUNING_AUTO)) )
2366:.\Generated_Source\PSoC4/CapSense_CSHL.c ****     /*******************************************************************************
2367:.\Generated_Source\PSoC4/CapSense_CSHL.c ****     * Function Name: CapSense_MedianFilter
2368:.\Generated_Source\PSoC4/CapSense_CSHL.c ****     ********************************************************************************
2369:.\Generated_Source\PSoC4/CapSense_CSHL.c ****     *
2370:.\Generated_Source\PSoC4/CapSense_CSHL.c ****     * Summary:
2371:.\Generated_Source\PSoC4/CapSense_CSHL.c ****     *  This is the Median filter function.
2372:.\Generated_Source\PSoC4/CapSense_CSHL.c ****     *  The median filter looks at the three most recent samples and reports the
2373:.\Generated_Source\PSoC4/CapSense_CSHL.c ****     *  median value.
2374:.\Generated_Source\PSoC4/CapSense_CSHL.c ****     *
2375:.\Generated_Source\PSoC4/CapSense_CSHL.c ****     * Parameters:
2376:.\Generated_Source\PSoC4/CapSense_CSHL.c ****     *  x1:  Current value.
2377:.\Generated_Source\PSoC4/CapSense_CSHL.c ****     *  x2:  Previous value.
2378:.\Generated_Source\PSoC4/CapSense_CSHL.c ****     *  x3:  Before previous value.
2379:.\Generated_Source\PSoC4/CapSense_CSHL.c ****     *
2380:.\Generated_Source\PSoC4/CapSense_CSHL.c ****     * Return:
2381:.\Generated_Source\PSoC4/CapSense_CSHL.c ****     *  Returns filtered value.
2382:.\Generated_Source\PSoC4/CapSense_CSHL.c ****     *
2383:.\Generated_Source\PSoC4/CapSense_CSHL.c ****     * Global Variables:
2384:.\Generated_Source\PSoC4/CapSense_CSHL.c ****     *  None.
2385:.\Generated_Source\PSoC4/CapSense_CSHL.c ****     *
2386:.\Generated_Source\PSoC4/CapSense_CSHL.c ****     * Side Effects:
2387:.\Generated_Source\PSoC4/CapSense_CSHL.c ****     *  None
2388:.\Generated_Source\PSoC4/CapSense_CSHL.c ****     *
2389:.\Generated_Source\PSoC4/CapSense_CSHL.c ****     *******************************************************************************/
2390:.\Generated_Source\PSoC4/CapSense_CSHL.c ****     uint16 CapSense_MedianFilter(uint16 x1, uint16 x2, uint16 x3)
2391:.\Generated_Source\PSoC4/CapSense_CSHL.c ****     {
2392:.\Generated_Source\PSoC4/CapSense_CSHL.c ****         uint16 tmp;
2393:.\Generated_Source\PSoC4/CapSense_CSHL.c **** 
2394:.\Generated_Source\PSoC4/CapSense_CSHL.c ****         if (x1 > x2)
2395:.\Generated_Source\PSoC4/CapSense_CSHL.c ****         {
2396:.\Generated_Source\PSoC4/CapSense_CSHL.c ****             tmp = x2;
2397:.\Generated_Source\PSoC4/CapSense_CSHL.c ****             x2 = x1;
2398:.\Generated_Source\PSoC4/CapSense_CSHL.c ****             x1 = tmp;
2399:.\Generated_Source\PSoC4/CapSense_CSHL.c ****         }
2400:.\Generated_Source\PSoC4/CapSense_CSHL.c **** 
2401:.\Generated_Source\PSoC4/CapSense_CSHL.c ****         if (x2 > x3)
2402:.\Generated_Source\PSoC4/CapSense_CSHL.c ****         {
2403:.\Generated_Source\PSoC4/CapSense_CSHL.c ****             x2 = x3;
2404:.\Generated_Source\PSoC4/CapSense_CSHL.c ****         }
2405:.\Generated_Source\PSoC4/CapSense_CSHL.c **** 
2406:.\Generated_Source\PSoC4/CapSense_CSHL.c ****         return ((x1 > x2) ? x1 : x2);
ARM GAS  C:\Users\ALEXAN~1\AppData\Local\Temp\ccCdetCh.s 			page 57


2407:.\Generated_Source\PSoC4/CapSense_CSHL.c ****     }
2408:.\Generated_Source\PSoC4/CapSense_CSHL.c **** #endif /* ( (0u != (CapSense_RAW_FILTER_MASK & CapSense_MEDIAN_FILTER)) || \
2409:.\Generated_Source\PSoC4/CapSense_CSHL.c ****       (0u != (CapSense_POS_FILTERS_MASK & CapSense_MEDIAN_FILTER)) || \
2410:.\Generated_Source\PSoC4/CapSense_CSHL.c ****       ((CapSense_TUNING_METHOD == CapSense__TUNING_AUTO)) ) */
2411:.\Generated_Source\PSoC4/CapSense_CSHL.c **** 
2412:.\Generated_Source\PSoC4/CapSense_CSHL.c **** 
