ARM GAS  C:\Users\ALEXAN~1\AppData\Local\Temp\ccNwHBzY.s 			page 1


   1              		.cpu cortex-m0
   2              		.fpu softvfp
   3              		.eabi_attribute 20, 1
   4              		.eabi_attribute 21, 1
   5              		.eabi_attribute 23, 3
   6              		.eabi_attribute 24, 1
   7              		.eabi_attribute 25, 1
   8              		.eabi_attribute 26, 1
   9              		.eabi_attribute 30, 1
  10              		.eabi_attribute 34, 0
  11              		.eabi_attribute 18, 4
  12              		.code	16
  13              		.file	"cyfitter_cfg.c"
  14              		.text
  15              	.Ltext0:
  16              		.cfi_sections	.debug_frame
  17              		.section	.text.cfg_write_bytes32,"ax",%progbits
  18              		.align	2
  19              		.code	16
  20              		.thumb_func
  21              		.type	cfg_write_bytes32, %function
  22              	cfg_write_bytes32:
  23              	.LFB5:
  24              		.file 1 ".\\Generated_Source\\PSoC4\\cyfitter_cfg.c"
   1:.\Generated_Source\PSoC4/cyfitter_cfg.c **** /*******************************************************************************
   2:.\Generated_Source\PSoC4/cyfitter_cfg.c **** * File Name: cyfitter_cfg.c
   3:.\Generated_Source\PSoC4/cyfitter_cfg.c **** * 
   4:.\Generated_Source\PSoC4/cyfitter_cfg.c **** * PSoC Creator  3.3
   5:.\Generated_Source\PSoC4/cyfitter_cfg.c **** *
   6:.\Generated_Source\PSoC4/cyfitter_cfg.c **** * Description:
   7:.\Generated_Source\PSoC4/cyfitter_cfg.c **** * This file contains device initialization code.
   8:.\Generated_Source\PSoC4/cyfitter_cfg.c **** * Except for the user defined sections in CyClockStartupError(), this file should not be modified.
   9:.\Generated_Source\PSoC4/cyfitter_cfg.c **** * This file is automatically generated by PSoC Creator.
  10:.\Generated_Source\PSoC4/cyfitter_cfg.c **** *
  11:.\Generated_Source\PSoC4/cyfitter_cfg.c **** ********************************************************************************
  12:.\Generated_Source\PSoC4/cyfitter_cfg.c **** * Copyright (c) 2007-2015 Cypress Semiconductor.  All rights reserved.
  13:.\Generated_Source\PSoC4/cyfitter_cfg.c **** * You may use this file only in accordance with the license, terms, conditions, 
  14:.\Generated_Source\PSoC4/cyfitter_cfg.c **** * disclaimers, and limitations in the end user license agreement accompanying 
  15:.\Generated_Source\PSoC4/cyfitter_cfg.c **** * the software package with which this file was provided.
  16:.\Generated_Source\PSoC4/cyfitter_cfg.c **** ********************************************************************************/
  17:.\Generated_Source\PSoC4/cyfitter_cfg.c **** 
  18:.\Generated_Source\PSoC4/cyfitter_cfg.c **** #include <string.h>
  19:.\Generated_Source\PSoC4/cyfitter_cfg.c **** #include "cytypes.h"
  20:.\Generated_Source\PSoC4/cyfitter_cfg.c **** #include "cydevice_trm.h"
  21:.\Generated_Source\PSoC4/cyfitter_cfg.c **** #include "cyfitter.h"
  22:.\Generated_Source\PSoC4/cyfitter_cfg.c **** #include "CyLib.h"
  23:.\Generated_Source\PSoC4/cyfitter_cfg.c **** #include "CyLFClk.h"
  24:.\Generated_Source\PSoC4/cyfitter_cfg.c **** #include "cyfitter_cfg.h"
  25:.\Generated_Source\PSoC4/cyfitter_cfg.c **** 
  26:.\Generated_Source\PSoC4/cyfitter_cfg.c **** 
  27:.\Generated_Source\PSoC4/cyfitter_cfg.c **** #if defined(__GNUC__) || defined(__ARMCC_VERSION)
  28:.\Generated_Source\PSoC4/cyfitter_cfg.c ****     #define CYPACKED 
  29:.\Generated_Source\PSoC4/cyfitter_cfg.c ****     #define CYPACKED_ATTR __attribute__ ((packed))
  30:.\Generated_Source\PSoC4/cyfitter_cfg.c ****     #define CYALIGNED __attribute__ ((aligned))
  31:.\Generated_Source\PSoC4/cyfitter_cfg.c ****     #define CY_CFG_UNUSED __attribute__ ((unused))
  32:.\Generated_Source\PSoC4/cyfitter_cfg.c ****     #define CY_CFG_SECTION __attribute__ ((section(".psocinit")))
  33:.\Generated_Source\PSoC4/cyfitter_cfg.c ****     
ARM GAS  C:\Users\ALEXAN~1\AppData\Local\Temp\ccNwHBzY.s 			page 2


  34:.\Generated_Source\PSoC4/cyfitter_cfg.c ****     #if defined(__ARMCC_VERSION)
  35:.\Generated_Source\PSoC4/cyfitter_cfg.c ****         #define CY_CFG_MEMORY_BARRIER() __memory_changed()
  36:.\Generated_Source\PSoC4/cyfitter_cfg.c ****     #else
  37:.\Generated_Source\PSoC4/cyfitter_cfg.c ****         #define CY_CFG_MEMORY_BARRIER() __sync_synchronize()
  38:.\Generated_Source\PSoC4/cyfitter_cfg.c ****     #endif
  39:.\Generated_Source\PSoC4/cyfitter_cfg.c ****     
  40:.\Generated_Source\PSoC4/cyfitter_cfg.c **** #elif defined(__ICCARM__)
  41:.\Generated_Source\PSoC4/cyfitter_cfg.c ****     #include <intrinsics.h>
  42:.\Generated_Source\PSoC4/cyfitter_cfg.c **** 
  43:.\Generated_Source\PSoC4/cyfitter_cfg.c ****     #define CYPACKED __packed
  44:.\Generated_Source\PSoC4/cyfitter_cfg.c ****     #define CYPACKED_ATTR 
  45:.\Generated_Source\PSoC4/cyfitter_cfg.c ****     #define CYALIGNED _Pragma("data_alignment=4")
  46:.\Generated_Source\PSoC4/cyfitter_cfg.c ****     #define CY_CFG_UNUSED _Pragma("diag_suppress=Pe177")
  47:.\Generated_Source\PSoC4/cyfitter_cfg.c ****     #define CY_CFG_SECTION _Pragma("location=\".psocinit\"")
  48:.\Generated_Source\PSoC4/cyfitter_cfg.c ****     
  49:.\Generated_Source\PSoC4/cyfitter_cfg.c ****     #define CY_CFG_MEMORY_BARRIER() __DMB()
  50:.\Generated_Source\PSoC4/cyfitter_cfg.c ****     
  51:.\Generated_Source\PSoC4/cyfitter_cfg.c **** #else
  52:.\Generated_Source\PSoC4/cyfitter_cfg.c ****     #error Unsupported toolchain
  53:.\Generated_Source\PSoC4/cyfitter_cfg.c **** #endif
  54:.\Generated_Source\PSoC4/cyfitter_cfg.c **** 
  55:.\Generated_Source\PSoC4/cyfitter_cfg.c **** 
  56:.\Generated_Source\PSoC4/cyfitter_cfg.c **** CY_CFG_UNUSED
  57:.\Generated_Source\PSoC4/cyfitter_cfg.c **** static void CYMEMZERO(void *s, size_t n);
  58:.\Generated_Source\PSoC4/cyfitter_cfg.c **** CY_CFG_UNUSED
  59:.\Generated_Source\PSoC4/cyfitter_cfg.c **** static void CYMEMZERO(void *s, size_t n)
  60:.\Generated_Source\PSoC4/cyfitter_cfg.c **** {
  61:.\Generated_Source\PSoC4/cyfitter_cfg.c **** 	(void)memset(s, 0, n);
  62:.\Generated_Source\PSoC4/cyfitter_cfg.c **** }
  63:.\Generated_Source\PSoC4/cyfitter_cfg.c **** CY_CFG_UNUSED
  64:.\Generated_Source\PSoC4/cyfitter_cfg.c **** static void CYCONFIGCPY(void *dest, const void *src, size_t n);
  65:.\Generated_Source\PSoC4/cyfitter_cfg.c **** CY_CFG_UNUSED
  66:.\Generated_Source\PSoC4/cyfitter_cfg.c **** static void CYCONFIGCPY(void *dest, const void *src, size_t n)
  67:.\Generated_Source\PSoC4/cyfitter_cfg.c **** {
  68:.\Generated_Source\PSoC4/cyfitter_cfg.c **** 	(void)memcpy(dest, src, n);
  69:.\Generated_Source\PSoC4/cyfitter_cfg.c **** }
  70:.\Generated_Source\PSoC4/cyfitter_cfg.c **** CY_CFG_UNUSED
  71:.\Generated_Source\PSoC4/cyfitter_cfg.c **** static void CYCONFIGCPYCODE(void *dest, const void *src, size_t n);
  72:.\Generated_Source\PSoC4/cyfitter_cfg.c **** CY_CFG_UNUSED
  73:.\Generated_Source\PSoC4/cyfitter_cfg.c **** static void CYCONFIGCPYCODE(void *dest, const void *src, size_t n)
  74:.\Generated_Source\PSoC4/cyfitter_cfg.c **** {
  75:.\Generated_Source\PSoC4/cyfitter_cfg.c **** 	(void)memcpy(dest, src, n);
  76:.\Generated_Source\PSoC4/cyfitter_cfg.c **** }
  77:.\Generated_Source\PSoC4/cyfitter_cfg.c **** 
  78:.\Generated_Source\PSoC4/cyfitter_cfg.c **** 
  79:.\Generated_Source\PSoC4/cyfitter_cfg.c **** 
  80:.\Generated_Source\PSoC4/cyfitter_cfg.c **** /* Clock startup error codes                                                   */
  81:.\Generated_Source\PSoC4/cyfitter_cfg.c **** #define CYCLOCKSTART_NO_ERROR    0u
  82:.\Generated_Source\PSoC4/cyfitter_cfg.c **** #define CYCLOCKSTART_XTAL_ERROR  1u
  83:.\Generated_Source\PSoC4/cyfitter_cfg.c **** #define CYCLOCKSTART_32KHZ_ERROR 2u
  84:.\Generated_Source\PSoC4/cyfitter_cfg.c **** #define CYCLOCKSTART_PLL_ERROR   3u
  85:.\Generated_Source\PSoC4/cyfitter_cfg.c **** 
  86:.\Generated_Source\PSoC4/cyfitter_cfg.c **** #ifdef CY_NEED_CYCLOCKSTARTUPERROR
  87:.\Generated_Source\PSoC4/cyfitter_cfg.c **** /*******************************************************************************
  88:.\Generated_Source\PSoC4/cyfitter_cfg.c **** * Function Name: CyClockStartupError
  89:.\Generated_Source\PSoC4/cyfitter_cfg.c **** ********************************************************************************
  90:.\Generated_Source\PSoC4/cyfitter_cfg.c **** * Summary:
ARM GAS  C:\Users\ALEXAN~1\AppData\Local\Temp\ccNwHBzY.s 			page 3


  91:.\Generated_Source\PSoC4/cyfitter_cfg.c **** *  If an error is encountered during clock configuration (crystal startup error,
  92:.\Generated_Source\PSoC4/cyfitter_cfg.c **** *  PLL lock error, etc.), the system will end up here.  Unless reimplemented by
  93:.\Generated_Source\PSoC4/cyfitter_cfg.c **** *  the customer, this function will stop in an infinite loop.
  94:.\Generated_Source\PSoC4/cyfitter_cfg.c **** *
  95:.\Generated_Source\PSoC4/cyfitter_cfg.c **** * Parameters:
  96:.\Generated_Source\PSoC4/cyfitter_cfg.c **** *   void
  97:.\Generated_Source\PSoC4/cyfitter_cfg.c **** *
  98:.\Generated_Source\PSoC4/cyfitter_cfg.c **** * Return:
  99:.\Generated_Source\PSoC4/cyfitter_cfg.c **** *   void
 100:.\Generated_Source\PSoC4/cyfitter_cfg.c **** *
 101:.\Generated_Source\PSoC4/cyfitter_cfg.c **** *******************************************************************************/
 102:.\Generated_Source\PSoC4/cyfitter_cfg.c **** CY_CFG_UNUSED
 103:.\Generated_Source\PSoC4/cyfitter_cfg.c **** static void CyClockStartupError(uint8 errorCode);
 104:.\Generated_Source\PSoC4/cyfitter_cfg.c **** CY_CFG_UNUSED
 105:.\Generated_Source\PSoC4/cyfitter_cfg.c **** static void CyClockStartupError(uint8 errorCode)
 106:.\Generated_Source\PSoC4/cyfitter_cfg.c **** {
 107:.\Generated_Source\PSoC4/cyfitter_cfg.c ****     /* To remove the compiler warning if errorCode not used.                */
 108:.\Generated_Source\PSoC4/cyfitter_cfg.c ****     errorCode = errorCode;
 109:.\Generated_Source\PSoC4/cyfitter_cfg.c **** 
 110:.\Generated_Source\PSoC4/cyfitter_cfg.c ****     /* `#START CyClockStartupError` */
 111:.\Generated_Source\PSoC4/cyfitter_cfg.c **** 
 112:.\Generated_Source\PSoC4/cyfitter_cfg.c ****     /* If we have a clock startup error (bad MHz crystal, PLL lock, etc.),  */
 113:.\Generated_Source\PSoC4/cyfitter_cfg.c ****     /* we will end up here to allow the customer to implement something to  */
 114:.\Generated_Source\PSoC4/cyfitter_cfg.c ****     /* deal with the clock condition.                                       */
 115:.\Generated_Source\PSoC4/cyfitter_cfg.c **** 
 116:.\Generated_Source\PSoC4/cyfitter_cfg.c ****     /* `#END` */
 117:.\Generated_Source\PSoC4/cyfitter_cfg.c **** 
 118:.\Generated_Source\PSoC4/cyfitter_cfg.c ****     /* If nothing else, stop here since the clocks have not started         */
 119:.\Generated_Source\PSoC4/cyfitter_cfg.c ****     /* correctly.                                                           */
 120:.\Generated_Source\PSoC4/cyfitter_cfg.c ****     while(1) {}
 121:.\Generated_Source\PSoC4/cyfitter_cfg.c **** }
 122:.\Generated_Source\PSoC4/cyfitter_cfg.c **** #endif
 123:.\Generated_Source\PSoC4/cyfitter_cfg.c **** 
 124:.\Generated_Source\PSoC4/cyfitter_cfg.c **** #define CY_CFG_BASE_ADDR_COUNT 9u
 125:.\Generated_Source\PSoC4/cyfitter_cfg.c **** CYPACKED typedef struct
 126:.\Generated_Source\PSoC4/cyfitter_cfg.c **** {
 127:.\Generated_Source\PSoC4/cyfitter_cfg.c **** 	uint8 offset;
 128:.\Generated_Source\PSoC4/cyfitter_cfg.c **** 	uint8 value;
 129:.\Generated_Source\PSoC4/cyfitter_cfg.c **** } CYPACKED_ATTR cy_cfg_addrvalue_t;
 130:.\Generated_Source\PSoC4/cyfitter_cfg.c **** 
 131:.\Generated_Source\PSoC4/cyfitter_cfg.c **** 
 132:.\Generated_Source\PSoC4/cyfitter_cfg.c **** 
 133:.\Generated_Source\PSoC4/cyfitter_cfg.c **** /*******************************************************************************
 134:.\Generated_Source\PSoC4/cyfitter_cfg.c **** * Function Name: cfg_write_bytes32
 135:.\Generated_Source\PSoC4/cyfitter_cfg.c **** ********************************************************************************
 136:.\Generated_Source\PSoC4/cyfitter_cfg.c **** * Summary:
 137:.\Generated_Source\PSoC4/cyfitter_cfg.c **** *  This function is used for setting up the chip configuration areas that
 138:.\Generated_Source\PSoC4/cyfitter_cfg.c **** *  contain relatively sparse data.
 139:.\Generated_Source\PSoC4/cyfitter_cfg.c **** *
 140:.\Generated_Source\PSoC4/cyfitter_cfg.c **** * Parameters:
 141:.\Generated_Source\PSoC4/cyfitter_cfg.c **** *   void
 142:.\Generated_Source\PSoC4/cyfitter_cfg.c **** *
 143:.\Generated_Source\PSoC4/cyfitter_cfg.c **** * Return:
 144:.\Generated_Source\PSoC4/cyfitter_cfg.c **** *   void
 145:.\Generated_Source\PSoC4/cyfitter_cfg.c **** *
 146:.\Generated_Source\PSoC4/cyfitter_cfg.c **** *******************************************************************************/
 147:.\Generated_Source\PSoC4/cyfitter_cfg.c **** static void cfg_write_bytes32(const uint32 addr_table[], const cy_cfg_addrvalue_t data_table[]);
ARM GAS  C:\Users\ALEXAN~1\AppData\Local\Temp\ccNwHBzY.s 			page 4


 148:.\Generated_Source\PSoC4/cyfitter_cfg.c **** static void cfg_write_bytes32(const uint32 addr_table[], const cy_cfg_addrvalue_t data_table[])
 149:.\Generated_Source\PSoC4/cyfitter_cfg.c **** {
  25              		.loc 1 149 0
  26              		.cfi_startproc
  27              	.LVL0:
  28 0000 F0B5     		push	{r4, r5, r6, r7, lr}
  29              		.cfi_def_cfa_offset 20
  30              		.cfi_offset 4, -20
  31              		.cfi_offset 5, -16
  32              		.cfi_offset 6, -12
  33              		.cfi_offset 7, -8
  34              		.cfi_offset 14, -4
  35              	.LVL1:
 150:.\Generated_Source\PSoC4/cyfitter_cfg.c **** 	/* For 32-bit little-endian architectures */
 151:.\Generated_Source\PSoC4/cyfitter_cfg.c **** 	uint32 i, j = 0u;
  36              		.loc 1 151 0
  37 0002 0025     		mov	r5, #0
 152:.\Generated_Source\PSoC4/cyfitter_cfg.c **** 	for (i = 0u; i < CY_CFG_BASE_ADDR_COUNT; i++)
  38              		.loc 1 152 0
  39 0004 0027     		mov	r7, #0
  40 0006 11E0     		b	.L2
  41              	.LVL2:
  42              	.L5:
  43              	.LBB2:
 153:.\Generated_Source\PSoC4/cyfitter_cfg.c **** 	{
 154:.\Generated_Source\PSoC4/cyfitter_cfg.c **** 		uint32 baseAddr = addr_table[i];
  44              		.loc 1 154 0
  45 0008 BB00     		lsl	r3, r7, #2
  46 000a C658     		ldr	r6, [r0, r3]
  47              	.LVL3:
 155:.\Generated_Source\PSoC4/cyfitter_cfg.c **** 		uint8 count = (uint8)baseAddr;
  48              		.loc 1 155 0
  49 000c F3B2     		uxtb	r3, r6
  50              	.LVL4:
 156:.\Generated_Source\PSoC4/cyfitter_cfg.c **** 		baseAddr &= 0xFFFFFF00u;
  51              		.loc 1 156 0
  52 000e FF22     		mov	r2, #255
  53 0010 9643     		bic	r6, r2
  54              	.LVL5:
 157:.\Generated_Source\PSoC4/cyfitter_cfg.c **** 		while (count != 0u)
  55              		.loc 1 157 0
  56 0012 08E0     		b	.L3
  57              	.L4:
 158:.\Generated_Source\PSoC4/cyfitter_cfg.c **** 		{
 159:.\Generated_Source\PSoC4/cyfitter_cfg.c **** 			CY_SET_XTND_REG8((void CYFAR *)(baseAddr + data_table[j].offset), data_table[j].value);
  58              		.loc 1 159 0
  59 0014 6A00     		lsl	r2, r5, #1
  60 0016 8A18     		add	r2, r1, r2
  61 0018 1478     		ldrb	r4, [r2]
  62 001a A419     		add	r4, r4, r6
  63 001c 5278     		ldrb	r2, [r2, #1]
  64 001e 2270     		strb	r2, [r4]
 160:.\Generated_Source\PSoC4/cyfitter_cfg.c **** 			j++;
  65              		.loc 1 160 0
  66 0020 0135     		add	r5, r5, #1
  67              	.LVL6:
 161:.\Generated_Source\PSoC4/cyfitter_cfg.c **** 			count--;
ARM GAS  C:\Users\ALEXAN~1\AppData\Local\Temp\ccNwHBzY.s 			page 5


  68              		.loc 1 161 0
  69 0022 013B     		sub	r3, r3, #1
  70              	.LVL7:
  71 0024 DBB2     		uxtb	r3, r3
  72              	.LVL8:
  73              	.L3:
 157:.\Generated_Source\PSoC4/cyfitter_cfg.c **** 		{
  74              		.loc 1 157 0
  75 0026 002B     		cmp	r3, #0
  76 0028 F4D1     		bne	.L4
  77              	.LBE2:
 152:.\Generated_Source\PSoC4/cyfitter_cfg.c **** 	{
  78              		.loc 1 152 0 discriminator 2
  79 002a 0137     		add	r7, r7, #1
  80              	.LVL9:
  81              	.L2:
 152:.\Generated_Source\PSoC4/cyfitter_cfg.c **** 	{
  82              		.loc 1 152 0 is_stmt 0 discriminator 1
  83 002c 082F     		cmp	r7, #8
  84 002e EBD9     		bls	.L5
 162:.\Generated_Source\PSoC4/cyfitter_cfg.c **** 		}
 163:.\Generated_Source\PSoC4/cyfitter_cfg.c **** 	}
 164:.\Generated_Source\PSoC4/cyfitter_cfg.c **** }
  85              		.loc 1 164 0 is_stmt 1
  86              		@ sp needed
  87              	.LVL10:
  88              	.LVL11:
  89 0030 F0BD     		pop	{r4, r5, r6, r7, pc}
  90              		.cfi_endproc
  91              	.LFE5:
  92              		.size	cfg_write_bytes32, .-cfg_write_bytes32
  93 0032 C046     		.section	.text.CYMEMZERO,"ax",%progbits
  94              		.align	2
  95              		.code	16
  96              		.thumb_func
  97              		.type	CYMEMZERO, %function
  98              	CYMEMZERO:
  99              	.LFB2:
  60:.\Generated_Source\PSoC4/cyfitter_cfg.c **** 	(void)memset(s, 0, n);
 100              		.loc 1 60 0
 101              		.cfi_startproc
 102              	.LVL12:
 103 0000 08B5     		push	{r3, lr}
 104              		.cfi_def_cfa_offset 8
 105              		.cfi_offset 3, -8
 106              		.cfi_offset 14, -4
 107 0002 0A1C     		mov	r2, r1
  61:.\Generated_Source\PSoC4/cyfitter_cfg.c **** }
 108              		.loc 1 61 0
 109 0004 0021     		mov	r1, #0
 110              	.LVL13:
 111 0006 FFF7FEFF 		bl	memset
 112              	.LVL14:
  62:.\Generated_Source\PSoC4/cyfitter_cfg.c **** CY_CFG_UNUSED
 113              		.loc 1 62 0
 114              		@ sp needed
 115 000a 08BD     		pop	{r3, pc}
ARM GAS  C:\Users\ALEXAN~1\AppData\Local\Temp\ccNwHBzY.s 			page 6


 116              		.cfi_endproc
 117              	.LFE2:
 118              		.size	CYMEMZERO, .-CYMEMZERO
 119              		.section	.psocinit,"ax",%progbits
 120              		.align	2
 121              		.code	16
 122              		.thumb_func
 123              		.type	ClockSetup, %function
 124              	ClockSetup:
 125              	.LFB6:
 165:.\Generated_Source\PSoC4/cyfitter_cfg.c **** 
 166:.\Generated_Source\PSoC4/cyfitter_cfg.c **** 
 167:.\Generated_Source\PSoC4/cyfitter_cfg.c **** /*******************************************************************************
 168:.\Generated_Source\PSoC4/cyfitter_cfg.c **** * Function Name: ClockSetup
 169:.\Generated_Source\PSoC4/cyfitter_cfg.c **** ********************************************************************************
 170:.\Generated_Source\PSoC4/cyfitter_cfg.c **** *
 171:.\Generated_Source\PSoC4/cyfitter_cfg.c **** * Summary:
 172:.\Generated_Source\PSoC4/cyfitter_cfg.c **** *   Performs the initialization of all of the clocks in the device based on the
 173:.\Generated_Source\PSoC4/cyfitter_cfg.c **** *   settings in the Clock tab of the DWR.  This includes enabling the requested
 174:.\Generated_Source\PSoC4/cyfitter_cfg.c **** *   clocks and setting the necessary dividers to produce the desired frequency. 
 175:.\Generated_Source\PSoC4/cyfitter_cfg.c **** *
 176:.\Generated_Source\PSoC4/cyfitter_cfg.c **** * Parameters:
 177:.\Generated_Source\PSoC4/cyfitter_cfg.c **** *   void
 178:.\Generated_Source\PSoC4/cyfitter_cfg.c **** *
 179:.\Generated_Source\PSoC4/cyfitter_cfg.c **** * Return:
 180:.\Generated_Source\PSoC4/cyfitter_cfg.c **** *   void
 181:.\Generated_Source\PSoC4/cyfitter_cfg.c **** *
 182:.\Generated_Source\PSoC4/cyfitter_cfg.c **** *******************************************************************************/
 183:.\Generated_Source\PSoC4/cyfitter_cfg.c **** static void ClockSetup(void);
 184:.\Generated_Source\PSoC4/cyfitter_cfg.c **** CY_CFG_SECTION
 185:.\Generated_Source\PSoC4/cyfitter_cfg.c **** static void ClockSetup(void)
 186:.\Generated_Source\PSoC4/cyfitter_cfg.c **** {
 126              		.loc 1 186 0
 127              		.cfi_startproc
 128 0000 70B5     		push	{r4, r5, r6, lr}
 129              		.cfi_def_cfa_offset 16
 130              		.cfi_offset 4, -16
 131              		.cfi_offset 5, -12
 132              		.cfi_offset 6, -8
 133              		.cfi_offset 14, -4
 187:.\Generated_Source\PSoC4/cyfitter_cfg.c **** 
 188:.\Generated_Source\PSoC4/cyfitter_cfg.c **** 	/* Set Flash Cycles based on max possible frequency in case a glitch occurs during ClockSetup(). *
 189:.\Generated_Source\PSoC4/cyfitter_cfg.c **** 	CY_SET_REG32((void CYXDATA *)(CYREG_CPUSS_FLASH_CTL), (0x0012u));
 134              		.loc 1 189 0
 135 0002 294C     		ldr	r4, .L8
 136 0004 1223     		mov	r3, #18
 137 0006 2360     		str	r3, [r4]
 190:.\Generated_Source\PSoC4/cyfitter_cfg.c **** 
 191:.\Generated_Source\PSoC4/cyfitter_cfg.c **** 	/* Start the WCO */
 192:.\Generated_Source\PSoC4/cyfitter_cfg.c **** 	CySysClkWcoStart();
 138              		.loc 1 192 0
 139 0008 FFF7FEFF 		bl	CySysClkWcoStart
 140              	.LVL15:
 193:.\Generated_Source\PSoC4/cyfitter_cfg.c **** 	CyDelayCycles(12000000u); /* WCO may take up to 500ms to start */
 141              		.loc 1 193 0
 142 000c 2748     		ldr	r0, .L8+4
 143 000e FFF7FEFF 		bl	CyDelayCycles
ARM GAS  C:\Users\ALEXAN~1\AppData\Local\Temp\ccNwHBzY.s 			page 7


 144              	.LVL16:
 194:.\Generated_Source\PSoC4/cyfitter_cfg.c **** 	(void)CySysClkWcoSetPowerMode(CY_SYS_CLK_WCO_LPM);    /* Switch to the low power mode */
 145              		.loc 1 194 0
 146 0012 0120     		mov	r0, #1
 147 0014 FFF7FEFF 		bl	CySysClkWcoSetPowerMode
 148              	.LVL17:
 195:.\Generated_Source\PSoC4/cyfitter_cfg.c **** 
 196:.\Generated_Source\PSoC4/cyfitter_cfg.c **** 	/* Setup and trim IMO based on desired frequency. */
 197:.\Generated_Source\PSoC4/cyfitter_cfg.c **** 	CySysClkWriteImoFreq(24u);
 149              		.loc 1 197 0
 150 0018 1820     		mov	r0, #24
 151 001a FFF7FEFF 		bl	CySysClkWriteImoFreq
 152              	.LVL18:
 198:.\Generated_Source\PSoC4/cyfitter_cfg.c **** 	/* CYDEV_CLK_ILO_CONFIG Starting address: CYDEV_CLK_ILO_CONFIG */
 199:.\Generated_Source\PSoC4/cyfitter_cfg.c **** 	CY_SET_XTND_REG32((void CYFAR *)(CYREG_CLK_ILO_CONFIG), 0x80000006u);
 153              		.loc 1 199 0
 154 001e 244A     		ldr	r2, .L8+8
 155 0020 244B     		ldr	r3, .L8+12
 156 0022 1A60     		str	r2, [r3]
 200:.\Generated_Source\PSoC4/cyfitter_cfg.c **** 
 201:.\Generated_Source\PSoC4/cyfitter_cfg.c **** 	/* CYDEV_WDT_CONFIG Starting address: CYDEV_WDT_CONFIG */
 202:.\Generated_Source\PSoC4/cyfitter_cfg.c **** 	CY_SET_XTND_REG32((void CYFAR *)(CYREG_WDT_CONFIG), 0x40000000u);
 157              		.loc 1 202 0
 158 0024 244D     		ldr	r5, .L8+16
 159 0026 8026     		mov	r6, #128
 160 0028 F605     		lsl	r6, r6, #23
 161 002a 2E60     		str	r6, [r5]
 203:.\Generated_Source\PSoC4/cyfitter_cfg.c **** 
 204:.\Generated_Source\PSoC4/cyfitter_cfg.c **** 
 205:.\Generated_Source\PSoC4/cyfitter_cfg.c **** 	/* Enable fast start mode for XO */
 206:.\Generated_Source\PSoC4/cyfitter_cfg.c **** 	CY_SET_REG32((void*)CYREG_BLE_BLERD_BB_XO, CY_GET_REG32((void*)CYREG_BLE_BLERD_BB_XO) | (uint32)0x
 162              		.loc 1 206 0
 163 002c 234A     		ldr	r2, .L8+20
 164 002e 1168     		ldr	r1, [r2]
 165 0030 0223     		mov	r3, #2
 166 0032 0B43     		orr	r3, r1
 167 0034 1360     		str	r3, [r2]
 207:.\Generated_Source\PSoC4/cyfitter_cfg.c **** 	CY_SET_XTND_REG32((void CYFAR *)(CYREG_BLE_BLERD_BB_XO_CAPTRIM), 0x00003E2Du);
 168              		.loc 1 207 0
 169 0036 224A     		ldr	r2, .L8+24
 170 0038 224B     		ldr	r3, .L8+28
 171 003a 1A60     		str	r2, [r3]
 208:.\Generated_Source\PSoC4/cyfitter_cfg.c **** 	/* Disable Crystal Stable Interrupt before enabling ECO */
 209:.\Generated_Source\PSoC4/cyfitter_cfg.c **** 	CY_SET_REG32((void*)CYREG_BLE_BLESS_LL_DSM_CTRL, CY_GET_REG32((void*)CYREG_BLE_BLESS_LL_DSM_CTRL) 
 172              		.loc 1 209 0
 173 003c 224A     		ldr	r2, .L8+32
 174 003e 1368     		ldr	r3, [r2]
 175 0040 0821     		mov	r1, #8
 176 0042 8B43     		bic	r3, r1
 177 0044 1360     		str	r3, [r2]
 210:.\Generated_Source\PSoC4/cyfitter_cfg.c **** 	/* Start the ECO and do not check status since it is not needed for HFCLK */
 211:.\Generated_Source\PSoC4/cyfitter_cfg.c **** 	(void)CySysClkEcoStart(2000u);
 178              		.loc 1 211 0
 179 0046 FA20     		mov	r0, #250
 180 0048 C000     		lsl	r0, r0, #3
 181 004a FFF7FEFF 		bl	CySysClkEcoStart
 182              	.LVL19:
ARM GAS  C:\Users\ALEXAN~1\AppData\Local\Temp\ccNwHBzY.s 			page 8


 212:.\Generated_Source\PSoC4/cyfitter_cfg.c **** 	CyDelayUs(1500u); /* Wait to stabalize */
 183              		.loc 1 212 0
 184 004e 1F48     		ldr	r0, .L8+36
 185 0050 FFF7FEFF 		bl	CyDelayUs
 186              	.LVL20:
 213:.\Generated_Source\PSoC4/cyfitter_cfg.c **** 
 214:.\Generated_Source\PSoC4/cyfitter_cfg.c **** 	/* Setup phase aligned clocks */
 215:.\Generated_Source\PSoC4/cyfitter_cfg.c **** 	CY_SET_REG32((void *)CYREG_PERI_DIV_16_CTL2, 0x0000EF00u);
 187              		.loc 1 215 0
 188 0054 EF22     		mov	r2, #239
 189 0056 1202     		lsl	r2, r2, #8
 190 0058 1D4B     		ldr	r3, .L8+40
 191 005a 1A60     		str	r2, [r3]
 216:.\Generated_Source\PSoC4/cyfitter_cfg.c **** 	CY_SET_REG32((void *)CYREG_PERI_DIV_CMD, 0x8000FF42u);
 192              		.loc 1 216 0
 193 005c 1D4B     		ldr	r3, .L8+44
 194 005e 1E4A     		ldr	r2, .L8+48
 195 0060 1A60     		str	r2, [r3]
 217:.\Generated_Source\PSoC4/cyfitter_cfg.c **** 	CY_SET_REG32((void *)CYREG_PERI_DIV_16_CTL0, 0x0000FE00u);
 196              		.loc 1 217 0
 197 0062 FE22     		mov	r2, #254
 198 0064 1202     		lsl	r2, r2, #8
 199 0066 1D49     		ldr	r1, .L8+52
 200 0068 0A60     		str	r2, [r1]
 218:.\Generated_Source\PSoC4/cyfitter_cfg.c **** 	CY_SET_REG32((void *)CYREG_PERI_DIV_CMD, 0x8000FF40u);
 201              		.loc 1 218 0
 202 006a 1D49     		ldr	r1, .L8+56
 203 006c 1960     		str	r1, [r3]
 219:.\Generated_Source\PSoC4/cyfitter_cfg.c **** 	CY_SET_REG32((void *)CYREG_PERI_DIV_16_CTL1, 0x0000FE00u);
 204              		.loc 1 219 0
 205 006e 1D49     		ldr	r1, .L8+60
 206 0070 0A60     		str	r2, [r1]
 220:.\Generated_Source\PSoC4/cyfitter_cfg.c **** 	CY_SET_REG32((void *)CYREG_PERI_DIV_CMD, 0x8000FF41u);
 207              		.loc 1 220 0
 208 0072 1D4A     		ldr	r2, .L8+64
 209 0074 1A60     		str	r2, [r3]
 221:.\Generated_Source\PSoC4/cyfitter_cfg.c **** 
 222:.\Generated_Source\PSoC4/cyfitter_cfg.c **** 	/* CYDEV_CLK_IMO_CONFIG Starting address: CYDEV_CLK_IMO_CONFIG */
 223:.\Generated_Source\PSoC4/cyfitter_cfg.c **** 	CY_SET_XTND_REG32((void CYFAR *)(CYREG_CLK_IMO_CONFIG), 0x80000000u);
 210              		.loc 1 223 0
 211 0076 8022     		mov	r2, #128
 212 0078 1206     		lsl	r2, r2, #24
 213 007a 1C4B     		ldr	r3, .L8+68
 214 007c 1A60     		str	r2, [r3]
 224:.\Generated_Source\PSoC4/cyfitter_cfg.c **** 
 225:.\Generated_Source\PSoC4/cyfitter_cfg.c **** 	/* CYDEV_PERI_PCLK_CTL11 Starting address: CYDEV_PERI_PCLK_CTL11 */
 226:.\Generated_Source\PSoC4/cyfitter_cfg.c **** 	CY_SET_XTND_REG32((void CYFAR *)(CYREG_PERI_PCLK_CTL11), 0x00000042u);
 215              		.loc 1 226 0
 216 007e 4222     		mov	r2, #66
 217 0080 1B4B     		ldr	r3, .L8+72
 218 0082 1A60     		str	r2, [r3]
 227:.\Generated_Source\PSoC4/cyfitter_cfg.c **** 
 228:.\Generated_Source\PSoC4/cyfitter_cfg.c **** 	/* CYDEV_PERI_PCLK_CTL5 Starting address: CYDEV_PERI_PCLK_CTL5 */
 229:.\Generated_Source\PSoC4/cyfitter_cfg.c **** 	CY_SET_XTND_REG32((void CYFAR *)(CYREG_PERI_PCLK_CTL5), 0x00000040u);
 219              		.loc 1 229 0
 220 0084 023A     		sub	r2, r2, #2
 221 0086 1B4B     		ldr	r3, .L8+76
ARM GAS  C:\Users\ALEXAN~1\AppData\Local\Temp\ccNwHBzY.s 			page 9


 222 0088 1A60     		str	r2, [r3]
 230:.\Generated_Source\PSoC4/cyfitter_cfg.c **** 
 231:.\Generated_Source\PSoC4/cyfitter_cfg.c **** 	/* CYDEV_PERI_PCLK_CTL4 Starting address: CYDEV_PERI_PCLK_CTL4 */
 232:.\Generated_Source\PSoC4/cyfitter_cfg.c **** 	CY_SET_XTND_REG32((void CYFAR *)(CYREG_PERI_PCLK_CTL4), 0x00000041u);
 223              		.loc 1 232 0
 224 008a 0132     		add	r2, r2, #1
 225 008c 1A4B     		ldr	r3, .L8+80
 226 008e 1A60     		str	r2, [r3]
 233:.\Generated_Source\PSoC4/cyfitter_cfg.c **** 
 234:.\Generated_Source\PSoC4/cyfitter_cfg.c **** 	(void)CyIntSetVector(8u, &CySysWdtIsr);
 227              		.loc 1 234 0
 228 0090 0820     		mov	r0, #8
 229 0092 1A49     		ldr	r1, .L8+84
 230 0094 FFF7FEFF 		bl	CyIntSetVector
 231              	.LVL21:
 235:.\Generated_Source\PSoC4/cyfitter_cfg.c **** 	CyIntEnable(8u);
 232              		.loc 1 235 0
 233 0098 0820     		mov	r0, #8
 234 009a FFF7FEFF 		bl	CyIntEnable
 235              	.LVL22:
 236:.\Generated_Source\PSoC4/cyfitter_cfg.c **** 	CY_SET_XTND_REG32((void CYFAR *)(CYREG_WDT_CONFIG), 0x40000000u);
 236              		.loc 1 236 0
 237 009e 2E60     		str	r6, [r5]
 237:.\Generated_Source\PSoC4/cyfitter_cfg.c **** 	/* Set Flash Cycles based on newly configured 24.00MHz HFCLK. */
 238:.\Generated_Source\PSoC4/cyfitter_cfg.c **** 	CY_SET_REG32((void CYXDATA *)(CYREG_CPUSS_FLASH_CTL), (0x0011u));
 238              		.loc 1 238 0
 239 00a0 1123     		mov	r3, #17
 240 00a2 2360     		str	r3, [r4]
 239:.\Generated_Source\PSoC4/cyfitter_cfg.c **** }
 241              		.loc 1 239 0
 242              		@ sp needed
 243 00a4 70BD     		pop	{r4, r5, r6, pc}
 244              	.L9:
 245 00a6 C046     		.align	2
 246              	.L8:
 247 00a8 30001040 		.word	1074790448
 248 00ac 001BB700 		.word	12000000
 249 00b0 06000080 		.word	-2147483642
 250 00b4 04010B40 		.word	1074462980
 251 00b8 0C020B40 		.word	1074463244
 252 00bc 78002E40 		.word	1076756600
 253 00c0 2D3E0000 		.word	15917
 254 00c4 7C002E40 		.word	1076756604
 255 00c8 6CF02E40 		.word	1076818028
 256 00cc DC050000 		.word	1500
 257 00d0 08030140 		.word	1073808136
 258 00d4 00000140 		.word	1073807360
 259 00d8 42FF0080 		.word	-2147418302
 260 00dc 00030140 		.word	1073808128
 261 00e0 40FF0080 		.word	-2147418304
 262 00e4 04030140 		.word	1073808132
 263 00e8 41FF0080 		.word	-2147418303
 264 00ec 08010B40 		.word	1074462984
 265 00f0 2C010140 		.word	1073807660
 266 00f4 14010140 		.word	1073807636
 267 00f8 10010140 		.word	1073807632
 268 00fc 00000000 		.word	CySysWdtIsr
ARM GAS  C:\Users\ALEXAN~1\AppData\Local\Temp\ccNwHBzY.s 			page 10


 269              		.cfi_endproc
 270              	.LFE6:
 271              		.size	ClockSetup, .-ClockSetup
 272              		.section	.text.SetAnalogRoutingPumps,"ax",%progbits
 273              		.align	2
 274              		.global	SetAnalogRoutingPumps
 275              		.code	16
 276              		.thumb_func
 277              		.type	SetAnalogRoutingPumps, %function
 278              	SetAnalogRoutingPumps:
 279              	.LFB8:
 240:.\Generated_Source\PSoC4/cyfitter_cfg.c **** 
 241:.\Generated_Source\PSoC4/cyfitter_cfg.c **** 
 242:.\Generated_Source\PSoC4/cyfitter_cfg.c **** /* Analog API Functions */
 243:.\Generated_Source\PSoC4/cyfitter_cfg.c **** 
 244:.\Generated_Source\PSoC4/cyfitter_cfg.c **** 
 245:.\Generated_Source\PSoC4/cyfitter_cfg.c **** /*******************************************************************************
 246:.\Generated_Source\PSoC4/cyfitter_cfg.c **** * Function Name: AnalogSetDefault
 247:.\Generated_Source\PSoC4/cyfitter_cfg.c **** ********************************************************************************
 248:.\Generated_Source\PSoC4/cyfitter_cfg.c **** *
 249:.\Generated_Source\PSoC4/cyfitter_cfg.c **** * Summary:
 250:.\Generated_Source\PSoC4/cyfitter_cfg.c **** *  Sets up the analog portions of the chip to default values based on chip
 251:.\Generated_Source\PSoC4/cyfitter_cfg.c **** *  configuration options from the project.
 252:.\Generated_Source\PSoC4/cyfitter_cfg.c **** *
 253:.\Generated_Source\PSoC4/cyfitter_cfg.c **** * Parameters:
 254:.\Generated_Source\PSoC4/cyfitter_cfg.c **** *  void
 255:.\Generated_Source\PSoC4/cyfitter_cfg.c **** *
 256:.\Generated_Source\PSoC4/cyfitter_cfg.c **** * Return:
 257:.\Generated_Source\PSoC4/cyfitter_cfg.c **** *  void
 258:.\Generated_Source\PSoC4/cyfitter_cfg.c **** *
 259:.\Generated_Source\PSoC4/cyfitter_cfg.c **** *******************************************************************************/
 260:.\Generated_Source\PSoC4/cyfitter_cfg.c **** static void AnalogSetDefault(void);
 261:.\Generated_Source\PSoC4/cyfitter_cfg.c **** static void AnalogSetDefault(void)
 262:.\Generated_Source\PSoC4/cyfitter_cfg.c **** {
 263:.\Generated_Source\PSoC4/cyfitter_cfg.c **** 	CY_SET_XTND_REG32((void CYFAR *)CYREG_HSIOM_AMUX_SPLIT_CTL2, 0x00000003u);
 264:.\Generated_Source\PSoC4/cyfitter_cfg.c **** 	CY_SET_XTND_REG32((void CYFAR *)CYREG_CTBM0_DFT_CTRL, 0x00000003u);
 265:.\Generated_Source\PSoC4/cyfitter_cfg.c **** 	CY_SET_XTND_REG32((void CYFAR *)CYREG_CTBM1_DFT_CTRL, 0x00000003u);
 266:.\Generated_Source\PSoC4/cyfitter_cfg.c **** 	CY_SET_XTND_REG32((void CYFAR *)CYREG_PASS_DSAB_DSAB_CTRL, 0x00000000u);
 267:.\Generated_Source\PSoC4/cyfitter_cfg.c **** 	SetAnalogRoutingPumps(1);
 268:.\Generated_Source\PSoC4/cyfitter_cfg.c **** }
 269:.\Generated_Source\PSoC4/cyfitter_cfg.c **** 
 270:.\Generated_Source\PSoC4/cyfitter_cfg.c **** 
 271:.\Generated_Source\PSoC4/cyfitter_cfg.c **** /*******************************************************************************
 272:.\Generated_Source\PSoC4/cyfitter_cfg.c **** * Function Name: SetAnalogRoutingPumps
 273:.\Generated_Source\PSoC4/cyfitter_cfg.c **** ********************************************************************************
 274:.\Generated_Source\PSoC4/cyfitter_cfg.c **** *
 275:.\Generated_Source\PSoC4/cyfitter_cfg.c **** * Summary:
 276:.\Generated_Source\PSoC4/cyfitter_cfg.c **** * Enables or disables the analog pumps feeding analog routing switches.
 277:.\Generated_Source\PSoC4/cyfitter_cfg.c **** * Intended to be called at startup, based on the Vdda system configuration;
 278:.\Generated_Source\PSoC4/cyfitter_cfg.c **** * may be called during operation when the user informs us that the Vdda voltage crossed the pump th
 279:.\Generated_Source\PSoC4/cyfitter_cfg.c **** *
 280:.\Generated_Source\PSoC4/cyfitter_cfg.c **** * Parameters:
 281:.\Generated_Source\PSoC4/cyfitter_cfg.c **** *  enabled - 1 to enable the pumps, 0 to disable the pumps
 282:.\Generated_Source\PSoC4/cyfitter_cfg.c **** *
 283:.\Generated_Source\PSoC4/cyfitter_cfg.c **** * Return:
 284:.\Generated_Source\PSoC4/cyfitter_cfg.c **** *  void
 285:.\Generated_Source\PSoC4/cyfitter_cfg.c **** *
ARM GAS  C:\Users\ALEXAN~1\AppData\Local\Temp\ccNwHBzY.s 			page 11


 286:.\Generated_Source\PSoC4/cyfitter_cfg.c **** *******************************************************************************/
 287:.\Generated_Source\PSoC4/cyfitter_cfg.c **** void SetAnalogRoutingPumps(uint8 enabled)
 288:.\Generated_Source\PSoC4/cyfitter_cfg.c **** {
 280              		.loc 1 288 0
 281              		.cfi_startproc
 282              	.LVL23:
 289:.\Generated_Source\PSoC4/cyfitter_cfg.c **** 	uint32 regValue = CY_GET_XTND_REG32((void *)(CYREG_SAR_PUMP_CTRL));
 283              		.loc 1 289 0
 284 0000 0C4B     		ldr	r3, .L15
 285 0002 1B68     		ldr	r3, [r3]
 286              	.LVL24:
 290:.\Generated_Source\PSoC4/cyfitter_cfg.c **** 	if (enabled != 0u)
 287              		.loc 1 290 0
 288 0004 0028     		cmp	r0, #0
 289 0006 03D0     		beq	.L11
 291:.\Generated_Source\PSoC4/cyfitter_cfg.c **** 	{
 292:.\Generated_Source\PSoC4/cyfitter_cfg.c **** 		regValue |= 0x80000000u;
 290              		.loc 1 292 0
 291 0008 8022     		mov	r2, #128
 292 000a 1206     		lsl	r2, r2, #24
 293 000c 1343     		orr	r3, r2
 294              	.LVL25:
 295 000e 01E0     		b	.L12
 296              	.L11:
 293:.\Generated_Source\PSoC4/cyfitter_cfg.c **** 	}
 294:.\Generated_Source\PSoC4/cyfitter_cfg.c **** 	else
 295:.\Generated_Source\PSoC4/cyfitter_cfg.c **** 	{
 296:.\Generated_Source\PSoC4/cyfitter_cfg.c **** 		regValue &= ~0x80000000u;
 297              		.loc 1 296 0
 298 0010 5B00     		lsl	r3, r3, #1
 299              	.LVL26:
 300 0012 5B08     		lsr	r3, r3, #1
 301              	.LVL27:
 302              	.L12:
 297:.\Generated_Source\PSoC4/cyfitter_cfg.c **** 	}
 298:.\Generated_Source\PSoC4/cyfitter_cfg.c **** 	CY_SET_XTND_REG32((void *)(CYREG_SAR_PUMP_CTRL), regValue);
 303              		.loc 1 298 0
 304 0014 074A     		ldr	r2, .L15
 305 0016 1360     		str	r3, [r2]
 299:.\Generated_Source\PSoC4/cyfitter_cfg.c **** 	regValue = CY_GET_XTND_REG32((void *)(CYREG_CLK_IMO_CONFIG));
 306              		.loc 1 299 0
 307 0018 074B     		ldr	r3, .L15+4
 308              	.LVL28:
 309 001a 1B68     		ldr	r3, [r3]
 310              	.LVL29:
 300:.\Generated_Source\PSoC4/cyfitter_cfg.c **** 	if (enabled != 0u)
 311              		.loc 1 300 0
 312 001c 0028     		cmp	r0, #0
 313 001e 03D0     		beq	.L13
 301:.\Generated_Source\PSoC4/cyfitter_cfg.c **** 	{
 302:.\Generated_Source\PSoC4/cyfitter_cfg.c **** 		regValue |= 0x02000000u;
 314              		.loc 1 302 0
 315 0020 8022     		mov	r2, #128
 316 0022 9204     		lsl	r2, r2, #18
 317 0024 1343     		orr	r3, r2
 318              	.LVL30:
 319 0026 01E0     		b	.L14
ARM GAS  C:\Users\ALEXAN~1\AppData\Local\Temp\ccNwHBzY.s 			page 12


 320              	.L13:
 303:.\Generated_Source\PSoC4/cyfitter_cfg.c **** 	}
 304:.\Generated_Source\PSoC4/cyfitter_cfg.c **** 	else
 305:.\Generated_Source\PSoC4/cyfitter_cfg.c **** 	{
 306:.\Generated_Source\PSoC4/cyfitter_cfg.c **** 		regValue &= ~0x02000000u;
 321              		.loc 1 306 0
 322 0028 044A     		ldr	r2, .L15+8
 323 002a 1340     		and	r3, r2
 324              	.LVL31:
 325              	.L14:
 307:.\Generated_Source\PSoC4/cyfitter_cfg.c **** 	}
 308:.\Generated_Source\PSoC4/cyfitter_cfg.c **** 	CY_SET_XTND_REG32((void *)(CYREG_CLK_IMO_CONFIG), regValue);
 326              		.loc 1 308 0
 327 002c 024A     		ldr	r2, .L15+4
 328 002e 1360     		str	r3, [r2]
 309:.\Generated_Source\PSoC4/cyfitter_cfg.c **** }
 329              		.loc 1 309 0
 330              		@ sp needed
 331 0030 7047     		bx	lr
 332              	.L16:
 333 0032 C046     		.align	2
 334              	.L15:
 335 0034 80033A40 		.word	1077543808
 336 0038 08010B40 		.word	1074462984
 337 003c FFFFFFFD 		.word	-33554433
 338              		.cfi_endproc
 339              	.LFE8:
 340              		.size	SetAnalogRoutingPumps, .-SetAnalogRoutingPumps
 341              		.section	.text.AnalogSetDefault,"ax",%progbits
 342              		.align	2
 343              		.code	16
 344              		.thumb_func
 345              		.type	AnalogSetDefault, %function
 346              	AnalogSetDefault:
 347              	.LFB7:
 262:.\Generated_Source\PSoC4/cyfitter_cfg.c **** 	CY_SET_XTND_REG32((void CYFAR *)CYREG_HSIOM_AMUX_SPLIT_CTL2, 0x00000003u);
 348              		.loc 1 262 0
 349              		.cfi_startproc
 350 0000 08B5     		push	{r3, lr}
 351              		.cfi_def_cfa_offset 8
 352              		.cfi_offset 3, -8
 353              		.cfi_offset 14, -4
 263:.\Generated_Source\PSoC4/cyfitter_cfg.c **** 	CY_SET_XTND_REG32((void CYFAR *)CYREG_CTBM0_DFT_CTRL, 0x00000003u);
 354              		.loc 1 263 0
 355 0002 0323     		mov	r3, #3
 356 0004 064A     		ldr	r2, .L18
 357 0006 1360     		str	r3, [r2]
 264:.\Generated_Source\PSoC4/cyfitter_cfg.c **** 	CY_SET_XTND_REG32((void CYFAR *)CYREG_CTBM1_DFT_CTRL, 0x00000003u);
 358              		.loc 1 264 0
 359 0008 064A     		ldr	r2, .L18+4
 360 000a 1360     		str	r3, [r2]
 265:.\Generated_Source\PSoC4/cyfitter_cfg.c **** 	CY_SET_XTND_REG32((void CYFAR *)CYREG_PASS_DSAB_DSAB_CTRL, 0x00000000u);
 361              		.loc 1 265 0
 362 000c 064A     		ldr	r2, .L18+8
 363 000e 1360     		str	r3, [r2]
 266:.\Generated_Source\PSoC4/cyfitter_cfg.c **** 	SetAnalogRoutingPumps(1);
 364              		.loc 1 266 0
ARM GAS  C:\Users\ALEXAN~1\AppData\Local\Temp\ccNwHBzY.s 			page 13


 365 0010 0022     		mov	r2, #0
 366 0012 064B     		ldr	r3, .L18+12
 367 0014 1A60     		str	r2, [r3]
 267:.\Generated_Source\PSoC4/cyfitter_cfg.c **** }
 368              		.loc 1 267 0
 369 0016 0120     		mov	r0, #1
 370 0018 FFF7FEFF 		bl	SetAnalogRoutingPumps
 371              	.LVL32:
 268:.\Generated_Source\PSoC4/cyfitter_cfg.c **** 
 372              		.loc 1 268 0
 373              		@ sp needed
 374 001c 08BD     		pop	{r3, pc}
 375              	.L19:
 376 001e C046     		.align	2
 377              	.L18:
 378 0020 08210240 		.word	1073881352
 379 0024 30003040 		.word	1076887600
 380 0028 30003140 		.word	1076953136
 381 002c 000E3F40 		.word	1077874176
 382              		.cfi_endproc
 383              	.LFE7:
 384              		.size	AnalogSetDefault, .-AnalogSetDefault
 385              		.section	.psocinit
 386              		.align	2
 387              		.global	cyfitter_cfg
 388              		.code	16
 389              		.thumb_func
 390              		.type	cyfitter_cfg, %function
 391              	cyfitter_cfg:
 392              	.LFB9:
 310:.\Generated_Source\PSoC4/cyfitter_cfg.c **** 
 311:.\Generated_Source\PSoC4/cyfitter_cfg.c **** #define CY_AMUX_UNUSED CYREG_CM0_ROM_DWT
 312:.\Generated_Source\PSoC4/cyfitter_cfg.c **** 
 313:.\Generated_Source\PSoC4/cyfitter_cfg.c **** 
 314:.\Generated_Source\PSoC4/cyfitter_cfg.c **** /*******************************************************************************
 315:.\Generated_Source\PSoC4/cyfitter_cfg.c **** * Function Name: cyfitter_cfg
 316:.\Generated_Source\PSoC4/cyfitter_cfg.c **** ********************************************************************************
 317:.\Generated_Source\PSoC4/cyfitter_cfg.c **** * Summary:
 318:.\Generated_Source\PSoC4/cyfitter_cfg.c **** *  This function is called by the start-up code for the selected device. It
 319:.\Generated_Source\PSoC4/cyfitter_cfg.c **** *  performs all of the necessary device configuration based on the design
 320:.\Generated_Source\PSoC4/cyfitter_cfg.c **** *  settings.  This includes settings from the Design Wide Resources (DWR) such
 321:.\Generated_Source\PSoC4/cyfitter_cfg.c **** *  as Clocks and Pins as well as any component configuration that is necessary.
 322:.\Generated_Source\PSoC4/cyfitter_cfg.c **** *
 323:.\Generated_Source\PSoC4/cyfitter_cfg.c **** * Parameters:  
 324:.\Generated_Source\PSoC4/cyfitter_cfg.c **** *   void
 325:.\Generated_Source\PSoC4/cyfitter_cfg.c **** *
 326:.\Generated_Source\PSoC4/cyfitter_cfg.c **** * Return:
 327:.\Generated_Source\PSoC4/cyfitter_cfg.c **** *   void
 328:.\Generated_Source\PSoC4/cyfitter_cfg.c **** *
 329:.\Generated_Source\PSoC4/cyfitter_cfg.c **** *******************************************************************************/
 330:.\Generated_Source\PSoC4/cyfitter_cfg.c **** CY_CFG_SECTION
 331:.\Generated_Source\PSoC4/cyfitter_cfg.c **** void cyfitter_cfg(void)
 332:.\Generated_Source\PSoC4/cyfitter_cfg.c **** {
 393              		.loc 1 332 0
 394              		.cfi_startproc
 395 0100 38B5     		push	{r3, r4, r5, lr}
 396              		.cfi_def_cfa_offset 16
ARM GAS  C:\Users\ALEXAN~1\AppData\Local\Temp\ccNwHBzY.s 			page 14


 397              		.cfi_offset 3, -16
 398              		.cfi_offset 4, -12
 399              		.cfi_offset 5, -8
 400              		.cfi_offset 14, -4
 333:.\Generated_Source\PSoC4/cyfitter_cfg.c **** 	/* Disable interrupts by default. Let user enable if/when they want. */
 334:.\Generated_Source\PSoC4/cyfitter_cfg.c **** 	CyGlobalIntDisable;
 401              		.loc 1 334 0
 402              	@ 334 ".\Generated_Source\PSoC4\cyfitter_cfg.c" 1
 403 0102 72B6     		CPSID   i
 404              	@ 0 "" 2
 335:.\Generated_Source\PSoC4/cyfitter_cfg.c **** 
 336:.\Generated_Source\PSoC4/cyfitter_cfg.c **** 	CY_SET_XTND_REG32((void CYFAR *)(CYREG_BLE_BLESS_LL_DSM_CTRL), 0x00000000u);
 405              		.loc 1 336 0
 406              		.code	16
 407 0104 0022     		mov	r2, #0
 408 0106 3F4B     		ldr	r3, .L23
 409 0108 1A60     		str	r2, [r3]
 337:.\Generated_Source\PSoC4/cyfitter_cfg.c **** 
 338:.\Generated_Source\PSoC4/cyfitter_cfg.c **** 	/* Enable the clock in the interrupt controller for the routed interrupts */
 339:.\Generated_Source\PSoC4/cyfitter_cfg.c **** 	CY_SET_REG8((void *)CYREG_UDB_UDBIF_INT_CLK_CTL, 0x01u);
 410              		.loc 1 339 0
 411 010a 0132     		add	r2, r2, #1
 412 010c 3E4B     		ldr	r3, .L23+4
 413 010e 1A70     		strb	r2, [r3]
 414              	.LVL33:
 415              	.LBB3:
 340:.\Generated_Source\PSoC4/cyfitter_cfg.c **** 	{
 341:.\Generated_Source\PSoC4/cyfitter_cfg.c **** 		static const uint32 CYCODE cy_cfg_addr_table[] = {
 342:.\Generated_Source\PSoC4/cyfitter_cfg.c **** 			0x400F0001u, /* Base address: 0x400F0000 Count: 1 */
 343:.\Generated_Source\PSoC4/cyfitter_cfg.c **** 			0x400F3033u, /* Base address: 0x400F3000 Count: 51 */
 344:.\Generated_Source\PSoC4/cyfitter_cfg.c **** 			0x400F3115u, /* Base address: 0x400F3100 Count: 21 */
 345:.\Generated_Source\PSoC4/cyfitter_cfg.c **** 			0x400F3241u, /* Base address: 0x400F3200 Count: 65 */
 346:.\Generated_Source\PSoC4/cyfitter_cfg.c **** 			0x400F3328u, /* Base address: 0x400F3300 Count: 40 */
 347:.\Generated_Source\PSoC4/cyfitter_cfg.c **** 			0x400F410Au, /* Base address: 0x400F4100 Count: 10 */
 348:.\Generated_Source\PSoC4/cyfitter_cfg.c **** 			0x400F4202u, /* Base address: 0x400F4200 Count: 2 */
 349:.\Generated_Source\PSoC4/cyfitter_cfg.c **** 			0x400F4309u, /* Base address: 0x400F4300 Count: 9 */
 350:.\Generated_Source\PSoC4/cyfitter_cfg.c **** 			0x400F6002u, /* Base address: 0x400F6000 Count: 2 */
 351:.\Generated_Source\PSoC4/cyfitter_cfg.c **** 		};
 352:.\Generated_Source\PSoC4/cyfitter_cfg.c **** 
 353:.\Generated_Source\PSoC4/cyfitter_cfg.c **** 		static const cy_cfg_addrvalue_t CYCODE cy_cfg_data_table[] = {
 354:.\Generated_Source\PSoC4/cyfitter_cfg.c **** 			{0x81u, 0x0Du},
 355:.\Generated_Source\PSoC4/cyfitter_cfg.c **** 			{0x40u, 0x54u},
 356:.\Generated_Source\PSoC4/cyfitter_cfg.c **** 			{0x49u, 0xFFu},
 357:.\Generated_Source\PSoC4/cyfitter_cfg.c **** 			{0x4Au, 0xFFu},
 358:.\Generated_Source\PSoC4/cyfitter_cfg.c **** 			{0x4Bu, 0xFFu},
 359:.\Generated_Source\PSoC4/cyfitter_cfg.c **** 			{0x4Fu, 0x01u},
 360:.\Generated_Source\PSoC4/cyfitter_cfg.c **** 			{0x50u, 0x18u},
 361:.\Generated_Source\PSoC4/cyfitter_cfg.c **** 			{0x5Au, 0x04u},
 362:.\Generated_Source\PSoC4/cyfitter_cfg.c **** 			{0x5Du, 0x09u},
 363:.\Generated_Source\PSoC4/cyfitter_cfg.c **** 			{0x5Fu, 0x01u},
 364:.\Generated_Source\PSoC4/cyfitter_cfg.c **** 			{0x60u, 0x40u},
 365:.\Generated_Source\PSoC4/cyfitter_cfg.c **** 			{0x62u, 0x40u},
 366:.\Generated_Source\PSoC4/cyfitter_cfg.c **** 			{0x64u, 0x40u},
 367:.\Generated_Source\PSoC4/cyfitter_cfg.c **** 			{0x65u, 0x40u},
 368:.\Generated_Source\PSoC4/cyfitter_cfg.c **** 			{0x66u, 0x80u},
 369:.\Generated_Source\PSoC4/cyfitter_cfg.c **** 			{0x68u, 0x80u},
 370:.\Generated_Source\PSoC4/cyfitter_cfg.c **** 			{0x6Au, 0x80u},
ARM GAS  C:\Users\ALEXAN~1\AppData\Local\Temp\ccNwHBzY.s 			page 15


 371:.\Generated_Source\PSoC4/cyfitter_cfg.c **** 			{0x6Cu, 0x80u},
 372:.\Generated_Source\PSoC4/cyfitter_cfg.c **** 			{0x6Eu, 0x80u},
 373:.\Generated_Source\PSoC4/cyfitter_cfg.c **** 			{0x82u, 0x01u},
 374:.\Generated_Source\PSoC4/cyfitter_cfg.c **** 			{0x92u, 0x01u},
 375:.\Generated_Source\PSoC4/cyfitter_cfg.c **** 			{0xB0u, 0x01u},
 376:.\Generated_Source\PSoC4/cyfitter_cfg.c **** 			{0xB6u, 0x01u},
 377:.\Generated_Source\PSoC4/cyfitter_cfg.c **** 			{0xBEu, 0x01u},
 378:.\Generated_Source\PSoC4/cyfitter_cfg.c **** 			{0xC0u, 0x45u},
 379:.\Generated_Source\PSoC4/cyfitter_cfg.c **** 			{0xC5u, 0xECu},
 380:.\Generated_Source\PSoC4/cyfitter_cfg.c **** 			{0xC6u, 0x02u},
 381:.\Generated_Source\PSoC4/cyfitter_cfg.c **** 			{0xC8u, 0x07u},
 382:.\Generated_Source\PSoC4/cyfitter_cfg.c **** 			{0xC9u, 0xFFu},
 383:.\Generated_Source\PSoC4/cyfitter_cfg.c **** 			{0xCAu, 0xFFu},
 384:.\Generated_Source\PSoC4/cyfitter_cfg.c **** 			{0xCBu, 0xFFu},
 385:.\Generated_Source\PSoC4/cyfitter_cfg.c **** 			{0xCDu, 0x83u},
 386:.\Generated_Source\PSoC4/cyfitter_cfg.c **** 			{0xCEu, 0x03u},
 387:.\Generated_Source\PSoC4/cyfitter_cfg.c **** 			{0xCFu, 0x01u},
 388:.\Generated_Source\PSoC4/cyfitter_cfg.c **** 			{0xD0u, 0x18u},
 389:.\Generated_Source\PSoC4/cyfitter_cfg.c **** 			{0xD2u, 0x80u},
 390:.\Generated_Source\PSoC4/cyfitter_cfg.c **** 			{0xD4u, 0x01u},
 391:.\Generated_Source\PSoC4/cyfitter_cfg.c **** 			{0xD8u, 0x04u},
 392:.\Generated_Source\PSoC4/cyfitter_cfg.c **** 			{0xDAu, 0x04u},
 393:.\Generated_Source\PSoC4/cyfitter_cfg.c **** 			{0xDBu, 0x04u},
 394:.\Generated_Source\PSoC4/cyfitter_cfg.c **** 			{0xDCu, 0x09u},
 395:.\Generated_Source\PSoC4/cyfitter_cfg.c **** 			{0xDDu, 0x99u},
 396:.\Generated_Source\PSoC4/cyfitter_cfg.c **** 			{0xDFu, 0x01u},
 397:.\Generated_Source\PSoC4/cyfitter_cfg.c **** 			{0xE0u, 0x40u},
 398:.\Generated_Source\PSoC4/cyfitter_cfg.c **** 			{0xE2u, 0x40u},
 399:.\Generated_Source\PSoC4/cyfitter_cfg.c **** 			{0xE4u, 0x40u},
 400:.\Generated_Source\PSoC4/cyfitter_cfg.c **** 			{0xE5u, 0x40u},
 401:.\Generated_Source\PSoC4/cyfitter_cfg.c **** 			{0xE6u, 0x80u},
 402:.\Generated_Source\PSoC4/cyfitter_cfg.c **** 			{0xE8u, 0x80u},
 403:.\Generated_Source\PSoC4/cyfitter_cfg.c **** 			{0xEAu, 0x80u},
 404:.\Generated_Source\PSoC4/cyfitter_cfg.c **** 			{0xECu, 0x80u},
 405:.\Generated_Source\PSoC4/cyfitter_cfg.c **** 			{0xEEu, 0x80u},
 406:.\Generated_Source\PSoC4/cyfitter_cfg.c **** 			{0x06u, 0x40u},
 407:.\Generated_Source\PSoC4/cyfitter_cfg.c **** 			{0x0Fu, 0x80u},
 408:.\Generated_Source\PSoC4/cyfitter_cfg.c **** 			{0x1Eu, 0x80u},
 409:.\Generated_Source\PSoC4/cyfitter_cfg.c **** 			{0x1Fu, 0x80u},
 410:.\Generated_Source\PSoC4/cyfitter_cfg.c **** 			{0x42u, 0x80u},
 411:.\Generated_Source\PSoC4/cyfitter_cfg.c **** 			{0x46u, 0x40u},
 412:.\Generated_Source\PSoC4/cyfitter_cfg.c **** 			{0x48u, 0x01u},
 413:.\Generated_Source\PSoC4/cyfitter_cfg.c **** 			{0x4Du, 0x04u},
 414:.\Generated_Source\PSoC4/cyfitter_cfg.c **** 			{0x4Fu, 0x81u},
 415:.\Generated_Source\PSoC4/cyfitter_cfg.c **** 			{0x56u, 0x80u},
 416:.\Generated_Source\PSoC4/cyfitter_cfg.c **** 			{0x57u, 0x40u},
 417:.\Generated_Source\PSoC4/cyfitter_cfg.c **** 			{0x5Du, 0x04u},
 418:.\Generated_Source\PSoC4/cyfitter_cfg.c **** 			{0x5Eu, 0x80u},
 419:.\Generated_Source\PSoC4/cyfitter_cfg.c **** 			{0x5Fu, 0x01u},
 420:.\Generated_Source\PSoC4/cyfitter_cfg.c **** 			{0x74u, 0x01u},
 421:.\Generated_Source\PSoC4/cyfitter_cfg.c **** 			{0x76u, 0x40u},
 422:.\Generated_Source\PSoC4/cyfitter_cfg.c **** 			{0xC0u, 0x10u},
 423:.\Generated_Source\PSoC4/cyfitter_cfg.c **** 			{0xC2u, 0x10u},
 424:.\Generated_Source\PSoC4/cyfitter_cfg.c **** 			{0xD0u, 0x81u},
 425:.\Generated_Source\PSoC4/cyfitter_cfg.c **** 			{0xD2u, 0x18u},
 426:.\Generated_Source\PSoC4/cyfitter_cfg.c **** 			{0xD6u, 0xD0u},
 427:.\Generated_Source\PSoC4/cyfitter_cfg.c **** 			{0x01u, 0x04u},
ARM GAS  C:\Users\ALEXAN~1\AppData\Local\Temp\ccNwHBzY.s 			page 16


 428:.\Generated_Source\PSoC4/cyfitter_cfg.c **** 			{0x05u, 0x01u},
 429:.\Generated_Source\PSoC4/cyfitter_cfg.c **** 			{0x07u, 0x02u},
 430:.\Generated_Source\PSoC4/cyfitter_cfg.c **** 			{0x09u, 0x04u},
 431:.\Generated_Source\PSoC4/cyfitter_cfg.c **** 			{0x0Bu, 0x08u},
 432:.\Generated_Source\PSoC4/cyfitter_cfg.c **** 			{0x19u, 0x01u},
 433:.\Generated_Source\PSoC4/cyfitter_cfg.c **** 			{0x1Bu, 0x02u},
 434:.\Generated_Source\PSoC4/cyfitter_cfg.c **** 			{0x25u, 0x04u},
 435:.\Generated_Source\PSoC4/cyfitter_cfg.c **** 			{0x27u, 0x08u},
 436:.\Generated_Source\PSoC4/cyfitter_cfg.c **** 			{0x29u, 0x01u},
 437:.\Generated_Source\PSoC4/cyfitter_cfg.c **** 			{0x2Eu, 0x01u},
 438:.\Generated_Source\PSoC4/cyfitter_cfg.c **** 			{0x33u, 0x03u},
 439:.\Generated_Source\PSoC4/cyfitter_cfg.c **** 			{0x36u, 0x01u},
 440:.\Generated_Source\PSoC4/cyfitter_cfg.c **** 			{0x37u, 0x0Cu},
 441:.\Generated_Source\PSoC4/cyfitter_cfg.c **** 			{0x39u, 0x88u},
 442:.\Generated_Source\PSoC4/cyfitter_cfg.c **** 			{0x40u, 0x03u},
 443:.\Generated_Source\PSoC4/cyfitter_cfg.c **** 			{0x45u, 0x05u},
 444:.\Generated_Source\PSoC4/cyfitter_cfg.c **** 			{0x46u, 0x10u},
 445:.\Generated_Source\PSoC4/cyfitter_cfg.c **** 			{0x47u, 0x04u},
 446:.\Generated_Source\PSoC4/cyfitter_cfg.c **** 			{0x48u, 0x1Bu},
 447:.\Generated_Source\PSoC4/cyfitter_cfg.c **** 			{0x49u, 0xFFu},
 448:.\Generated_Source\PSoC4/cyfitter_cfg.c **** 			{0x4Au, 0xFFu},
 449:.\Generated_Source\PSoC4/cyfitter_cfg.c **** 			{0x4Bu, 0xFFu},
 450:.\Generated_Source\PSoC4/cyfitter_cfg.c **** 			{0x4Cu, 0x02u},
 451:.\Generated_Source\PSoC4/cyfitter_cfg.c **** 			{0x4Du, 0x20u},
 452:.\Generated_Source\PSoC4/cyfitter_cfg.c **** 			{0x4Eu, 0xF0u},
 453:.\Generated_Source\PSoC4/cyfitter_cfg.c **** 			{0x52u, 0x07u},
 454:.\Generated_Source\PSoC4/cyfitter_cfg.c **** 			{0x58u, 0x04u},
 455:.\Generated_Source\PSoC4/cyfitter_cfg.c **** 			{0x59u, 0x0Fu},
 456:.\Generated_Source\PSoC4/cyfitter_cfg.c **** 			{0x5Au, 0x0Fu},
 457:.\Generated_Source\PSoC4/cyfitter_cfg.c **** 			{0x5Bu, 0x04u},
 458:.\Generated_Source\PSoC4/cyfitter_cfg.c **** 			{0x5Fu, 0x01u},
 459:.\Generated_Source\PSoC4/cyfitter_cfg.c **** 			{0x62u, 0x48u},
 460:.\Generated_Source\PSoC4/cyfitter_cfg.c **** 			{0x63u, 0xADu},
 461:.\Generated_Source\PSoC4/cyfitter_cfg.c **** 			{0x64u, 0xC0u},
 462:.\Generated_Source\PSoC4/cyfitter_cfg.c **** 			{0x66u, 0xC0u},
 463:.\Generated_Source\PSoC4/cyfitter_cfg.c **** 			{0x85u, 0x01u},
 464:.\Generated_Source\PSoC4/cyfitter_cfg.c **** 			{0x87u, 0x02u},
 465:.\Generated_Source\PSoC4/cyfitter_cfg.c **** 			{0x89u, 0x01u},
 466:.\Generated_Source\PSoC4/cyfitter_cfg.c **** 			{0x8Bu, 0x02u},
 467:.\Generated_Source\PSoC4/cyfitter_cfg.c **** 			{0x91u, 0x01u},
 468:.\Generated_Source\PSoC4/cyfitter_cfg.c **** 			{0xAEu, 0x01u},
 469:.\Generated_Source\PSoC4/cyfitter_cfg.c **** 			{0xB0u, 0x01u},
 470:.\Generated_Source\PSoC4/cyfitter_cfg.c **** 			{0xB7u, 0x03u},
 471:.\Generated_Source\PSoC4/cyfitter_cfg.c **** 			{0xB9u, 0xA0u},
 472:.\Generated_Source\PSoC4/cyfitter_cfg.c **** 			{0xBFu, 0x10u},
 473:.\Generated_Source\PSoC4/cyfitter_cfg.c **** 			{0xC0u, 0x02u},
 474:.\Generated_Source\PSoC4/cyfitter_cfg.c **** 			{0xC7u, 0x01u},
 475:.\Generated_Source\PSoC4/cyfitter_cfg.c **** 			{0xC8u, 0x12u},
 476:.\Generated_Source\PSoC4/cyfitter_cfg.c **** 			{0xC9u, 0xFFu},
 477:.\Generated_Source\PSoC4/cyfitter_cfg.c **** 			{0xCAu, 0xFFu},
 478:.\Generated_Source\PSoC4/cyfitter_cfg.c **** 			{0xCBu, 0xFFu},
 479:.\Generated_Source\PSoC4/cyfitter_cfg.c **** 			{0xCCu, 0x02u},
 480:.\Generated_Source\PSoC4/cyfitter_cfg.c **** 			{0xCDu, 0x20u},
 481:.\Generated_Source\PSoC4/cyfitter_cfg.c **** 			{0xCEu, 0xF0u},
 482:.\Generated_Source\PSoC4/cyfitter_cfg.c **** 			{0xD2u, 0x03u},
 483:.\Generated_Source\PSoC4/cyfitter_cfg.c **** 			{0xD8u, 0x04u},
 484:.\Generated_Source\PSoC4/cyfitter_cfg.c **** 			{0xD9u, 0x0Cu},
ARM GAS  C:\Users\ALEXAN~1\AppData\Local\Temp\ccNwHBzY.s 			page 17


 485:.\Generated_Source\PSoC4/cyfitter_cfg.c **** 			{0xDAu, 0x0Cu},
 486:.\Generated_Source\PSoC4/cyfitter_cfg.c **** 			{0xDBu, 0x04u},
 487:.\Generated_Source\PSoC4/cyfitter_cfg.c **** 			{0xDFu, 0x01u},
 488:.\Generated_Source\PSoC4/cyfitter_cfg.c **** 			{0xE2u, 0x48u},
 489:.\Generated_Source\PSoC4/cyfitter_cfg.c **** 			{0xE3u, 0xADu},
 490:.\Generated_Source\PSoC4/cyfitter_cfg.c **** 			{0xE4u, 0xC0u},
 491:.\Generated_Source\PSoC4/cyfitter_cfg.c **** 			{0xE6u, 0xC0u},
 492:.\Generated_Source\PSoC4/cyfitter_cfg.c **** 			{0x10u, 0x02u},
 493:.\Generated_Source\PSoC4/cyfitter_cfg.c **** 			{0x15u, 0x40u},
 494:.\Generated_Source\PSoC4/cyfitter_cfg.c **** 			{0x1Bu, 0x01u},
 495:.\Generated_Source\PSoC4/cyfitter_cfg.c **** 			{0x1Fu, 0x80u},
 496:.\Generated_Source\PSoC4/cyfitter_cfg.c **** 			{0x20u, 0x02u},
 497:.\Generated_Source\PSoC4/cyfitter_cfg.c **** 			{0x21u, 0x20u},
 498:.\Generated_Source\PSoC4/cyfitter_cfg.c **** 			{0x23u, 0x08u},
 499:.\Generated_Source\PSoC4/cyfitter_cfg.c **** 			{0x26u, 0x88u},
 500:.\Generated_Source\PSoC4/cyfitter_cfg.c **** 			{0x2Fu, 0x28u},
 501:.\Generated_Source\PSoC4/cyfitter_cfg.c **** 			{0x31u, 0x01u},
 502:.\Generated_Source\PSoC4/cyfitter_cfg.c **** 			{0x36u, 0x20u},
 503:.\Generated_Source\PSoC4/cyfitter_cfg.c **** 			{0x38u, 0x08u},
 504:.\Generated_Source\PSoC4/cyfitter_cfg.c **** 			{0x39u, 0x10u},
 505:.\Generated_Source\PSoC4/cyfitter_cfg.c **** 			{0x3Du, 0x20u},
 506:.\Generated_Source\PSoC4/cyfitter_cfg.c **** 			{0x3Eu, 0x04u},
 507:.\Generated_Source\PSoC4/cyfitter_cfg.c **** 			{0x3Fu, 0x01u},
 508:.\Generated_Source\PSoC4/cyfitter_cfg.c **** 			{0x41u, 0x20u},
 509:.\Generated_Source\PSoC4/cyfitter_cfg.c **** 			{0x47u, 0x08u},
 510:.\Generated_Source\PSoC4/cyfitter_cfg.c **** 			{0x49u, 0x01u},
 511:.\Generated_Source\PSoC4/cyfitter_cfg.c **** 			{0x4Eu, 0x20u},
 512:.\Generated_Source\PSoC4/cyfitter_cfg.c **** 			{0x4Fu, 0x01u},
 513:.\Generated_Source\PSoC4/cyfitter_cfg.c **** 			{0x50u, 0x04u},
 514:.\Generated_Source\PSoC4/cyfitter_cfg.c **** 			{0x57u, 0x28u},
 515:.\Generated_Source\PSoC4/cyfitter_cfg.c **** 			{0x68u, 0x02u},
 516:.\Generated_Source\PSoC4/cyfitter_cfg.c **** 			{0x69u, 0x10u},
 517:.\Generated_Source\PSoC4/cyfitter_cfg.c **** 			{0x6Du, 0x60u},
 518:.\Generated_Source\PSoC4/cyfitter_cfg.c **** 			{0x6Eu, 0x04u},
 519:.\Generated_Source\PSoC4/cyfitter_cfg.c **** 			{0x7Bu, 0x01u},
 520:.\Generated_Source\PSoC4/cyfitter_cfg.c **** 			{0x7Fu, 0x80u},
 521:.\Generated_Source\PSoC4/cyfitter_cfg.c **** 			{0x84u, 0x01u},
 522:.\Generated_Source\PSoC4/cyfitter_cfg.c **** 			{0x87u, 0x08u},
 523:.\Generated_Source\PSoC4/cyfitter_cfg.c **** 			{0x8Au, 0x88u},
 524:.\Generated_Source\PSoC4/cyfitter_cfg.c **** 			{0xABu, 0x80u},
 525:.\Generated_Source\PSoC4/cyfitter_cfg.c **** 			{0xC4u, 0x81u},
 526:.\Generated_Source\PSoC4/cyfitter_cfg.c **** 			{0xCAu, 0x60u},
 527:.\Generated_Source\PSoC4/cyfitter_cfg.c **** 			{0xCCu, 0x21u},
 528:.\Generated_Source\PSoC4/cyfitter_cfg.c **** 			{0xCEu, 0xE6u},
 529:.\Generated_Source\PSoC4/cyfitter_cfg.c **** 			{0xD0u, 0x44u},
 530:.\Generated_Source\PSoC4/cyfitter_cfg.c **** 			{0xDEu, 0x88u},
 531:.\Generated_Source\PSoC4/cyfitter_cfg.c **** 			{0xE4u, 0x08u},
 532:.\Generated_Source\PSoC4/cyfitter_cfg.c **** 			{0x39u, 0x01u},
 533:.\Generated_Source\PSoC4/cyfitter_cfg.c **** 			{0x3Du, 0x01u},
 534:.\Generated_Source\PSoC4/cyfitter_cfg.c **** 			{0x6Fu, 0x20u},
 535:.\Generated_Source\PSoC4/cyfitter_cfg.c **** 			{0x85u, 0x01u},
 536:.\Generated_Source\PSoC4/cyfitter_cfg.c **** 			{0xA3u, 0x20u},
 537:.\Generated_Source\PSoC4/cyfitter_cfg.c **** 			{0xABu, 0x20u},
 538:.\Generated_Source\PSoC4/cyfitter_cfg.c **** 			{0xCEu, 0xC0u},
 539:.\Generated_Source\PSoC4/cyfitter_cfg.c **** 			{0xDAu, 0x80u},
 540:.\Generated_Source\PSoC4/cyfitter_cfg.c **** 			{0xE2u, 0x10u},
 541:.\Generated_Source\PSoC4/cyfitter_cfg.c **** 			{0xEEu, 0x20u},
ARM GAS  C:\Users\ALEXAN~1\AppData\Local\Temp\ccNwHBzY.s 			page 18


 542:.\Generated_Source\PSoC4/cyfitter_cfg.c **** 			{0x67u, 0x08u},
 543:.\Generated_Source\PSoC4/cyfitter_cfg.c **** 			{0xD8u, 0x01u},
 544:.\Generated_Source\PSoC4/cyfitter_cfg.c **** 			{0x5Au, 0x01u},
 545:.\Generated_Source\PSoC4/cyfitter_cfg.c **** 			{0x5Cu, 0x08u},
 546:.\Generated_Source\PSoC4/cyfitter_cfg.c **** 			{0x84u, 0x08u},
 547:.\Generated_Source\PSoC4/cyfitter_cfg.c **** 			{0x8Au, 0x01u},
 548:.\Generated_Source\PSoC4/cyfitter_cfg.c **** 			{0x8Bu, 0x04u},
 549:.\Generated_Source\PSoC4/cyfitter_cfg.c **** 			{0x97u, 0x08u},
 550:.\Generated_Source\PSoC4/cyfitter_cfg.c **** 			{0xD6u, 0x03u},
 551:.\Generated_Source\PSoC4/cyfitter_cfg.c **** 			{0xE0u, 0x01u},
 552:.\Generated_Source\PSoC4/cyfitter_cfg.c **** 			{0xE4u, 0x01u},
 553:.\Generated_Source\PSoC4/cyfitter_cfg.c **** 			{0x10u, 0x01u},
 554:.\Generated_Source\PSoC4/cyfitter_cfg.c **** 			{0x11u, 0x01u},
 555:.\Generated_Source\PSoC4/cyfitter_cfg.c **** 		};
 556:.\Generated_Source\PSoC4/cyfitter_cfg.c **** 
 557:.\Generated_Source\PSoC4/cyfitter_cfg.c **** 
 558:.\Generated_Source\PSoC4/cyfitter_cfg.c **** 
 559:.\Generated_Source\PSoC4/cyfitter_cfg.c **** 		CYPACKED typedef struct {
 560:.\Generated_Source\PSoC4/cyfitter_cfg.c **** 			void CYFAR *address;
 561:.\Generated_Source\PSoC4/cyfitter_cfg.c **** 			uint16 size;
 562:.\Generated_Source\PSoC4/cyfitter_cfg.c **** 		} CYPACKED_ATTR cfg_memset_t;
 563:.\Generated_Source\PSoC4/cyfitter_cfg.c **** 
 564:.\Generated_Source\PSoC4/cyfitter_cfg.c **** 		static const cfg_memset_t CYCODE cfg_memset_list [] = {
 565:.\Generated_Source\PSoC4/cyfitter_cfg.c **** 			/* address, size */
 566:.\Generated_Source\PSoC4/cyfitter_cfg.c **** 			{(void CYFAR *)(CYDEV_UDB_P0_U0_BASE), 1024u},
 567:.\Generated_Source\PSoC4/cyfitter_cfg.c **** 			{(void CYFAR *)(CYDEV_UDB_DSI0_BASE), 1024u},
 568:.\Generated_Source\PSoC4/cyfitter_cfg.c **** 		};
 569:.\Generated_Source\PSoC4/cyfitter_cfg.c **** 
 570:.\Generated_Source\PSoC4/cyfitter_cfg.c **** 		uint8 CYDATA i;
 571:.\Generated_Source\PSoC4/cyfitter_cfg.c **** 
 572:.\Generated_Source\PSoC4/cyfitter_cfg.c **** 		/* Zero out critical memory blocks before beginning configuration */
 573:.\Generated_Source\PSoC4/cyfitter_cfg.c **** 		for (i = 0u; i < (sizeof(cfg_memset_list)/sizeof(cfg_memset_list[0])); i++)
 416              		.loc 1 573 0
 417 0110 0024     		mov	r4, #0
 418 0112 10E0     		b	.L21
 419              	.LVL34:
 420              	.L22:
 421              	.LBB4:
 574:.\Generated_Source\PSoC4/cyfitter_cfg.c **** 		{
 575:.\Generated_Source\PSoC4/cyfitter_cfg.c **** 			const cfg_memset_t CYCODE * CYDATA ms = &cfg_memset_list[i];
 576:.\Generated_Source\PSoC4/cyfitter_cfg.c **** 			CYMEMZERO(ms->address, (size_t)(uint32)(ms->size));
 422              		.loc 1 576 0 discriminator 3
 423 0114 3D48     		ldr	r0, .L23+8
 424 0116 6300     		lsl	r3, r4, #1
 425 0118 1A19     		add	r2, r3, r4
 426 011a 5200     		lsl	r2, r2, #1
 427 011c 8218     		add	r2, r0, r2
 428 011e 9188     		ldrh	r1, [r2, #4]
 429 0120 1B19     		add	r3, r3, r4
 430 0122 5B00     		lsl	r3, r3, #1
 431 0124 1A5A     		ldrh	r2, [r3, r0]
 432 0126 C318     		add	r3, r0, r3
 433 0128 5888     		ldrh	r0, [r3, #2]
 434 012a 0004     		lsl	r0, r0, #16
 435 012c 1043     		orr	r0, r2
 436 012e FFF7FEFF 		bl	CYMEMZERO
 437              	.LVL35:
ARM GAS  C:\Users\ALEXAN~1\AppData\Local\Temp\ccNwHBzY.s 			page 19


 438              	.LBE4:
 573:.\Generated_Source\PSoC4/cyfitter_cfg.c **** 		{
 439              		.loc 1 573 0 discriminator 3
 440 0132 0134     		add	r4, r4, #1
 441              	.LVL36:
 442 0134 E4B2     		uxtb	r4, r4
 443              	.LVL37:
 444              	.L21:
 573:.\Generated_Source\PSoC4/cyfitter_cfg.c **** 		{
 445              		.loc 1 573 0 is_stmt 0 discriminator 1
 446 0136 012C     		cmp	r4, #1
 447 0138 ECD9     		bls	.L22
 577:.\Generated_Source\PSoC4/cyfitter_cfg.c **** 		}
 578:.\Generated_Source\PSoC4/cyfitter_cfg.c **** 
 579:.\Generated_Source\PSoC4/cyfitter_cfg.c **** 		cfg_write_bytes32(cy_cfg_addr_table, cy_cfg_data_table);
 448              		.loc 1 579 0 is_stmt 1
 449 013a 3449     		ldr	r1, .L23+8
 450 013c 081C     		mov	r0, r1
 451 013e 0C30     		add	r0, r0, #12
 452 0140 3031     		add	r1, r1, #48
 453 0142 FFF7FEFF 		bl	cfg_write_bytes32
 454              	.LVL38:
 580:.\Generated_Source\PSoC4/cyfitter_cfg.c **** 
 581:.\Generated_Source\PSoC4/cyfitter_cfg.c **** 		/* Perform normal device configuration. Order is not critical for these items. */
 582:.\Generated_Source\PSoC4/cyfitter_cfg.c **** 		CY_SET_XTND_REG16((void CYFAR *)(CYREG_UDB_BCTL0_DRV), 0x0100u);
 455              		.loc 1 582 0
 456 0146 8022     		mov	r2, #128
 457 0148 5200     		lsl	r2, r2, #1
 458 014a 314B     		ldr	r3, .L23+12
 459 014c 1A80     		strh	r2, [r3]
 583:.\Generated_Source\PSoC4/cyfitter_cfg.c **** 		CY_SET_XTND_REG8((void CYFAR *)(CYREG_UDB_BCTL0_DRV + 0x2u), 0x01u);
 460              		.loc 1 583 0
 461 014e FF3A     		sub	r2, r2, #255
 462 0150 304B     		ldr	r3, .L23+16
 463 0152 1A70     		strb	r2, [r3]
 584:.\Generated_Source\PSoC4/cyfitter_cfg.c **** 
 585:.\Generated_Source\PSoC4/cyfitter_cfg.c **** 		/* PWR_BG_CONFIG Starting address: CYDEV_PWR_BG_CONFIG */
 586:.\Generated_Source\PSoC4/cyfitter_cfg.c **** 		CY_SET_XTND_REG32((void CYFAR *)(CYREG_PWR_BG_CONFIG), 0x00040000u);
 464              		.loc 1 586 0
 465 0154 8024     		mov	r4, #128
 466              	.LVL39:
 467 0156 E402     		lsl	r4, r4, #11
 468 0158 2F4B     		ldr	r3, .L23+20
 469 015a 1C60     		str	r4, [r3]
 587:.\Generated_Source\PSoC4/cyfitter_cfg.c **** 
 588:.\Generated_Source\PSoC4/cyfitter_cfg.c **** 		/* HSIOM Starting address: CYDEV_HSIOM_BASE */
 589:.\Generated_Source\PSoC4/cyfitter_cfg.c **** 		CY_SET_XTND_REG32((void CYFAR *)(CYDEV_HSIOM_BASE), 0xEE000000u);
 470              		.loc 1 589 0
 471 015c EE21     		mov	r1, #238
 472 015e 0906     		lsl	r1, r1, #24
 473 0160 2E4B     		ldr	r3, .L23+24
 474 0162 1960     		str	r1, [r3]
 590:.\Generated_Source\PSoC4/cyfitter_cfg.c **** 		CY_SET_XTND_REG32((void CYFAR *)(CYREG_HSIOM_PORT_SEL2), 0x03000000u);
 475              		.loc 1 590 0
 476 0164 C021     		mov	r1, #192
 477 0166 8904     		lsl	r1, r1, #18
 478 0168 2D4B     		ldr	r3, .L23+28
ARM GAS  C:\Users\ALEXAN~1\AppData\Local\Temp\ccNwHBzY.s 			page 20


 479 016a 1960     		str	r1, [r3]
 591:.\Generated_Source\PSoC4/cyfitter_cfg.c **** 		CY_SET_XTND_REG32((void CYFAR *)(CYREG_HSIOM_PORT_SEL3), 0x33000000u);
 480              		.loc 1 591 0
 481 016c CC21     		mov	r1, #204
 482 016e 8905     		lsl	r1, r1, #22
 483 0170 2C4B     		ldr	r3, .L23+32
 484 0172 1960     		str	r1, [r3]
 592:.\Generated_Source\PSoC4/cyfitter_cfg.c **** 
 593:.\Generated_Source\PSoC4/cyfitter_cfg.c **** 		/* UDB_PA_0 Starting address: CYDEV_UDB_PA0_BASE */
 594:.\Generated_Source\PSoC4/cyfitter_cfg.c **** 		CY_SET_XTND_REG32((void CYFAR *)(CYDEV_UDB_PA0_BASE), 0x00990000u);
 485              		.loc 1 594 0
 486 0174 9923     		mov	r3, #153
 487 0176 1B04     		lsl	r3, r3, #16
 488 0178 2B49     		ldr	r1, .L23+36
 489 017a 0B60     		str	r3, [r1]
 595:.\Generated_Source\PSoC4/cyfitter_cfg.c **** 
 596:.\Generated_Source\PSoC4/cyfitter_cfg.c **** 		/* UDB_PA_1 Starting address: CYDEV_UDB_PA1_BASE */
 597:.\Generated_Source\PSoC4/cyfitter_cfg.c **** 		CY_SET_XTND_REG32((void CYFAR *)(CYDEV_UDB_PA1_BASE), 0x00990000u);
 490              		.loc 1 597 0
 491 017c 2B49     		ldr	r1, .L23+40
 492 017e 0B60     		str	r3, [r1]
 598:.\Generated_Source\PSoC4/cyfitter_cfg.c **** 
 599:.\Generated_Source\PSoC4/cyfitter_cfg.c **** 		/* UDB_PA_2 Starting address: CYDEV_UDB_PA2_BASE */
 600:.\Generated_Source\PSoC4/cyfitter_cfg.c **** 		CY_SET_XTND_REG32((void CYFAR *)(CYDEV_UDB_PA2_BASE), 0x00990000u);
 493              		.loc 1 600 0
 494 0180 2B49     		ldr	r1, .L23+44
 495 0182 0B60     		str	r3, [r1]
 601:.\Generated_Source\PSoC4/cyfitter_cfg.c **** 		CY_SET_XTND_REG32((void CYFAR *)(CYREG_UDB_PA2_CFG8), 0x30000000u);
 496              		.loc 1 601 0
 497 0184 C020     		mov	r0, #192
 498 0186 8005     		lsl	r0, r0, #22
 499 0188 2A49     		ldr	r1, .L23+48
 500 018a 0860     		str	r0, [r1]
 602:.\Generated_Source\PSoC4/cyfitter_cfg.c **** 
 603:.\Generated_Source\PSoC4/cyfitter_cfg.c **** 		/* UDB_PA_3 Starting address: CYDEV_UDB_PA3_BASE */
 604:.\Generated_Source\PSoC4/cyfitter_cfg.c **** 		CY_SET_XTND_REG32((void CYFAR *)(CYDEV_UDB_PA3_BASE), 0x00990000u);
 501              		.loc 1 604 0
 502 018c 2A49     		ldr	r1, .L23+52
 503 018e 0B60     		str	r3, [r1]
 605:.\Generated_Source\PSoC4/cyfitter_cfg.c **** 		CY_SET_XTND_REG32((void CYFAR *)(CYREG_UDB_PA3_CFG8), 0x40000000u);
 504              		.loc 1 605 0
 505 0190 8021     		mov	r1, #128
 506 0192 C905     		lsl	r1, r1, #23
 507 0194 294B     		ldr	r3, .L23+56
 508 0196 1960     		str	r1, [r3]
 606:.\Generated_Source\PSoC4/cyfitter_cfg.c **** 
 607:.\Generated_Source\PSoC4/cyfitter_cfg.c **** 		/* INT_SELECT Starting address: CYDEV_CPUSS_INT_SEL */
 608:.\Generated_Source\PSoC4/cyfitter_cfg.c **** 		CY_SET_XTND_REG32((void CYFAR *)(CYREG_CPUSS_INT_SEL), 0x00000002u);
 509              		.loc 1 608 0
 510 0198 0223     		mov	r3, #2
 511 019a 2949     		ldr	r1, .L23+60
 512 019c 0B60     		str	r3, [r1]
 609:.\Generated_Source\PSoC4/cyfitter_cfg.c **** 
 610:.\Generated_Source\PSoC4/cyfitter_cfg.c **** 		/* INT_CONFIG Starting address: CYDEV_UDB_INT_CFG */
 611:.\Generated_Source\PSoC4/cyfitter_cfg.c **** 		CY_SET_XTND_REG32((void CYFAR *)(CYREG_UDB_INT_CFG), 0x00000002u);
 513              		.loc 1 611 0
 514 019e 2949     		ldr	r1, .L23+64
ARM GAS  C:\Users\ALEXAN~1\AppData\Local\Temp\ccNwHBzY.s 			page 21


 515 01a0 0B60     		str	r3, [r1]
 612:.\Generated_Source\PSoC4/cyfitter_cfg.c **** 
 613:.\Generated_Source\PSoC4/cyfitter_cfg.c **** 		/* Enable digital routing */
 614:.\Generated_Source\PSoC4/cyfitter_cfg.c **** 		CY_SET_XTND_REG8((void *)CYREG_UDB_UDBIF_BANK_CTL, CY_GET_XTND_REG8((void *)CYREG_UDB_UDBIF_BANK_
 516              		.loc 1 614 0
 517 01a2 294B     		ldr	r3, .L23+68
 518 01a4 1878     		ldrb	r0, [r3]
 519 01a6 0221     		mov	r1, #2
 520 01a8 0143     		orr	r1, r0
 521 01aa 1970     		strb	r1, [r3]
 615:.\Generated_Source\PSoC4/cyfitter_cfg.c **** 
 616:.\Generated_Source\PSoC4/cyfitter_cfg.c **** 		/* Enable UDB array */
 617:.\Generated_Source\PSoC4/cyfitter_cfg.c **** 		CY_SET_XTND_REG8((void *)CYREG_UDB_UDBIF_WAIT_CFG, (uint8)((CY_GET_XTND_REG8((void *)CYREG_UDB_UD
 522              		.loc 1 617 0
 523 01ac 274D     		ldr	r5, .L23+72
 524 01ae 2978     		ldrb	r1, [r5]
 525 01b0 3C20     		mov	r0, #60
 526 01b2 8143     		bic	r1, r0
 527 01b4 2838     		sub	r0, r0, #40
 528 01b6 0143     		orr	r1, r0
 529 01b8 2970     		strb	r1, [r5]
 618:.\Generated_Source\PSoC4/cyfitter_cfg.c **** 		CY_SET_XTND_REG8((void *)CYREG_UDB_UDBIF_BANK_CTL, (uint8)(CY_GET_XTND_REG8((void *)CYREG_UDB_UDB
 530              		.loc 1 618 0
 531 01ba 1878     		ldrb	r0, [r3]
 532 01bc 1621     		mov	r1, #22
 533 01be 0143     		orr	r1, r0
 534 01c0 1970     		strb	r1, [r3]
 535              	.LBE3:
 619:.\Generated_Source\PSoC4/cyfitter_cfg.c **** 	}
 620:.\Generated_Source\PSoC4/cyfitter_cfg.c **** 
 621:.\Generated_Source\PSoC4/cyfitter_cfg.c **** 	/* Perform second pass device configuration. These items must be configured in specific order afte
 622:.\Generated_Source\PSoC4/cyfitter_cfg.c **** 	/* IOPINS0_0 Starting address: CYDEV_GPIO_PRT0_BASE */
 623:.\Generated_Source\PSoC4/cyfitter_cfg.c **** 	CY_SET_XTND_REG32((void CYFAR *)(CYREG_GPIO_PRT0_PC), 0x00D80000u);
 536              		.loc 1 623 0
 537 01c2 D821     		mov	r1, #216
 538 01c4 0904     		lsl	r1, r1, #16
 539 01c6 224B     		ldr	r3, .L23+76
 540 01c8 1960     		str	r1, [r3]
 624:.\Generated_Source\PSoC4/cyfitter_cfg.c **** 
 625:.\Generated_Source\PSoC4/cyfitter_cfg.c **** 	/* IOPINS0_1 Starting address: CYDEV_GPIO_PRT1_BASE */
 626:.\Generated_Source\PSoC4/cyfitter_cfg.c **** 	CY_SET_XTND_REG32((void CYFAR *)(CYDEV_GPIO_PRT1_BASE), 0x0000008Fu);
 541              		.loc 1 626 0
 542 01ca 8F23     		mov	r3, #143
 543 01cc 2149     		ldr	r1, .L23+80
 544 01ce 0B60     		str	r3, [r1]
 627:.\Generated_Source\PSoC4/cyfitter_cfg.c **** 	CY_SET_XTND_REG32((void CYFAR *)(CYREG_GPIO_PRT1_PC2), 0x0000008Fu);
 545              		.loc 1 627 0
 546 01d0 2149     		ldr	r1, .L23+84
 547 01d2 0B60     		str	r3, [r1]
 628:.\Generated_Source\PSoC4/cyfitter_cfg.c **** 
 629:.\Generated_Source\PSoC4/cyfitter_cfg.c **** 	/* IOPINS0_2 Starting address: CYDEV_GPIO_PRT2_BASE */
 630:.\Generated_Source\PSoC4/cyfitter_cfg.c **** 	CY_SET_XTND_REG32((void CYFAR *)(CYDEV_GPIO_PRT2_BASE), 0x0000007Eu);
 548              		.loc 1 630 0
 549 01d4 7E21     		mov	r1, #126
 550 01d6 214B     		ldr	r3, .L23+88
 551 01d8 1960     		str	r1, [r3]
 631:.\Generated_Source\PSoC4/cyfitter_cfg.c **** 	CY_SET_XTND_REG32((void CYFAR *)(CYREG_GPIO_PRT2_PC), 0x00040000u);
ARM GAS  C:\Users\ALEXAN~1\AppData\Local\Temp\ccNwHBzY.s 			page 22


 552              		.loc 1 631 0
 553 01da 214B     		ldr	r3, .L23+92
 554 01dc 1C60     		str	r4, [r3]
 632:.\Generated_Source\PSoC4/cyfitter_cfg.c **** 	CY_SET_XTND_REG32((void CYFAR *)(CYREG_GPIO_PRT2_PC2), 0x0000003Eu);
 555              		.loc 1 632 0
 556 01de 4039     		sub	r1, r1, #64
 557 01e0 204B     		ldr	r3, .L23+96
 558 01e2 1960     		str	r1, [r3]
 633:.\Generated_Source\PSoC4/cyfitter_cfg.c **** 
 634:.\Generated_Source\PSoC4/cyfitter_cfg.c **** 	/* IOPINS0_3 Starting address: CYDEV_GPIO_PRT3_BASE */
 635:.\Generated_Source\PSoC4/cyfitter_cfg.c **** 	CY_SET_XTND_REG32((void CYFAR *)(CYDEV_GPIO_PRT3_BASE), 0x000000C0u);
 559              		.loc 1 635 0
 560 01e4 8231     		add	r1, r1, #130
 561 01e6 204B     		ldr	r3, .L23+100
 562 01e8 1960     		str	r1, [r3]
 636:.\Generated_Source\PSoC4/cyfitter_cfg.c **** 	CY_SET_XTND_REG32((void CYFAR *)(CYREG_GPIO_PRT3_PC), 0x00240000u);
 563              		.loc 1 636 0
 564 01ea 9021     		mov	r1, #144
 565 01ec 8903     		lsl	r1, r1, #14
 566 01ee 1F4B     		ldr	r3, .L23+104
 567 01f0 1960     		str	r1, [r3]
 637:.\Generated_Source\PSoC4/cyfitter_cfg.c **** 
 638:.\Generated_Source\PSoC4/cyfitter_cfg.c **** 	/* IOPINS0_4 Starting address: CYDEV_GPIO_PRT4_BASE */
 639:.\Generated_Source\PSoC4/cyfitter_cfg.c **** 	CY_SET_XTND_REG32((void CYFAR *)(CYDEV_GPIO_PRT4_BASE), 0x00000001u);
 568              		.loc 1 639 0
 569 01f2 1F4B     		ldr	r3, .L23+108
 570 01f4 1A60     		str	r2, [r3]
 640:.\Generated_Source\PSoC4/cyfitter_cfg.c **** 	CY_SET_XTND_REG32((void CYFAR *)(CYREG_GPIO_PRT4_PC2), 0x00000001u);
 571              		.loc 1 640 0
 572 01f6 1F4B     		ldr	r3, .L23+112
 573 01f8 1A60     		str	r2, [r3]
 641:.\Generated_Source\PSoC4/cyfitter_cfg.c **** 
 642:.\Generated_Source\PSoC4/cyfitter_cfg.c **** 	/* Setup clocks based on selections from Clock DWR */
 643:.\Generated_Source\PSoC4/cyfitter_cfg.c **** 	ClockSetup();
 574              		.loc 1 643 0
 575 01fa FFF701FF 		bl	ClockSetup
 576              	.LVL40:
 644:.\Generated_Source\PSoC4/cyfitter_cfg.c **** 
 645:.\Generated_Source\PSoC4/cyfitter_cfg.c **** 	/* Perform basic analog initialization to defaults */
 646:.\Generated_Source\PSoC4/cyfitter_cfg.c **** 	AnalogSetDefault();
 577              		.loc 1 646 0
 578 01fe FFF7FEFF 		bl	AnalogSetDefault
 579              	.LVL41:
 647:.\Generated_Source\PSoC4/cyfitter_cfg.c **** 
 648:.\Generated_Source\PSoC4/cyfitter_cfg.c **** }
 580              		.loc 1 648 0
 581              		@ sp needed
 582 0202 38BD     		pop	{r3, r4, r5, pc}
 583              	.L24:
 584              		.align	2
 585              	.L23:
 586 0204 6CF02E40 		.word	1076818028
 587 0208 1C700F40 		.word	1074753564
 588 020c 00000000 		.word	.LANCHOR0
 589 0210 00600F40 		.word	1074749440
 590 0214 02600F40 		.word	1074749442
 591 0218 14000B40 		.word	1074462740
ARM GAS  C:\Users\ALEXAN~1\AppData\Local\Temp\ccNwHBzY.s 			page 23


 592 021c 00000240 		.word	1073872896
 593 0220 00020240 		.word	1073873408
 594 0224 00030240 		.word	1073873664
 595 0228 00500F40 		.word	1074745344
 596 022c 10500F40 		.word	1074745360
 597 0230 20500F40 		.word	1074745376
 598 0234 28500F40 		.word	1074745384
 599 0238 30500F40 		.word	1074745392
 600 023c 38500F40 		.word	1074745400
 601 0240 20001040 		.word	1074790432
 602 0244 00800F40 		.word	1074757632
 603 0248 00700F40 		.word	1074753536
 604 024c 01700F40 		.word	1074753537
 605 0250 08000440 		.word	1074003976
 606 0254 00010440 		.word	1074004224
 607 0258 18010440 		.word	1074004248
 608 025c 00020440 		.word	1074004480
 609 0260 08020440 		.word	1074004488
 610 0264 18020440 		.word	1074004504
 611 0268 00030440 		.word	1074004736
 612 026c 08030440 		.word	1074004744
 613 0270 00040440 		.word	1074004992
 614 0274 18040440 		.word	1074005016
 615              		.cfi_endproc
 616              	.LFE9:
 617              		.size	cyfitter_cfg, .-cyfitter_cfg
 618              		.section	.rodata
 619              		.align	2
 620              		.set	.LANCHOR0,. + 0
 621              		.type	cfg_memset_list.4771, %object
 622              		.size	cfg_memset_list.4771, 12
 623              	cfg_memset_list.4771:
 624 0000 00300F40 		.word	1074737152
 625 0004 0004     		.short	1024
 626 0006 00400F40 		.4byte	1074741248
 627 000a 0004     		.short	1024
 628              		.type	cy_cfg_addr_table.4765, %object
 629              		.size	cy_cfg_addr_table.4765, 36
 630              	cy_cfg_addr_table.4765:
 631 000c 01000F40 		.word	1074724865
 632 0010 33300F40 		.word	1074737203
 633 0014 15310F40 		.word	1074737429
 634 0018 41320F40 		.word	1074737729
 635 001c 28330F40 		.word	1074737960
 636 0020 0A410F40 		.word	1074741514
 637 0024 02420F40 		.word	1074741762
 638 0028 09430F40 		.word	1074742025
 639 002c 02600F40 		.word	1074749442
 640              		.type	cy_cfg_data_table.4766, %object
 641              		.size	cy_cfg_data_table.4766, 402
 642              	cy_cfg_data_table.4766:
 643 0030 81       		.byte	-127
 644 0031 0D       		.byte	13
 645 0032 40       		.byte	64
 646 0033 54       		.byte	84
 647 0034 49       		.byte	73
 648 0035 FF       		.byte	-1
ARM GAS  C:\Users\ALEXAN~1\AppData\Local\Temp\ccNwHBzY.s 			page 24


 649 0036 4A       		.byte	74
 650 0037 FF       		.byte	-1
 651 0038 4B       		.byte	75
 652 0039 FF       		.byte	-1
 653 003a 4F       		.byte	79
 654 003b 01       		.byte	1
 655 003c 50       		.byte	80
 656 003d 18       		.byte	24
 657 003e 5A       		.byte	90
 658 003f 04       		.byte	4
 659 0040 5D       		.byte	93
 660 0041 09       		.byte	9
 661 0042 5F       		.byte	95
 662 0043 01       		.byte	1
 663 0044 60       		.byte	96
 664 0045 40       		.byte	64
 665 0046 62       		.byte	98
 666 0047 40       		.byte	64
 667 0048 64       		.byte	100
 668 0049 40       		.byte	64
 669 004a 65       		.byte	101
 670 004b 40       		.byte	64
 671 004c 66       		.byte	102
 672 004d 80       		.byte	-128
 673 004e 68       		.byte	104
 674 004f 80       		.byte	-128
 675 0050 6A       		.byte	106
 676 0051 80       		.byte	-128
 677 0052 6C       		.byte	108
 678 0053 80       		.byte	-128
 679 0054 6E       		.byte	110
 680 0055 80       		.byte	-128
 681 0056 82       		.byte	-126
 682 0057 01       		.byte	1
 683 0058 92       		.byte	-110
 684 0059 01       		.byte	1
 685 005a B0       		.byte	-80
 686 005b 01       		.byte	1
 687 005c B6       		.byte	-74
 688 005d 01       		.byte	1
 689 005e BE       		.byte	-66
 690 005f 01       		.byte	1
 691 0060 C0       		.byte	-64
 692 0061 45       		.byte	69
 693 0062 C5       		.byte	-59
 694 0063 EC       		.byte	-20
 695 0064 C6       		.byte	-58
 696 0065 02       		.byte	2
 697 0066 C8       		.byte	-56
 698 0067 07       		.byte	7
 699 0068 C9       		.byte	-55
 700 0069 FF       		.byte	-1
 701 006a CA       		.byte	-54
 702 006b FF       		.byte	-1
 703 006c CB       		.byte	-53
 704 006d FF       		.byte	-1
 705 006e CD       		.byte	-51
ARM GAS  C:\Users\ALEXAN~1\AppData\Local\Temp\ccNwHBzY.s 			page 25


 706 006f 83       		.byte	-125
 707 0070 CE       		.byte	-50
 708 0071 03       		.byte	3
 709 0072 CF       		.byte	-49
 710 0073 01       		.byte	1
 711 0074 D0       		.byte	-48
 712 0075 18       		.byte	24
 713 0076 D2       		.byte	-46
 714 0077 80       		.byte	-128
 715 0078 D4       		.byte	-44
 716 0079 01       		.byte	1
 717 007a D8       		.byte	-40
 718 007b 04       		.byte	4
 719 007c DA       		.byte	-38
 720 007d 04       		.byte	4
 721 007e DB       		.byte	-37
 722 007f 04       		.byte	4
 723 0080 DC       		.byte	-36
 724 0081 09       		.byte	9
 725 0082 DD       		.byte	-35
 726 0083 99       		.byte	-103
 727 0084 DF       		.byte	-33
 728 0085 01       		.byte	1
 729 0086 E0       		.byte	-32
 730 0087 40       		.byte	64
 731 0088 E2       		.byte	-30
 732 0089 40       		.byte	64
 733 008a E4       		.byte	-28
 734 008b 40       		.byte	64
 735 008c E5       		.byte	-27
 736 008d 40       		.byte	64
 737 008e E6       		.byte	-26
 738 008f 80       		.byte	-128
 739 0090 E8       		.byte	-24
 740 0091 80       		.byte	-128
 741 0092 EA       		.byte	-22
 742 0093 80       		.byte	-128
 743 0094 EC       		.byte	-20
 744 0095 80       		.byte	-128
 745 0096 EE       		.byte	-18
 746 0097 80       		.byte	-128
 747 0098 06       		.byte	6
 748 0099 40       		.byte	64
 749 009a 0F       		.byte	15
 750 009b 80       		.byte	-128
 751 009c 1E       		.byte	30
 752 009d 80       		.byte	-128
 753 009e 1F       		.byte	31
 754 009f 80       		.byte	-128
 755 00a0 42       		.byte	66
 756 00a1 80       		.byte	-128
 757 00a2 46       		.byte	70
 758 00a3 40       		.byte	64
 759 00a4 48       		.byte	72
 760 00a5 01       		.byte	1
 761 00a6 4D       		.byte	77
 762 00a7 04       		.byte	4
ARM GAS  C:\Users\ALEXAN~1\AppData\Local\Temp\ccNwHBzY.s 			page 26


 763 00a8 4F       		.byte	79
 764 00a9 81       		.byte	-127
 765 00aa 56       		.byte	86
 766 00ab 80       		.byte	-128
 767 00ac 57       		.byte	87
 768 00ad 40       		.byte	64
 769 00ae 5D       		.byte	93
 770 00af 04       		.byte	4
 771 00b0 5E       		.byte	94
 772 00b1 80       		.byte	-128
 773 00b2 5F       		.byte	95
 774 00b3 01       		.byte	1
 775 00b4 74       		.byte	116
 776 00b5 01       		.byte	1
 777 00b6 76       		.byte	118
 778 00b7 40       		.byte	64
 779 00b8 C0       		.byte	-64
 780 00b9 10       		.byte	16
 781 00ba C2       		.byte	-62
 782 00bb 10       		.byte	16
 783 00bc D0       		.byte	-48
 784 00bd 81       		.byte	-127
 785 00be D2       		.byte	-46
 786 00bf 18       		.byte	24
 787 00c0 D6       		.byte	-42
 788 00c1 D0       		.byte	-48
 789 00c2 01       		.byte	1
 790 00c3 04       		.byte	4
 791 00c4 05       		.byte	5
 792 00c5 01       		.byte	1
 793 00c6 07       		.byte	7
 794 00c7 02       		.byte	2
 795 00c8 09       		.byte	9
 796 00c9 04       		.byte	4
 797 00ca 0B       		.byte	11
 798 00cb 08       		.byte	8
 799 00cc 19       		.byte	25
 800 00cd 01       		.byte	1
 801 00ce 1B       		.byte	27
 802 00cf 02       		.byte	2
 803 00d0 25       		.byte	37
 804 00d1 04       		.byte	4
 805 00d2 27       		.byte	39
 806 00d3 08       		.byte	8
 807 00d4 29       		.byte	41
 808 00d5 01       		.byte	1
 809 00d6 2E       		.byte	46
 810 00d7 01       		.byte	1
 811 00d8 33       		.byte	51
 812 00d9 03       		.byte	3
 813 00da 36       		.byte	54
 814 00db 01       		.byte	1
 815 00dc 37       		.byte	55
 816 00dd 0C       		.byte	12
 817 00de 39       		.byte	57
 818 00df 88       		.byte	-120
 819 00e0 40       		.byte	64
ARM GAS  C:\Users\ALEXAN~1\AppData\Local\Temp\ccNwHBzY.s 			page 27


 820 00e1 03       		.byte	3
 821 00e2 45       		.byte	69
 822 00e3 05       		.byte	5
 823 00e4 46       		.byte	70
 824 00e5 10       		.byte	16
 825 00e6 47       		.byte	71
 826 00e7 04       		.byte	4
 827 00e8 48       		.byte	72
 828 00e9 1B       		.byte	27
 829 00ea 49       		.byte	73
 830 00eb FF       		.byte	-1
 831 00ec 4A       		.byte	74
 832 00ed FF       		.byte	-1
 833 00ee 4B       		.byte	75
 834 00ef FF       		.byte	-1
 835 00f0 4C       		.byte	76
 836 00f1 02       		.byte	2
 837 00f2 4D       		.byte	77
 838 00f3 20       		.byte	32
 839 00f4 4E       		.byte	78
 840 00f5 F0       		.byte	-16
 841 00f6 52       		.byte	82
 842 00f7 07       		.byte	7
 843 00f8 58       		.byte	88
 844 00f9 04       		.byte	4
 845 00fa 59       		.byte	89
 846 00fb 0F       		.byte	15
 847 00fc 5A       		.byte	90
 848 00fd 0F       		.byte	15
 849 00fe 5B       		.byte	91
 850 00ff 04       		.byte	4
 851 0100 5F       		.byte	95
 852 0101 01       		.byte	1
 853 0102 62       		.byte	98
 854 0103 48       		.byte	72
 855 0104 63       		.byte	99
 856 0105 AD       		.byte	-83
 857 0106 64       		.byte	100
 858 0107 C0       		.byte	-64
 859 0108 66       		.byte	102
 860 0109 C0       		.byte	-64
 861 010a 85       		.byte	-123
 862 010b 01       		.byte	1
 863 010c 87       		.byte	-121
 864 010d 02       		.byte	2
 865 010e 89       		.byte	-119
 866 010f 01       		.byte	1
 867 0110 8B       		.byte	-117
 868 0111 02       		.byte	2
 869 0112 91       		.byte	-111
 870 0113 01       		.byte	1
 871 0114 AE       		.byte	-82
 872 0115 01       		.byte	1
 873 0116 B0       		.byte	-80
 874 0117 01       		.byte	1
 875 0118 B7       		.byte	-73
 876 0119 03       		.byte	3
ARM GAS  C:\Users\ALEXAN~1\AppData\Local\Temp\ccNwHBzY.s 			page 28


 877 011a B9       		.byte	-71
 878 011b A0       		.byte	-96
 879 011c BF       		.byte	-65
 880 011d 10       		.byte	16
 881 011e C0       		.byte	-64
 882 011f 02       		.byte	2
 883 0120 C7       		.byte	-57
 884 0121 01       		.byte	1
 885 0122 C8       		.byte	-56
 886 0123 12       		.byte	18
 887 0124 C9       		.byte	-55
 888 0125 FF       		.byte	-1
 889 0126 CA       		.byte	-54
 890 0127 FF       		.byte	-1
 891 0128 CB       		.byte	-53
 892 0129 FF       		.byte	-1
 893 012a CC       		.byte	-52
 894 012b 02       		.byte	2
 895 012c CD       		.byte	-51
 896 012d 20       		.byte	32
 897 012e CE       		.byte	-50
 898 012f F0       		.byte	-16
 899 0130 D2       		.byte	-46
 900 0131 03       		.byte	3
 901 0132 D8       		.byte	-40
 902 0133 04       		.byte	4
 903 0134 D9       		.byte	-39
 904 0135 0C       		.byte	12
 905 0136 DA       		.byte	-38
 906 0137 0C       		.byte	12
 907 0138 DB       		.byte	-37
 908 0139 04       		.byte	4
 909 013a DF       		.byte	-33
 910 013b 01       		.byte	1
 911 013c E2       		.byte	-30
 912 013d 48       		.byte	72
 913 013e E3       		.byte	-29
 914 013f AD       		.byte	-83
 915 0140 E4       		.byte	-28
 916 0141 C0       		.byte	-64
 917 0142 E6       		.byte	-26
 918 0143 C0       		.byte	-64
 919 0144 10       		.byte	16
 920 0145 02       		.byte	2
 921 0146 15       		.byte	21
 922 0147 40       		.byte	64
 923 0148 1B       		.byte	27
 924 0149 01       		.byte	1
 925 014a 1F       		.byte	31
 926 014b 80       		.byte	-128
 927 014c 20       		.byte	32
 928 014d 02       		.byte	2
 929 014e 21       		.byte	33
 930 014f 20       		.byte	32
 931 0150 23       		.byte	35
 932 0151 08       		.byte	8
 933 0152 26       		.byte	38
ARM GAS  C:\Users\ALEXAN~1\AppData\Local\Temp\ccNwHBzY.s 			page 29


 934 0153 88       		.byte	-120
 935 0154 2F       		.byte	47
 936 0155 28       		.byte	40
 937 0156 31       		.byte	49
 938 0157 01       		.byte	1
 939 0158 36       		.byte	54
 940 0159 20       		.byte	32
 941 015a 38       		.byte	56
 942 015b 08       		.byte	8
 943 015c 39       		.byte	57
 944 015d 10       		.byte	16
 945 015e 3D       		.byte	61
 946 015f 20       		.byte	32
 947 0160 3E       		.byte	62
 948 0161 04       		.byte	4
 949 0162 3F       		.byte	63
 950 0163 01       		.byte	1
 951 0164 41       		.byte	65
 952 0165 20       		.byte	32
 953 0166 47       		.byte	71
 954 0167 08       		.byte	8
 955 0168 49       		.byte	73
 956 0169 01       		.byte	1
 957 016a 4E       		.byte	78
 958 016b 20       		.byte	32
 959 016c 4F       		.byte	79
 960 016d 01       		.byte	1
 961 016e 50       		.byte	80
 962 016f 04       		.byte	4
 963 0170 57       		.byte	87
 964 0171 28       		.byte	40
 965 0172 68       		.byte	104
 966 0173 02       		.byte	2
 967 0174 69       		.byte	105
 968 0175 10       		.byte	16
 969 0176 6D       		.byte	109
 970 0177 60       		.byte	96
 971 0178 6E       		.byte	110
 972 0179 04       		.byte	4
 973 017a 7B       		.byte	123
 974 017b 01       		.byte	1
 975 017c 7F       		.byte	127
 976 017d 80       		.byte	-128
 977 017e 84       		.byte	-124
 978 017f 01       		.byte	1
 979 0180 87       		.byte	-121
 980 0181 08       		.byte	8
 981 0182 8A       		.byte	-118
 982 0183 88       		.byte	-120
 983 0184 AB       		.byte	-85
 984 0185 80       		.byte	-128
 985 0186 C4       		.byte	-60
 986 0187 81       		.byte	-127
 987 0188 CA       		.byte	-54
 988 0189 60       		.byte	96
 989 018a CC       		.byte	-52
 990 018b 21       		.byte	33
ARM GAS  C:\Users\ALEXAN~1\AppData\Local\Temp\ccNwHBzY.s 			page 30


 991 018c CE       		.byte	-50
 992 018d E6       		.byte	-26
 993 018e D0       		.byte	-48
 994 018f 44       		.byte	68
 995 0190 DE       		.byte	-34
 996 0191 88       		.byte	-120
 997 0192 E4       		.byte	-28
 998 0193 08       		.byte	8
 999 0194 39       		.byte	57
 1000 0195 01       		.byte	1
 1001 0196 3D       		.byte	61
 1002 0197 01       		.byte	1
 1003 0198 6F       		.byte	111
 1004 0199 20       		.byte	32
 1005 019a 85       		.byte	-123
 1006 019b 01       		.byte	1
 1007 019c A3       		.byte	-93
 1008 019d 20       		.byte	32
 1009 019e AB       		.byte	-85
 1010 019f 20       		.byte	32
 1011 01a0 CE       		.byte	-50
 1012 01a1 C0       		.byte	-64
 1013 01a2 DA       		.byte	-38
 1014 01a3 80       		.byte	-128
 1015 01a4 E2       		.byte	-30
 1016 01a5 10       		.byte	16
 1017 01a6 EE       		.byte	-18
 1018 01a7 20       		.byte	32
 1019 01a8 67       		.byte	103
 1020 01a9 08       		.byte	8
 1021 01aa D8       		.byte	-40
 1022 01ab 01       		.byte	1
 1023 01ac 5A       		.byte	90
 1024 01ad 01       		.byte	1
 1025 01ae 5C       		.byte	92
 1026 01af 08       		.byte	8
 1027 01b0 84       		.byte	-124
 1028 01b1 08       		.byte	8
 1029 01b2 8A       		.byte	-118
 1030 01b3 01       		.byte	1
 1031 01b4 8B       		.byte	-117
 1032 01b5 04       		.byte	4
 1033 01b6 97       		.byte	-105
 1034 01b7 08       		.byte	8
 1035 01b8 D6       		.byte	-42
 1036 01b9 03       		.byte	3
 1037 01ba E0       		.byte	-32
 1038 01bb 01       		.byte	1
 1039 01bc E4       		.byte	-28
 1040 01bd 01       		.byte	1
 1041 01be 10       		.byte	16
 1042 01bf 01       		.byte	1
 1043 01c0 11       		.byte	17
 1044 01c1 01       		.byte	1
 1045 01c2 0000     		.text
 1046              	.Letext0:
 1047              		.file 2 "c:\\program files (x86)\\cypress\\psoc creator\\3.3\\psoc creator\\import\\gnu\\arm\\4.9.
ARM GAS  C:\Users\ALEXAN~1\AppData\Local\Temp\ccNwHBzY.s 			page 31


 1048              		.file 3 ".\\Generated_Source\\PSoC4\\cytypes.h"
 1049              		.file 4 ".\\Generated_Source\\PSoC4\\CyLib.h"
 1050              		.file 5 ".\\Generated_Source\\PSoC4\\CyLFClk.h"