ARM GAS  C:\Users\ALEXAN~1\AppData\Local\Temp\ccvPcvmD.s 			page 1


   1              		.cpu cortex-m0
   2              		.fpu softvfp
   3              		.eabi_attribute 20, 1
   4              		.eabi_attribute 21, 1
   5              		.eabi_attribute 23, 3
   6              		.eabi_attribute 24, 1
   7              		.eabi_attribute 25, 1
   8              		.eabi_attribute 26, 1
   9              		.eabi_attribute 30, 1
  10              		.eabi_attribute 34, 0
  11              		.eabi_attribute 18, 4
  12              		.code	16
  13              		.file	"main.c"
  14              		.text
  15              	.Ltext0:
  16              		.cfi_sections	.debug_frame
  17              		.section	.text.InitializeSystem,"ax",%progbits
  18              		.align	2
  19              		.global	InitializeSystem
  20              		.code	16
  21              		.thumb_func
  22              		.type	InitializeSystem, %function
  23              	InitializeSystem:
  24              	.LFB36:
  25              		.file 1 ".\\main.c"
   1:.\main.c      **** /****************************************************************************
   2:.\main.c      **** *
   3:.\main.c      **** * Project Name		: PSoC CapSense 2 BLE
   4:.\main.c      **** *
   5:.\main.c      **** * File Name			: main.c
   6:.\main.c      **** * Version 			: 1.0
   7:.\main.c      **** *
   8:.\main.c      **** * Device Used		: CY8C4247LQI-BL483
   9:.\main.c      **** * Software Used		: PSoC Creator 3.3
  10:.\main.c      **** * Compiler    		: ARM GCC 4.8.4, ARM MDK Generic
  11:.\main.c      **** * Related Hardware	: CY8CKIT-042-BLE Bluetooth Low Energy Pioneer Kit 
  12:.\main.c      **** *
  13:.\main.c      **** * Owner             : A. BERNIER
  14:.\main.c      **** *
  15:.\main.c      **** *****************************************************************************
  16:.\main.c      **** *
  17:.\main.c      **** * Hardware connection required for testing:
  18:.\main.c      **** * CapSense      - P2[1], P2[2], P2[3], P2[4], P2[5] 
  19:.\main.c      **** * Cmod pin      - P4[0] (hard-wired in the PSoC 4 BLE Module)
  20:.\main.c      **** * R-G-B LED 	- P2[6], P3[6] and P3[7] (hard-wired on the BLE Pioneer kit)
  21:.\main.c      **** *
  22:.\main.c      **** *****************************************************************************/
  23:.\main.c      **** 
  24:.\main.c      **** 
  25:.\main.c      **** /*****************************************************************************
  26:.\main.c      **** * Included headers
  27:.\main.c      **** *****************************************************************************/
  28:.\main.c      **** #include "crc.h"
  29:.\main.c      **** #include "_PrISM.h"
  30:.\main.c      **** #include "_CapSense.h"
  31:.\main.c      **** #include "_BLE.h"
  32:.\main.c      **** 
ARM GAS  C:\Users\ALEXAN~1\AppData\Local\Temp\ccvPcvmD.s 			page 2


  33:.\main.c      **** 
  34:.\main.c      **** /*****************************************************************************
  35:.\main.c      **** * Local global variables
  36:.\main.c      **** *****************************************************************************/
  37:.\main.c      **** // Status flags
  38:.\main.c      **** uint8 Status_Ready;
  39:.\main.c      **** uint8 Status_Acquiring;
  40:.\main.c      **** uint8 Status_NoMoreSpace;
  41:.\main.c      **** uint8 Status_DataAcquired;
  42:.\main.c      **** uint8 Status_Sending;
  43:.\main.c      **** uint8 Status_NoMoreData;
  44:.\main.c      **** 
  45:.\main.c      **** 
  46:.\main.c      **** /*****************************************************************************
  47:.\main.c      **** * Function Declarations
  48:.\main.c      **** *****************************************************************************/
  49:.\main.c      **** void InitializeSystem(void);
  50:.\main.c      **** 
  51:.\main.c      **** 
  52:.\main.c      **** /*****************************************************************************
  53:.\main.c      **** * Function Name: main()
  54:.\main.c      **** ******************************************************************************
  55:.\main.c      **** * Summary:
  56:.\main.c      **** *   Central function which controls the application flow.
  57:.\main.c      **** *
  58:.\main.c      **** * Parameters:
  59:.\main.c      **** *   None.
  60:.\main.c      **** *
  61:.\main.c      **** * Return:
  62:.\main.c      **** *   None.
  63:.\main.c      **** *
  64:.\main.c      **** * Note:
  65:.\main.c      **** *
  66:.\main.c      **** *****************************************************************************/
  67:.\main.c      **** int main()
  68:.\main.c      **** {
  69:.\main.c      ****     InitializeSystem();
  70:.\main.c      ****     
  71:.\main.c      ****     for(;;)
  72:.\main.c      ****     {
  73:.\main.c      ****         // Process all the events in the stack.
  74:.\main.c      ****         CyBle_ProcessEvents();
  75:.\main.c      ****         
  76:.\main.c      ****         // Update the CapSense CCCD.
  77:.\main.c      ****         _BLE_UpdateCCCD();
  78:.\main.c      ****         
  79:.\main.c      ****         // Update the Control values.
  80:.\main.c      ****         _BLE_UpdateControl();
  81:.\main.c      ****         
  82:.\main.c      ****         // If asked by client, send the content of the vector containing
  83:.\main.c      ****         // the CapSense data.
  84:.\main.c      ****         if ( _BLE_sendData ) {
  85:.\main.c      ****             Status_DataAcquired = FALSE;
  86:.\main.c      ****             Status_Sending = TRUE;
  87:.\main.c      ****             
  88:.\main.c      ****             // Send one set of values (all sensors).
  89:.\main.c      ****             if( NO_MORE_DATA == _BLE_sendCapSenseData() ) {
ARM GAS  C:\Users\ALEXAN~1\AppData\Local\Temp\ccvPcvmD.s 			page 3


  90:.\main.c      ****                 Status_NoMoreData = TRUE;
  91:.\main.c      ****                 deleteVector();
  92:.\main.c      ****             }
  93:.\main.c      ****             else
  94:.\main.c      ****                 Status_NoMoreData = FALSE;
  95:.\main.c      ****         }
  96:.\main.c      ****         
  97:.\main.c      ****         // If asked by client, acquire CapSense data and store it in
  98:.\main.c      ****         // the vector.
  99:.\main.c      ****         else if ( _BLE_acquireData ) {
 100:.\main.c      ****             Status_Ready = FALSE;
 101:.\main.c      ****             Status_Acquiring = TRUE;
 102:.\main.c      ****             
 103:.\main.c      ****             // Scan the CapSense widgets once.
 104:.\main.c      ****             if( NO_MORE_SPACE == _CapSense_Scan() )
 105:.\main.c      ****                 Status_NoMoreSpace = TRUE;
 106:.\main.c      ****             else
 107:.\main.c      ****                 Status_NoMoreSpace = FALSE;
 108:.\main.c      ****         }
 109:.\main.c      ****         
 110:.\main.c      ****         // If the 'acquireData' request is not present, but the vector
 111:.\main.c      ****         // isn't empty, then no more data can be acquired.
 112:.\main.c      ****         else if ( !_BLE_acquireData && !vectorIsEmpty() ) {
 113:.\main.c      ****             Status_Acquiring = FALSE;
 114:.\main.c      ****             Status_NoMoreSpace = FALSE;
 115:.\main.c      ****             Status_DataAcquired = TRUE;
 116:.\main.c      ****         }
 117:.\main.c      ****         
 118:.\main.c      ****         // If the 'sendData' request is not present, but the vector
 119:.\main.c      ****         // is empty, then data has been all sent and it's ready to
 120:.\main.c      ****         // acquire new data.
 121:.\main.c      ****         else if ( !_BLE_sendData && vectorIsEmpty() ) {
 122:.\main.c      ****             Status_Sending = FALSE;
 123:.\main.c      ****             Status_NoMoreData = FALSE;
 124:.\main.c      ****             Status_Ready = TRUE;
 125:.\main.c      ****         }
 126:.\main.c      ****         
 127:.\main.c      ****         // If asked by client, send the status flags by notification or
 128:.\main.c      ****         // indication.
 129:.\main.c      ****         if (_BLE_sendStatus)
 130:.\main.c      ****             _BLE_sendPSOCStatus();
 131:.\main.c      ****     }
 132:.\main.c      ****     
 133:.\main.c      **** }
 134:.\main.c      **** 
 135:.\main.c      **** 
 136:.\main.c      **** /*****************************************************************************
 137:.\main.c      **** * Function Name: InitializeSystem()
 138:.\main.c      **** ******************************************************************************
 139:.\main.c      **** * Summary:
 140:.\main.c      **** *   Initialize everything here.
 141:.\main.c      **** *
 142:.\main.c      **** * Parameters:
 143:.\main.c      **** *   None.
 144:.\main.c      **** *
 145:.\main.c      **** * Return:
 146:.\main.c      **** *   None.
ARM GAS  C:\Users\ALEXAN~1\AppData\Local\Temp\ccvPcvmD.s 			page 4


 147:.\main.c      **** *
 148:.\main.c      **** * Note:
 149:.\main.c      **** *
 150:.\main.c      **** *****************************************************************************/
 151:.\main.c      **** void InitializeSystem(void)
 152:.\main.c      **** {
  26              		.loc 1 152 0
  27              		.cfi_startproc
  28 0000 08B5     		push	{r3, lr}
  29              		.cfi_def_cfa_offset 8
  30              		.cfi_offset 3, -8
  31              		.cfi_offset 14, -4
 153:.\main.c      ****     // Enable global interrupts.
 154:.\main.c      ****     CyGlobalIntEnable;
  32              		.loc 1 154 0
  33              	@ 154 ".\main.c" 1
  34 0002 62B6     		CPSIE   i
  35              	@ 0 "" 2
 155:.\main.c      ****     
 156:.\main.c      ****     // Initialize flags
 157:.\main.c      ****     Status_Ready = TRUE;
  36              		.loc 1 157 0
  37              		.code	16
  38 0004 0122     		mov	r2, #1
  39 0006 0C4B     		ldr	r3, .L2
  40 0008 1A70     		strb	r2, [r3]
 158:.\main.c      ****     Status_Acquiring = FALSE;
  41              		.loc 1 158 0
  42 000a 0023     		mov	r3, #0
  43 000c 0B4A     		ldr	r2, .L2+4
  44 000e 1370     		strb	r3, [r2]
 159:.\main.c      ****     Status_NoMoreSpace = FALSE;
  45              		.loc 1 159 0
  46 0010 0B4A     		ldr	r2, .L2+8
  47 0012 1370     		strb	r3, [r2]
 160:.\main.c      ****     Status_DataAcquired = FALSE;
  48              		.loc 1 160 0
  49 0014 0B4A     		ldr	r2, .L2+12
  50 0016 1370     		strb	r3, [r2]
 161:.\main.c      ****     Status_Sending = FALSE;
  51              		.loc 1 161 0
  52 0018 0B4A     		ldr	r2, .L2+16
  53 001a 1370     		strb	r3, [r2]
 162:.\main.c      ****     Status_NoMoreData = FALSE;
  54              		.loc 1 162 0
  55 001c 0B4A     		ldr	r2, .L2+20
  56 001e 1370     		strb	r3, [r2]
 163:.\main.c      ****     
 164:.\main.c      ****     // Initialize the table used for CRC calcultation.
 165:.\main.c      ****     crc_Init();
  57              		.loc 1 165 0
  58 0020 FFF7FEFF 		bl	crc_Init
  59              	.LVL0:
 166:.\main.c      ****     
 167:.\main.c      ****     //Initalize the vectors used for data storage.
 168:.\main.c      ****     Vector_Init();
  60              		.loc 1 168 0
ARM GAS  C:\Users\ALEXAN~1\AppData\Local\Temp\ccvPcvmD.s 			page 5


  61 0024 FFF7FEFF 		bl	Vector_Init
  62              	.LVL1:
 169:.\main.c      ****     
 170:.\main.c      ****     //Initialize the PrISM modules.
 171:.\main.c      ****     _PrISM_Init();
  63              		.loc 1 171 0
  64 0028 FFF7FEFF 		bl	_PrISM_Init
  65              	.LVL2:
 172:.\main.c      ****     
 173:.\main.c      ****     // Initialize the CapSense module.
 174:.\main.c      ****     _CapSense_Init();
  66              		.loc 1 174 0
  67 002c FFF7FEFF 		bl	_CapSense_Init
  68              	.LVL3:
 175:.\main.c      ****     
 176:.\main.c      ****     // Initialize the BLE module.
 177:.\main.c      ****     _BLE_Init();
  69              		.loc 1 177 0
  70 0030 FFF7FEFF 		bl	_BLE_Init
  71              	.LVL4:
 178:.\main.c      **** }...
  72              		.loc 1 178 0
  73              		@ sp needed
  74 0034 08BD     		pop	{r3, pc}
  75              	.L3:
  76 0036 C046     		.align	2
  77              	.L2:
  78 0038 00000000 		.word	Status_Ready
  79 003c 00000000 		.word	Status_Acquiring
  80 0040 00000000 		.word	Status_NoMoreSpace
  81 0044 00000000 		.word	Status_DataAcquired
  82 0048 00000000 		.word	Status_Sending
  83 004c 00000000 		.word	Status_NoMoreData
  84              		.cfi_endproc
  85              	.LFE36:
  86              		.size	InitializeSystem, .-InitializeSystem
  87              		.section	.text.main,"ax",%progbits
  88              		.align	2
  89              		.global	main
  90              		.code	16
  91              		.thumb_func
  92              		.type	main, %function
  93              	main:
  94              	.LFB35:
  68:.\main.c      **** {
  95              		.loc 1 68 0
  96              		.cfi_startproc
  97 0000 08B5     		push	{r3, lr}
  98              		.cfi_def_cfa_offset 8
  99              		.cfi_offset 3, -8
 100              		.cfi_offset 14, -4
  69:.\main.c      ****     InitializeSystem();
 101              		.loc 1 69 0
 102 0002 FFF7FEFF 		bl	InitializeSystem
 103              	.LVL5:
 104              	.L11:
  74:.\main.c      ****         CyBle_ProcessEvents();
ARM GAS  C:\Users\ALEXAN~1\AppData\Local\Temp\ccvPcvmD.s 			page 6


 105              		.loc 1 74 0
 106 0006 FFF7FEFF 		bl	CyBle_ProcessEvents
 107              	.LVL6:
  77:.\main.c      ****         _BLE_UpdateCCCD();
 108              		.loc 1 77 0
 109 000a FFF7FEFF 		bl	_BLE_UpdateCCCD
 110              	.LVL7:
  80:.\main.c      ****         _BLE_UpdateControl();
 111              		.loc 1 80 0
 112 000e FFF7FEFF 		bl	_BLE_UpdateControl
 113              	.LVL8:
  84:.\main.c      ****         if ( _BLE_sendData ) {
 114              		.loc 1 84 0
 115 0012 2A4B     		ldr	r3, .L13
 116 0014 1B78     		ldrb	r3, [r3]
 117 0016 002B     		cmp	r3, #0
 118 0018 13D0     		beq	.L5
  85:.\main.c      ****             Status_DataAcquired = FALSE;
 119              		.loc 1 85 0
 120 001a 0022     		mov	r2, #0
 121 001c 284B     		ldr	r3, .L13+4
 122 001e 1A70     		strb	r2, [r3]
  86:.\main.c      ****             Status_Sending = TRUE;
 123              		.loc 1 86 0
 124 0020 0132     		add	r2, r2, #1
 125 0022 284B     		ldr	r3, .L13+8
 126 0024 1A70     		strb	r2, [r3]
  89:.\main.c      ****             if( NO_MORE_DATA == _BLE_sendCapSenseData() ) {
 127              		.loc 1 89 0
 128 0026 FFF7FEFF 		bl	_BLE_sendCapSenseData
 129              	.LVL9:
 130 002a 0228     		cmp	r0, #2
 131 002c 05D1     		bne	.L6
  90:.\main.c      ****                 Status_NoMoreData = TRUE;
 132              		.loc 1 90 0
 133 002e 0122     		mov	r2, #1
 134 0030 254B     		ldr	r3, .L13+12
 135 0032 1A70     		strb	r2, [r3]
  91:.\main.c      ****                 deleteVector();
 136              		.loc 1 91 0
 137 0034 FFF7FEFF 		bl	deleteVector
 138              	.LVL10:
 139 0038 38E0     		b	.L7
 140              	.L6:
  94:.\main.c      ****                 Status_NoMoreData = FALSE;
 141              		.loc 1 94 0
 142 003a 0022     		mov	r2, #0
 143 003c 224B     		ldr	r3, .L13+12
 144 003e 1A70     		strb	r2, [r3]
 145 0040 34E0     		b	.L7
 146              	.L5:
  99:.\main.c      ****         else if ( _BLE_acquireData ) {
 147              		.loc 1 99 0
 148 0042 224B     		ldr	r3, .L13+16
 149 0044 1B78     		ldrb	r3, [r3]
 150 0046 002B     		cmp	r3, #0
 151 0048 11D0     		beq	.L8
ARM GAS  C:\Users\ALEXAN~1\AppData\Local\Temp\ccvPcvmD.s 			page 7


 100:.\main.c      ****             Status_Ready = FALSE;
 152              		.loc 1 100 0
 153 004a 0022     		mov	r2, #0
 154 004c 204B     		ldr	r3, .L13+20
 155 004e 1A70     		strb	r2, [r3]
 101:.\main.c      ****             Status_Acquiring = TRUE;
 156              		.loc 1 101 0
 157 0050 0132     		add	r2, r2, #1
 158 0052 204B     		ldr	r3, .L13+24
 159 0054 1A70     		strb	r2, [r3]
 104:.\main.c      ****             if( NO_MORE_SPACE == _CapSense_Scan() )
 160              		.loc 1 104 0
 161 0056 FFF7FEFF 		bl	_CapSense_Scan
 162              	.LVL11:
 163 005a 0128     		cmp	r0, #1
 164 005c 03D1     		bne	.L9
 105:.\main.c      ****                 Status_NoMoreSpace = TRUE;
 165              		.loc 1 105 0
 166 005e 0122     		mov	r2, #1
 167 0060 1D4B     		ldr	r3, .L13+28
 168 0062 1A70     		strb	r2, [r3]
 169 0064 22E0     		b	.L7
 170              	.L9:
 107:.\main.c      ****                 Status_NoMoreSpace = FALSE;
 171              		.loc 1 107 0
 172 0066 0022     		mov	r2, #0
 173 0068 1B4B     		ldr	r3, .L13+28
 174 006a 1A70     		strb	r2, [r3]
 175 006c 1EE0     		b	.L7
 176              	.L8:
 112:.\main.c      ****         else if ( !_BLE_acquireData && !vectorIsEmpty() ) {
 177              		.loc 1 112 0
 178 006e 002B     		cmp	r3, #0
 179 0070 0CD1     		bne	.L10
 112:.\main.c      ****         else if ( !_BLE_acquireData && !vectorIsEmpty() ) {
 180              		.loc 1 112 0 is_stmt 0 discriminator 1
 181 0072 FFF7FEFF 		bl	vectorIsEmpty
 182              	.LVL12:
 183 0076 0028     		cmp	r0, #0
 184 0078 08D1     		bne	.L10
 113:.\main.c      ****             Status_Acquiring = FALSE;
 185              		.loc 1 113 0 is_stmt 1
 186 007a 0023     		mov	r3, #0
 187 007c 154A     		ldr	r2, .L13+24
 188 007e 1370     		strb	r3, [r2]
 114:.\main.c      ****             Status_NoMoreSpace = FALSE;
 189              		.loc 1 114 0
 190 0080 154A     		ldr	r2, .L13+28
 191 0082 1370     		strb	r3, [r2]
 115:.\main.c      ****             Status_DataAcquired = TRUE;
 192              		.loc 1 115 0
 193 0084 0122     		mov	r2, #1
 194 0086 0E4B     		ldr	r3, .L13+4
 195 0088 1A70     		strb	r2, [r3]
 196 008a 0FE0     		b	.L7
 197              	.L10:
 121:.\main.c      ****         else if ( !_BLE_sendData && vectorIsEmpty() ) {
ARM GAS  C:\Users\ALEXAN~1\AppData\Local\Temp\ccvPcvmD.s 			page 8


 198              		.loc 1 121 0
 199 008c 0B4B     		ldr	r3, .L13
 200 008e 1B78     		ldrb	r3, [r3]
 201 0090 002B     		cmp	r3, #0
 202 0092 0BD1     		bne	.L7
 121:.\main.c      ****         else if ( !_BLE_sendData && vectorIsEmpty() ) {
 203              		.loc 1 121 0 is_stmt 0 discriminator 1
 204 0094 FFF7FEFF 		bl	vectorIsEmpty
 205              	.LVL13:
 206 0098 0028     		cmp	r0, #0
 207 009a 07D0     		beq	.L7
 122:.\main.c      ****             Status_Sending = FALSE;
 208              		.loc 1 122 0 is_stmt 1
 209 009c 0023     		mov	r3, #0
 210 009e 094A     		ldr	r2, .L13+8
 211 00a0 1370     		strb	r3, [r2]
 123:.\main.c      ****             Status_NoMoreData = FALSE;
 212              		.loc 1 123 0
 213 00a2 094A     		ldr	r2, .L13+12
 214 00a4 1370     		strb	r3, [r2]
 124:.\main.c      ****             Status_Ready = TRUE;
 215              		.loc 1 124 0
 216 00a6 0122     		mov	r2, #1
 217 00a8 094B     		ldr	r3, .L13+20
 218 00aa 1A70     		strb	r2, [r3]
 219              	.L7:
 129:.\main.c      ****         if (_BLE_sendStatus)
 220              		.loc 1 129 0
 221 00ac 0B4B     		ldr	r3, .L13+32
 222 00ae 1B78     		ldrb	r3, [r3]
 223 00b0 002B     		cmp	r3, #0
 224 00b2 A8D0     		beq	.L11
 130:.\main.c      ****             _BLE_sendPSOCStatus();
 225              		.loc 1 130 0
 226 00b4 FFF7FEFF 		bl	_BLE_sendPSOCStatus
 227              	.LVL14:
 228 00b8 A5E7     		b	.L11
 229              	.L14:
 230 00ba C046     		.align	2
 231              	.L13:
 232 00bc 00000000 		.word	_BLE_sendData
 233 00c0 00000000 		.word	Status_DataAcquired
 234 00c4 00000000 		.word	Status_Sending
 235 00c8 00000000 		.word	Status_NoMoreData
 236 00cc 00000000 		.word	_BLE_acquireData
 237 00d0 00000000 		.word	Status_Ready
 238 00d4 00000000 		.word	Status_Acquiring
 239 00d8 00000000 		.word	Status_NoMoreSpace
 240 00dc 00000000 		.word	_BLE_sendStatus
 241              		.cfi_endproc
 242              	.LFE35:
 243              		.size	main, .-main
 244              		.comm	Status_NoMoreData,1,1
 245              		.comm	Status_Sending,1,1
 246              		.comm	Status_DataAcquired,1,1
 247              		.comm	Status_NoMoreSpace,1,1
 248              		.comm	Status_Acquiring,1,1
ARM GAS  C:\Users\ALEXAN~1\AppData\Local\Temp\ccvPcvmD.s 			page 9


 249              		.comm	Status_Ready,1,1
 250              		.text
 251              	.Letext0:
 252              		.file 2 ".\\_BLE.h"
 253              		.file 3 ".\\crc.h"
 254              		.file 4 ".\\_PrISM.h"
 255              		.file 5 ".\\_CapSense.h"
 256              		.file 6 "Generated_Source\\PSoC4/BLE_Stack.h"
 257              		.file 7 ".\\vector.h"
 258              		.file 8 "Generated_Source\\PSoC4/cytypes.h"