ARM GAS  C:\Users\ALEXAN~1\AppData\Local\Temp\ccxjozQn.s 			page 1


   1              		.cpu cortex-m0
   2              		.fpu softvfp
   3              		.eabi_attribute 20, 1
   4              		.eabi_attribute 21, 1
   5              		.eabi_attribute 23, 3
   6              		.eabi_attribute 24, 1
   7              		.eabi_attribute 25, 1
   8              		.eabi_attribute 26, 1
   9              		.eabi_attribute 30, 1
  10              		.eabi_attribute 34, 0
  11              		.eabi_attribute 18, 4
  12              		.code	16
  13              		.file	"vector.c"
  14              		.text
  15              	.Ltext0:
  16              		.cfi_sections	.debug_frame
  17              		.section	.text.Vector_Init,"ax",%progbits
  18              		.align	2
  19              		.global	Vector_Init
  20              		.code	16
  21              		.thumb_func
  22              		.type	Vector_Init, %function
  23              	Vector_Init:
  24              	.LFB35:
  25              		.file 1 ".\\vector.c"
   1:.\vector.c    **** /****************************************************************************
   2:.\vector.c    **** *
   3:.\vector.c    **** * Project Name		: PSoC CapSense 2 BLE
   4:.\vector.c    **** *
   5:.\vector.c    **** * File Name			: vector.c
   6:.\vector.c    **** * Version 			: 1.0
   7:.\vector.c    **** *
   8:.\vector.c    **** * Device Used		: CY8C4247LQI-BL483
   9:.\vector.c    **** * Software Used		: PSoC Creator 3.2
  10:.\vector.c    **** * Compiler    		: ARM GCC 4.8.4, ARM MDK Generic
  11:.\vector.c    **** * Related Hardware	: CY8CKIT-042-BLE Bluetooth Low Energy Pioneer Kit
  12:.\vector.c    **** *
  13:.\vector.c    **** * Owner             : A. BERNIER
  14:.\vector.c    **** *
  15:.\vector.c    **** *****************************************************************************
  16:.\vector.c    **** *
  17:.\vector.c    **** * Source:	http://www.sourcetricks.com/2008/07/c-queues.html
  18:.\vector.c    **** *
  19:.\vector.c    **** *****************************************************************************/
  20:.\vector.c    **** 
  21:.\vector.c    **** 
  22:.\vector.c    **** /*****************************************************************************
  23:.\vector.c    **** * Included headers
  24:.\vector.c    **** *****************************************************************************/
  25:.\vector.c    **** #include "vector.h"
  26:.\vector.c    **** 
  27:.\vector.c    **** 
  28:.\vector.c    **** /*****************************************************************************
  29:.\vector.c    **** * Local global variables
  30:.\vector.c    **** *****************************************************************************/
  31:.\vector.c    **** typedef struct vector {
  32:.\vector.c    ****     uint16 data[VECTOR_MAX_SIZE];
ARM GAS  C:\Users\ALEXAN~1\AppData\Local\Temp\ccxjozQn.s 			page 2


  33:.\vector.c    **** } vector;
  34:.\vector.c    ****     
  35:.\vector.c    **** vector sensor[CapSense_TOTAL_SENSOR_COUNT];
  36:.\vector.c    **** 
  37:.\vector.c    **** uint16 front;
  38:.\vector.c    **** uint16 rear;
  39:.\vector.c    **** 
  40:.\vector.c    **** 
  41:.\vector.c    **** /*****************************************************************************
  42:.\vector.c    **** * Function Name: Vector_Init()
  43:.\vector.c    **** ******************************************************************************
  44:.\vector.c    **** * Summary:
  45:.\vector.c    **** *   Initialize the vectors' pointers.
  46:.\vector.c    **** *
  47:.\vector.c    **** * Parameters:
  48:.\vector.c    **** *   None.
  49:.\vector.c    **** *
  50:.\vector.c    **** * Return:
  51:.\vector.c    **** *   None.
  52:.\vector.c    **** *
  53:.\vector.c    **** * Note:
  54:.\vector.c    **** *   
  55:.\vector.c    **** *****************************************************************************/
  56:.\vector.c    **** void Vector_Init() {
  26              		.loc 1 56 0
  27              		.cfi_startproc
  57:.\vector.c    ****         front = 0;
  28              		.loc 1 57 0
  29 0000 0023     		mov	r3, #0
  30 0002 024A     		ldr	r2, .L2
  31 0004 1380     		strh	r3, [r2]
  58:.\vector.c    ****         rear = 0;
  32              		.loc 1 58 0
  33 0006 024A     		ldr	r2, .L2+4
  34 0008 1380     		strh	r3, [r2]
  59:.\vector.c    **** }
  35              		.loc 1 59 0
  36              		@ sp needed
  37 000a 7047     		bx	lr
  38              	.L3:
  39              		.align	2
  40              	.L2:
  41 000c 00000000 		.word	front
  42 0010 00000000 		.word	rear
  43              		.cfi_endproc
  44              	.LFE35:
  45              		.size	Vector_Init, .-Vector_Init
  46              		.section	.text.pushInVector,"ax",%progbits
  47              		.align	2
  48              		.global	pushInVector
  49              		.code	16
  50              		.thumb_func
  51              		.type	pushInVector, %function
  52              	pushInVector:
  53              	.LFB36:
  60:.\vector.c    **** 
  61:.\vector.c    **** 
ARM GAS  C:\Users\ALEXAN~1\AppData\Local\Temp\ccxjozQn.s 			page 3


  62:.\vector.c    **** /*****************************************************************************
  63:.\vector.c    **** * Function Name: pushInVector()
  64:.\vector.c    **** ******************************************************************************
  65:.\vector.c    **** * Summary:
  66:.\vector.c    **** *   Insert the data at the end of the vector and increment the rear pointer.
  67:.\vector.c    **** *
  68:.\vector.c    **** * Parameters:
  69:.\vector.c    **** *   The array of data to insert.
  70:.\vector.c    **** *
  71:.\vector.c    **** * Return:
  72:.\vector.c    **** *   None.
  73:.\vector.c    **** *
  74:.\vector.c    **** * Note:
  75:.\vector.c    **** *   There must be as many data to insert as there are sensors enabled.
  76:.\vector.c    **** *****************************************************************************/
  77:.\vector.c    **** void pushInVector(uint16 *dataIn) {
  54              		.loc 1 77 0
  55              		.cfi_startproc
  56              	.LVL0:
  57 0000 10B5     		push	{r4, lr}
  58              		.cfi_def_cfa_offset 8
  59              		.cfi_offset 4, -8
  60              		.cfi_offset 14, -4
  61              	.LVL1:
  78:.\vector.c    ****     uint8 i;
  79:.\vector.c    ****     
  80:.\vector.c    ****     for (i = 0; i < CapSense_TOTAL_SENSOR_COUNT; i++)
  62              		.loc 1 80 0
  63 0002 0023     		mov	r3, #0
  64 0004 0AE0     		b	.L5
  65              	.LVL2:
  66              	.L6:
  81:.\vector.c    ****         sensor[i].data[rear] = dataIn[i];
  67              		.loc 1 81 0 discriminator 3
  68 0006 0A4A     		ldr	r2, .L7
  69 0008 1288     		ldrh	r2, [r2]
  70 000a 5900     		lsl	r1, r3, #1
  71 000c 0C5A     		ldrh	r4, [r1, r0]
  72 000e 5902     		lsl	r1, r3, #9
  73 0010 8A18     		add	r2, r1, r2
  74 0012 5200     		lsl	r2, r2, #1
  75 0014 0749     		ldr	r1, .L7+4
  76 0016 5452     		strh	r4, [r2, r1]
  80:.\vector.c    ****         sensor[i].data[rear] = dataIn[i];
  77              		.loc 1 80 0 discriminator 3
  78 0018 0133     		add	r3, r3, #1
  79              	.LVL3:
  80 001a DBB2     		uxtb	r3, r3
  81              	.LVL4:
  82              	.L5:
  80:.\vector.c    ****         sensor[i].data[rear] = dataIn[i];
  83              		.loc 1 80 0 is_stmt 0 discriminator 1
  84 001c 042B     		cmp	r3, #4
  85 001e F2D9     		bls	.L6
  82:.\vector.c    ****     
  83:.\vector.c    ****     rear++;
  86              		.loc 1 83 0 is_stmt 1
ARM GAS  C:\Users\ALEXAN~1\AppData\Local\Temp\ccxjozQn.s 			page 4


  87 0020 034A     		ldr	r2, .L7
  88 0022 1388     		ldrh	r3, [r2]
  89              	.LVL5:
  90 0024 0133     		add	r3, r3, #1
  84:.\vector.c    ****     rear = rear % VECTOR_MAX_SIZE;
  91              		.loc 1 84 0
  92 0026 DB05     		lsl	r3, r3, #23
  93 0028 DB0D     		lsr	r3, r3, #23
  94 002a 1380     		strh	r3, [r2]
  85:.\vector.c    **** 
  86:.\vector.c    **** }
  95              		.loc 1 86 0
  96              		@ sp needed
  97 002c 10BD     		pop	{r4, pc}
  98              	.L8:
  99 002e C046     		.align	2
 100              	.L7:
 101 0030 00000000 		.word	rear
 102 0034 00000000 		.word	sensor
 103              		.cfi_endproc
 104              	.LFE36:
 105              		.size	pushInVector, .-pushInVector
 106              		.section	.text.popOutVector,"ax",%progbits
 107              		.align	2
 108              		.global	popOutVector
 109              		.code	16
 110              		.thumb_func
 111              		.type	popOutVector, %function
 112              	popOutVector:
 113              	.LFB37:
  87:.\vector.c    **** 
  88:.\vector.c    **** 
  89:.\vector.c    **** /*****************************************************************************
  90:.\vector.c    **** * Function Name: popOutVector()
  91:.\vector.c    **** ******************************************************************************
  92:.\vector.c    **** * Summary:
  93:.\vector.c    **** *   Return the first data of the vector and increment the front pointer.
  94:.\vector.c    **** *
  95:.\vector.c    **** * Parameters:
  96:.\vector.c    **** *   The array that will be containing the first data of the vectors.
  97:.\vector.c    **** *
  98:.\vector.c    **** * Return:
  99:.\vector.c    **** *   None.
 100:.\vector.c    **** *
 101:.\vector.c    **** * Note:
 102:.\vector.c    **** *   'array' must have enough space to receive the data of all the
 103:.\vector.c    **** *   enabled sensors.
 104:.\vector.c    **** *****************************************************************************/
 105:.\vector.c    **** void popOutVector(uint16 *dataOut) {    
 114              		.loc 1 105 0
 115              		.cfi_startproc
 116              	.LVL6:
 117 0000 10B5     		push	{r4, lr}
 118              		.cfi_def_cfa_offset 8
 119              		.cfi_offset 4, -8
 120              		.cfi_offset 14, -4
 121              	.LVL7:
ARM GAS  C:\Users\ALEXAN~1\AppData\Local\Temp\ccxjozQn.s 			page 5


 106:.\vector.c    ****     uint8 i;
 107:.\vector.c    ****     
 108:.\vector.c    ****     for (i = 0; i < CapSense_TOTAL_SENSOR_COUNT; i++)
 122              		.loc 1 108 0
 123 0002 0023     		mov	r3, #0
 124 0004 0AE0     		b	.L10
 125              	.LVL8:
 126              	.L11:
 109:.\vector.c    ****         dataOut[i] = sensor[i].data[front];
 127              		.loc 1 109 0 discriminator 3
 128 0006 5900     		lsl	r1, r3, #1
 129 0008 094A     		ldr	r2, .L12
 130 000a 1288     		ldrh	r2, [r2]
 131 000c 5C02     		lsl	r4, r3, #9
 132 000e A218     		add	r2, r4, r2
 133 0010 5200     		lsl	r2, r2, #1
 134 0012 084C     		ldr	r4, .L12+4
 135 0014 125B     		ldrh	r2, [r2, r4]
 136 0016 4252     		strh	r2, [r0, r1]
 108:.\vector.c    ****         dataOut[i] = sensor[i].data[front];
 137              		.loc 1 108 0 discriminator 3
 138 0018 0133     		add	r3, r3, #1
 139              	.LVL9:
 140 001a DBB2     		uxtb	r3, r3
 141              	.LVL10:
 142              	.L10:
 108:.\vector.c    ****         dataOut[i] = sensor[i].data[front];
 143              		.loc 1 108 0 is_stmt 0 discriminator 1
 144 001c 042B     		cmp	r3, #4
 145 001e F2D9     		bls	.L11
 110:.\vector.c    ****         
 111:.\vector.c    ****     front++;
 146              		.loc 1 111 0 is_stmt 1
 147 0020 034A     		ldr	r2, .L12
 148 0022 1388     		ldrh	r3, [r2]
 149              	.LVL11:
 150 0024 0133     		add	r3, r3, #1
 112:.\vector.c    ****     front = front % VECTOR_MAX_SIZE;
 151              		.loc 1 112 0
 152 0026 DB05     		lsl	r3, r3, #23
 153 0028 DB0D     		lsr	r3, r3, #23
 154 002a 1380     		strh	r3, [r2]
 113:.\vector.c    **** 
 114:.\vector.c    **** }
 155              		.loc 1 114 0
 156              		@ sp needed
 157 002c 10BD     		pop	{r4, pc}
 158              	.L13:
 159 002e C046     		.align	2
 160              	.L12:
 161 0030 00000000 		.word	front
 162 0034 00000000 		.word	sensor
 163              		.cfi_endproc
 164              	.LFE37:
 165              		.size	popOutVector, .-popOutVector
 166              		.section	.text.vectorSize,"ax",%progbits
 167              		.align	2
ARM GAS  C:\Users\ALEXAN~1\AppData\Local\Temp\ccxjozQn.s 			page 6


 168              		.global	vectorSize
 169              		.code	16
 170              		.thumb_func
 171              		.type	vectorSize, %function
 172              	vectorSize:
 173              	.LFB38:
 115:.\vector.c    **** 
 116:.\vector.c    **** 
 117:.\vector.c    **** /*****************************************************************************
 118:.\vector.c    **** * Function Name: vectorSize()
 119:.\vector.c    **** ******************************************************************************
 120:.\vector.c    **** * Summary:
 121:.\vector.c    **** *   Calculate and return the size of the vectors.
 122:.\vector.c    **** *
 123:.\vector.c    **** * Parameters:
 124:.\vector.c    **** *   None.
 125:.\vector.c    **** *
 126:.\vector.c    **** * Return:
 127:.\vector.c    **** *   The size of the vectors.
 128:.\vector.c    **** *
 129:.\vector.c    **** * Note:
 130:.\vector.c    **** *   
 131:.\vector.c    **** *****************************************************************************/
 132:.\vector.c    **** uint16 vectorSize(void) {
 174              		.loc 1 132 0
 175              		.cfi_startproc
 133:.\vector.c    ****     if (rear >= front)
 176              		.loc 1 133 0
 177 0000 054B     		ldr	r3, .L17
 178 0002 1888     		ldrh	r0, [r3]
 179 0004 054B     		ldr	r3, .L17+4
 180 0006 1B88     		ldrh	r3, [r3]
 181 0008 9842     		cmp	r0, r3
 182 000a 02D3     		bcc	.L15
 134:.\vector.c    ****         return (rear - front);
 183              		.loc 1 134 0
 184 000c C31A     		sub	r3, r0, r3
 185 000e 98B2     		uxth	r0, r3
 186 0010 01E0     		b	.L16
 187              	.L15:
 135:.\vector.c    ****     else
 136:.\vector.c    ****         return (front - rear);
 188              		.loc 1 136 0
 189 0012 1B1A     		sub	r3, r3, r0
 190 0014 98B2     		uxth	r0, r3
 191              	.L16:
 137:.\vector.c    **** }
 192              		.loc 1 137 0
 193              		@ sp needed
 194 0016 7047     		bx	lr
 195              	.L18:
 196              		.align	2
 197              	.L17:
 198 0018 00000000 		.word	rear
 199 001c 00000000 		.word	front
 200              		.cfi_endproc
 201              	.LFE38:
ARM GAS  C:\Users\ALEXAN~1\AppData\Local\Temp\ccxjozQn.s 			page 7


 202              		.size	vectorSize, .-vectorSize
 203              		.section	.text.vectorIsEmpty,"ax",%progbits
 204              		.align	2
 205              		.global	vectorIsEmpty
 206              		.code	16
 207              		.thumb_func
 208              		.type	vectorIsEmpty, %function
 209              	vectorIsEmpty:
 210              	.LFB39:
 138:.\vector.c    **** 
 139:.\vector.c    **** 
 140:.\vector.c    **** /*****************************************************************************
 141:.\vector.c    **** * Function Name: vectorIsEmpty()
 142:.\vector.c    **** ******************************************************************************
 143:.\vector.c    **** * Summary:
 144:.\vector.c    **** *   Return true if the vector is empty.
 145:.\vector.c    **** *
 146:.\vector.c    **** * Parameters:
 147:.\vector.c    **** *   None.
 148:.\vector.c    **** *
 149:.\vector.c    **** * Return:
 150:.\vector.c    **** *   Return true if the vector is empty.
 151:.\vector.c    **** *
 152:.\vector.c    **** * Note:
 153:.\vector.c    **** *   
 154:.\vector.c    **** *****************************************************************************/
 155:.\vector.c    **** uint8 vectorIsEmpty(void) {
 211              		.loc 1 155 0
 212              		.cfi_startproc
 156:.\vector.c    ****     return (front == rear) ? TRUE : FALSE;
 213              		.loc 1 156 0
 214 0000 044B     		ldr	r3, .L22
 215 0002 1A88     		ldrh	r2, [r3]
 216 0004 044B     		ldr	r3, .L22+4
 217 0006 1B88     		ldrh	r3, [r3]
 218 0008 9A42     		cmp	r2, r3
 219 000a 01D1     		bne	.L21
 220 000c 0120     		mov	r0, #1
 221 000e 00E0     		b	.L20
 222              	.L21:
 223 0010 0020     		mov	r0, #0
 224              	.L20:
 157:.\vector.c    **** }
 225              		.loc 1 157 0 discriminator 4
 226              		@ sp needed
 227 0012 7047     		bx	lr
 228              	.L23:
 229              		.align	2
 230              	.L22:
 231 0014 00000000 		.word	front
 232 0018 00000000 		.word	rear
 233              		.cfi_endproc
 234              	.LFE39:
 235              		.size	vectorIsEmpty, .-vectorIsEmpty
 236              		.section	.text.vectorIsFull,"ax",%progbits
 237              		.align	2
 238              		.global	vectorIsFull
ARM GAS  C:\Users\ALEXAN~1\AppData\Local\Temp\ccxjozQn.s 			page 8


 239              		.code	16
 240              		.thumb_func
 241              		.type	vectorIsFull, %function
 242              	vectorIsFull:
 243              	.LFB40:
 158:.\vector.c    **** 
 159:.\vector.c    **** 
 160:.\vector.c    **** /*****************************************************************************
 161:.\vector.c    **** * Function Name: vectorIsFull()
 162:.\vector.c    **** ******************************************************************************
 163:.\vector.c    **** * Summary:
 164:.\vector.c    **** *   Return true if the vector is full.
 165:.\vector.c    **** *
 166:.\vector.c    **** * Parameters:
 167:.\vector.c    **** *   None.
 168:.\vector.c    **** *
 169:.\vector.c    **** * Return:
 170:.\vector.c    **** *   Return true if the vector is full..
 171:.\vector.c    **** *
 172:.\vector.c    **** * Note:
 173:.\vector.c    **** *   
 174:.\vector.c    **** *****************************************************************************/
 175:.\vector.c    **** uint8 vectorIsFull(void) {
 244              		.loc 1 175 0
 245              		.cfi_startproc
 246 0000 08B5     		push	{r3, lr}
 247              		.cfi_def_cfa_offset 8
 248              		.cfi_offset 3, -8
 249              		.cfi_offset 14, -4
 176:.\vector.c    ****     return ( vectorSize() == (VECTOR_MAX_SIZE - 1) ) ? TRUE : FALSE;
 250              		.loc 1 176 0
 251 0002 FFF7FEFF 		bl	vectorSize
 252              	.LVL12:
 253 0006 034B     		ldr	r3, .L27
 254 0008 9842     		cmp	r0, r3
 255 000a 01D1     		bne	.L26
 256 000c 0120     		mov	r0, #1
 257 000e 00E0     		b	.L25
 258              	.L26:
 259 0010 0020     		mov	r0, #0
 260              	.L25:
 177:.\vector.c    **** }
 261              		.loc 1 177 0 discriminator 4
 262              		@ sp needed
 263 0012 08BD     		pop	{r3, pc}
 264              	.L28:
 265              		.align	2
 266              	.L27:
 267 0014 FF010000 		.word	511
 268              		.cfi_endproc
 269              	.LFE40:
 270              		.size	vectorIsFull, .-vectorIsFull
 271              		.section	.text.deleteVector,"ax",%progbits
 272              		.align	2
 273              		.global	deleteVector
 274              		.code	16
 275              		.thumb_func
ARM GAS  C:\Users\ALEXAN~1\AppData\Local\Temp\ccxjozQn.s 			page 9


 276              		.type	deleteVector, %function
 277              	deleteVector:
 278              	.LFB41:
 178:.\vector.c    **** 
 179:.\vector.c    **** 
 180:.\vector.c    **** /*****************************************************************************
 181:.\vector.c    **** * Function Name: deleteVector()
 182:.\vector.c    **** ******************************************************************************
 183:.\vector.c    **** * Summary:
 184:.\vector.c    **** *   Reset the front and rear pointer.
 185:.\vector.c    **** *
 186:.\vector.c    **** * Parameters:
 187:.\vector.c    **** *   None.
 188:.\vector.c    **** *
 189:.\vector.c    **** * Return:
 190:.\vector.c    **** *   None.
 191:.\vector.c    **** *
 192:.\vector.c    **** * Note:
 193:.\vector.c    **** *   Doesn't delete the actual data.
 194:.\vector.c    **** *****************************************************************************/
 195:.\vector.c    **** void deleteVector(void) {
 279              		.loc 1 195 0
 280              		.cfi_startproc
 196:.\vector.c    ****         front = 0;
 281              		.loc 1 196 0
 282 0000 0023     		mov	r3, #0
 283 0002 024A     		ldr	r2, .L30
 284 0004 1380     		strh	r3, [r2]
 197:.\vector.c    ****         rear = 0;
 285              		.loc 1 197 0
 286 0006 024A     		ldr	r2, .L30+4
 287 0008 1380     		strh	r3, [r2]
 198:.\vector.c    **** }
 288              		.loc 1 198 0
 289              		@ sp needed
 290 000a 7047     		bx	lr
 291              	.L31:
 292              		.align	2
 293              	.L30:
 294 000c 00000000 		.word	front
 295 0010 00000000 		.word	rear
 296              		.cfi_endproc
 297              	.LFE41:
 298              		.size	deleteVector, .-deleteVector
 299              		.comm	rear,2,2
 300              		.comm	front,2,2
 301              		.comm	sensor,5120,4
 302              		.text
 303              	.Letext0:
 304              		.file 2 "Generated_Source\\PSoC4/cytypes.h"
 305              		.file 3 "Generated_Source\\PSoC4/BLE_Stack.h"